

Microchip Technology PIC18 LITE Macro Assembler V1.34 build -361300703 
                                                                                               Thu Nov 06 15:42:28 2025

Microchip Technology Omniscient Code Generator (Lite mode) build 201502162209
     1                           	processor	18F4620
     2                           	fnconf	rparam,??,?,0
     3                           	opt	pw 120
     4                           	opt	lm
     5                           	psect	idataCOMRAM,global,class=CODE,delta=1
     6                           	psect	idataBANK0,global,class=CODE,delta=1
     7                           	psect	idataBANK1,global,class=CODE,delta=1
     8                           	psect	mediumconst,global,reloc=2,class=MEDIUMCONST,delta=1
     9                           	psect	cinit,global,reloc=2,class=CODE,delta=1
    10                           	psect	bssCOMRAM,global,class=COMRAM,space=1,delta=1
    11                           	psect	dataCOMRAM,global,class=COMRAM,space=1,delta=1
    12                           	psect	dataBANK0,global,class=BANK0,space=1,delta=1
    13                           	psect	bssBANK1,global,class=BANK1,space=1,delta=1
    14                           	psect	dataBANK1,global,class=BANK1,space=1,delta=1
    15                           	psect	cstackBANK0,global,class=BANK0,space=1,delta=1
    16                           	psect	cstackCOMRAM,global,class=COMRAM,space=1,delta=1
    17                           	psect	text0,global,reloc=2,class=CODE,delta=1
    18                           	psect	text1,global,reloc=2,class=CODE,delta=1
    19                           	psect	text2,global,reloc=2,class=CODE,delta=1
    20                           	psect	text3,global,reloc=2,class=CODE,delta=1
    21                           	psect	text4,global,reloc=2,class=CODE,delta=1
    22                           	psect	text5,global,reloc=2,class=CODE,delta=1
    23                           	psect	text6,global,reloc=2,class=CODE,delta=1
    24                           	psect	text7,global,reloc=2,class=CODE,delta=1
    25                           	psect	text8,global,reloc=2,class=CODE,delta=1
    26                           	psect	text9,global,reloc=2,class=CODE,delta=1
    27                           	psect	text10,global,reloc=2,class=CODE,delta=1
    28                           	psect	text11,global,reloc=2,class=CODE,delta=1
    29                           	psect	text12,global,reloc=2,class=CODE,delta=1
    30                           	psect	text13,global,reloc=2,class=CODE,delta=1
    31                           	psect	text14,global,reloc=2,class=CODE,delta=1
    32                           	psect	text15,global,reloc=2,class=CODE,delta=1
    33                           	psect	text16,global,reloc=2,class=CODE,delta=1
    34                           	psect	text17,global,reloc=2,class=CODE,delta=1
    35                           	psect	text18,global,reloc=2,class=CODE,delta=1
    36                           	psect	text19,global,reloc=2,class=CODE,delta=1
    37                           	psect	text20,global,reloc=2,class=CODE,delta=1
    38                           	psect	text21,global,reloc=2,class=CODE,delta=1
    39                           	psect	text22,global,reloc=2,class=CODE,delta=1
    40                           	psect	text23,global,reloc=2,class=CODE,delta=1
    41                           	psect	text24,global,reloc=2,class=CODE,delta=1
    42                           	psect	text25,global,reloc=2,class=CODE,delta=1
    43                           	psect	text26,global,reloc=2,class=CODE,delta=1
    44                           	psect	text27,global,reloc=2,class=CODE,delta=1
    45                           	psect	text28,global,reloc=2,class=CODE,delta=1
    46                           	psect	text29,global,reloc=2,class=CODE,delta=1
    47                           	psect	text30,global,reloc=2,class=CODE,delta=1
    48                           	psect	text31,global,reloc=2,class=CODE,delta=1
    49                           	psect	text32,global,reloc=2,class=CODE,delta=1
    50                           	psect	text33,global,reloc=2,class=CODE,delta=1
    51                           	psect	text34,global,reloc=2,class=CODE,delta=1
    52                           	psect	text35,global,reloc=2,class=CODE,delta=1
    53                           	psect	text36,global,reloc=2,class=CODE,delta=1
    54                           	psect	text37,global,reloc=2,class=CODE,delta=1
    55                           	psect	text38,global,reloc=2,class=CODE,delta=1
    56                           	psect	text39,global,reloc=2,class=CODE,delta=1
    57                           	psect	text40,global,reloc=2,class=CODE,delta=1
    58                           	psect	text41,global,reloc=2,class=CODE,delta=1
    59                           	psect	text42,global,reloc=2,class=CODE,delta=1
    60                           	psect	text43,global,reloc=2,class=CODE,delta=1
    61                           	psect	text44,global,reloc=2,class=CODE,delta=1
    62                           	psect	text45,global,reloc=2,class=CODE,delta=1
    63                           	psect	text46,global,reloc=2,class=CODE,delta=1
    64                           	psect	text47,global,reloc=2,class=CODE,delta=1
    65                           	psect	text48,global,reloc=2,class=CODE,delta=1
    66                           	psect	text49,global,reloc=2,class=CODE,delta=1
    67                           	psect	text50,global,reloc=2,class=CODE,delta=1
    68                           	psect	text51,global,reloc=2,class=CODE,delta=1
    69                           	psect	text52,global,reloc=2,class=CODE,delta=1
    70                           	psect	text53,global,reloc=2,class=CODE,delta=1
    71                           	psect	text54,global,reloc=2,class=CODE,delta=1
    72                           	psect	text55,global,reloc=2,class=CODE,delta=1
    73                           	psect	text56,global,reloc=2,class=CODE,delta=1
    74                           	psect	text57,global,reloc=2,class=CODE,delta=1
    75                           	psect	text58,global,reloc=2,class=CODE,delta=1
    76                           	psect	text59,global,reloc=2,class=CODE,delta=1
    77                           	psect	text60,global,reloc=2,class=CODE,delta=1
    78                           	psect	text61,global,reloc=2,class=CODE,delta=1
    79                           	psect	text62,global,reloc=2,class=CODE,delta=1
    80                           	psect	text63,global,reloc=2,class=CODE,delta=1
    81                           	psect	text64,global,reloc=2,class=CODE,delta=1
    82                           	psect	text65,global,reloc=2,class=CODE,delta=1
    83                           	psect	text66,global,reloc=2,class=CODE,delta=1
    84                           	psect	text67,global,reloc=2,class=CODE,delta=1
    85                           	psect	text68,global,reloc=2,class=CODE,delta=1
    86                           	psect	text69,global,reloc=2,class=CODE,delta=1
    87                           	psect	text70,global,reloc=2,class=CODE,delta=1
    88                           	psect	text71,global,reloc=2,class=CODE,delta=1
    89                           	psect	intcode,global,reloc=2,class=CODE,delta=1
    90                           	psect	intcode_body,global,reloc=2,class=CODE,delta=1
    91                           	psect	text73,global,reloc=2,class=CODE,delta=1
    92                           	psect	text74,global,reloc=2,class=CODE,delta=1
    93                           	psect	text75,global,reloc=2,class=CODE,delta=1
    94                           	psect	intsave_regs,global,class=BIGRAM,space=1,delta=1
    95                           	psect	rparam,global,class=COMRAM,space=1,delta=1
    96  0000                     
    97                           	psect	idataCOMRAM
    98  002094                     __pidataCOMRAM:
    99                           	opt stack 0
   100                           
   101                           ;initializer for _tempSecond
   102  002094  FF                 	db	255
   103                           
   104                           ;initializer for _wrap
   105  002095  01                 	db	1
   106                           
   107                           	psect	idataBANK0
   108  0017A6                     __pidataBANK0:
   109                           	opt stack 0
   110                           
   111                           ;initializer for _LED1
   112  0017A6  01                 	db	1
   113  0017A7  01                 	db	1
   114  0017A8  01                 	db	1
   115  0017A9  06                 	db	6
   116  0017AA  06                 	db	6
   117  0017AB  02                 	db	2
   118  0017AC  04                 	db	4
   119  0017AD  00                 	db	0
   120  0017AE  00                 	db	0
   121  0017AF  00                 	db	0
   122  0017B0  00                 	db	0
   123  0017B1  00                 	db	0
   124  0017B2  00                 	db	0
   125  0017B3  00                 	db	0
   126  0017B4  00                 	db	0
   127  0017B5  00                 	db	0
   128  0017B6  00                 	db	0
   129  0017B7  00                 	db	0
   130  0017B8  00                 	db	0
   131  0017B9  00                 	db	0
   132  0017BA  00                 	db	0
   133                           
   134                           ;initializer for _LED2
   135  0017BB  00                 	db	0
   136  0017BC  00                 	db	0
   137  0017BD  00                 	db	0
   138  0017BE  00                 	db	0
   139  0017BF  00                 	db	0
   140  0017C0  00                 	db	0
   141  0017C1  00                 	db	0
   142  0017C2  20                 	db	32
   143  0017C3  28                 	db	40
   144  0017C4  38                 	db	56
   145  0017C5  38                 	db	56
   146  0017C6  38                 	db	56
   147  0017C7  38                 	db	56
   148  0017C8  38                 	db	56
   149  0017C9  00                 	db	0
   150  0017CA  00                 	db	0
   151  0017CB  00                 	db	0
   152  0017CC  00                 	db	0
   153  0017CD  00                 	db	0
   154  0017CE  00                 	db	0
   155  0017CF  00                 	db	0
   156                           
   157                           ;initializer for _LED3
   158  0017D0  00                 	db	0
   159  0017D1  00                 	db	0
   160  0017D2  00                 	db	0
   161  0017D3  00                 	db	0
   162  0017D4  00                 	db	0
   163  0017D5  00                 	db	0
   164  0017D6  00                 	db	0
   165  0017D7  00                 	db	0
   166  0017D8  00                 	db	0
   167  0017D9  00                 	db	0
   168  0017DA  00                 	db	0
   169  0017DB  00                 	db	0
   170  0017DC  00                 	db	0
   171  0017DD  00                 	db	0
   172  0017DE  38                 	db	56
   173  0017DF  38                 	db	56
   174  0017E0  38                 	db	56
   175  0017E1  38                 	db	56
   176  0017E2  38                 	db	56
   177  0017E3  38                 	db	56
   178  0017E4  38                 	db	56
   179                           
   180                           ;initializer for _LED4
   181  0017E5  00                 	db	0
   182  0017E6  00                 	db	0
   183  0017E7  00                 	db	0
   184  0017E8  00                 	db	0
   185  0017E9  00                 	db	0
   186  0017EA  00                 	db	0
   187  0017EB  00                 	db	0
   188  0017EC  00                 	db	0
   189  0017ED  00                 	db	0
   190  0017EE  01                 	db	1
   191  0017EF  00                 	db	0
   192  0017F0  00                 	db	0
   193  0017F1  01                 	db	1
   194  0017F2  01                 	db	1
   195  0017F3  01                 	db	1
   196  0017F4  01                 	db	1
   197  0017F5  01                 	db	1
   198  0017F6  01                 	db	1
   199  0017F7  01                 	db	1
   200  0017F8  01                 	db	1
   201  0017F9  01                 	db	1
   202                           
   203                           ;initializer for _array1
   204  0017FA  A2                 	db	162
   205  0017FB  62                 	db	98
   206  0017FC  E2                 	db	226
   207  0017FD  22                 	db	34
   208  0017FE  02                 	db	2
   209  0017FF  C2                 	db	194
   210  001800  E0                 	db	224
   211  001801  A8                 	db	168
   212  001802  90                 	db	144
   213  001803  68                 	db	104
   214  001804  98                 	db	152
   215  001805  B0                 	db	176
   216  001806  30                 	db	48
   217  001807  18                 	db	24
   218  001808  7A                 	db	122
   219  001809  10                 	db	16
   220  00180A  38                 	db	56
   221  00180B  5A                 	db	90
   222  00180C  42                 	db	66
   223  00180D  4A                 	db	74
   224  00180E  52                 	db	82
   225                           
   226                           ;initializer for _Timing_Txt
   227  00180F  53                 	db	83
   228  001810  50                 	db	80
   229  001811  32                 	db	50
   230  001812  34                 	db	52
   231  001813  2F                 	db	47
   232  001814  32                 	db	50
   233  001815  2F                 	db	47
   234  001816  30                 	db	48
   235  001817  31                 	db	49
   236  001818  00                 	db	0
   237                           
   238                           	psect	idataBANK1
   239  001632                     __pidataBANK1:
   240                           	opt stack 0
   241                           
   242                           ;initializer for _color
   243  001632  F800               	dw	63488
   244  001634  F800               	dw	63488
   245  001636  F800               	dw	63488
   246  001638  07FF               	dw	2047
   247  00163A  07FF               	dw	2047
   248  00163C  07E0               	dw	2016
   249  00163E  001F               	dw	31
   250  001640  001F               	dw	31
   251  001642  F81F               	dw	63519
   252  001644  0000               	dw	0
   253  001646  0000               	dw	0
   254  001648  0000               	dw	0
   255  00164A  0000               	dw	0
   256  00164C  0000               	dw	0
   257  00164E  0000               	dw	0
   258  001650  0000               	dw	0
   259  001652  0000               	dw	0
   260  001654  0000               	dw	0
   261  001656  0000               	dw	0
   262  001658  0000               	dw	0
   263  00165A  00                 	db	0
   264  00165B  00                 	db	0
   265                           
   266                           ;initializer for _txt1
   267  00165C  43                 	db	67
   268  00165D  48                 	db	72
   269  00165E  2D                 	db	45
   270  00165F  00                 	db	0
   271  001660  43                 	db	67
   272  001661  48                 	db	72
   273  001662  20                 	db	32
   274  001663  00                 	db	0
   275  001664  43                 	db	67
   276  001665  48                 	db	72
   277  001666  2B                 	db	43
   278  001667  00                 	db	0
   279  001668  7C                 	db	124
   280  001669  3C                 	db	60
   281  00166A  3C                 	db	60
   282  00166B  00                 	db	0
   283  00166C  3E                 	db	62
   284  00166D  3E                 	db	62
   285  00166E  7C                 	db	124
   286  00166F  00                 	db	0
   287  001670  3E                 	db	62
   288  001671  7C                 	db	124
   289  001672  7C                 	db	124
   290  001673  00                 	db	0
   291  001674  20                 	db	32
   292  001675  2D                 	db	45
   293  001676  20                 	db	32
   294  001677  00                 	db	0
   295  001678  20                 	db	32
   296  001679  2B                 	db	43
   297  00167A  20                 	db	32
   298  00167B  00                 	db	0
   299  00167C  45                 	db	69
   300  00167D  51                 	db	81
   301  00167E  20                 	db	32
   302  00167F  00                 	db	0
   303  001680  20                 	db	32
   304  001681  30                 	db	48
   305  001682  20                 	db	32
   306  001683  00                 	db	0
   307  001684  31                 	db	49
   308  001685  30                 	db	48
   309  001686  30                 	db	48
   310  001687  00                 	db	0
   311  001688  32                 	db	50
   312  001689  30                 	db	48
   313  00168A  30                 	db	48
   314  00168B  00                 	db	0
   315  00168C  20                 	db	32
   316  00168D  31                 	db	49
   317  00168E  20                 	db	32
   318  00168F  00                 	db	0
   319  001690  20                 	db	32
   320  001691  32                 	db	50
   321  001692  20                 	db	32
   322  001693  00                 	db	0
   323  001694  20                 	db	32
   324  001695  33                 	db	51
   325  001696  20                 	db	32
   326  001697  00                 	db	0
   327  001698  20                 	db	32
   328  001699  34                 	db	52
   329  00169A  20                 	db	32
   330  00169B  00                 	db	0
   331  00169C  20                 	db	32
   332  00169D  35                 	db	53
   333  00169E  20                 	db	32
   334  00169F  00                 	db	0
   335  0016A0  20                 	db	32
   336  0016A1  36                 	db	54
   337  0016A2  20                 	db	32
   338  0016A3  00                 	db	0
   339  0016A4  20                 	db	32
   340  0016A5  37                 	db	55
   341  0016A6  20                 	db	32
   342  0016A7  00                 	db	0
   343  0016A8  20                 	db	32
   344  0016A9  38                 	db	56
   345  0016AA  20                 	db	32
   346  0016AB  00                 	db	0
   347  0016AC  20                 	db	32
   348  0016AD  39                 	db	57
   349  0016AE  20                 	db	32
   350  0016AF  00                 	db	0
   351                           
   352                           	psect	mediumconst
   353  00FD72                     __pmediumconst:
   354                           	opt stack 0
   355  00FD72  00                 	db	0
   356  00FD73                     _font:
   357                           	opt stack 0
   358  00FD73  00                 	db	0
   359  00FD74  00                 	db	0
   360  00FD75  00                 	db	0
   361  00FD76  00                 	db	0
   362  00FD77  00                 	db	0
   363  00FD78  00                 	db	0
   364  00FD79  00                 	db	0
   365  00FD7A  5F                 	db	95
   366  00FD7B  00                 	db	0
   367  00FD7C  00                 	db	0
   368  00FD7D  00                 	db	0
   369  00FD7E  07                 	db	7
   370  00FD7F  00                 	db	0
   371  00FD80  07                 	db	7
   372  00FD81  00                 	db	0
   373  00FD82  14                 	db	20
   374  00FD83  7F                 	db	127
   375  00FD84  14                 	db	20
   376  00FD85  7F                 	db	127
   377  00FD86  14                 	db	20
   378  00FD87  24                 	db	36
   379  00FD88  2A                 	db	42
   380  00FD89  7F                 	db	127
   381  00FD8A  2A                 	db	42
   382  00FD8B  12                 	db	18
   383  00FD8C  23                 	db	35
   384  00FD8D  13                 	db	19
   385  00FD8E  08                 	db	8
   386  00FD8F  64                 	db	100
   387  00FD90  62                 	db	98
   388  00FD91  36                 	db	54
   389  00FD92  49                 	db	73
   390  00FD93  56                 	db	86
   391  00FD94  20                 	db	32
   392  00FD95  50                 	db	80
   393  00FD96  00                 	db	0
   394  00FD97  08                 	db	8
   395  00FD98  07                 	db	7
   396  00FD99  03                 	db	3
   397  00FD9A  00                 	db	0
   398  00FD9B  00                 	db	0
   399  00FD9C  1C                 	db	28
   400  00FD9D  22                 	db	34
   401  00FD9E  41                 	db	65
   402  00FD9F  00                 	db	0
   403  00FDA0  00                 	db	0
   404  00FDA1  41                 	db	65
   405  00FDA2  22                 	db	34
   406  00FDA3  1C                 	db	28
   407  00FDA4  00                 	db	0
   408  00FDA5  2A                 	db	42
   409  00FDA6  1C                 	db	28
   410  00FDA7  7F                 	db	127
   411  00FDA8  1C                 	db	28
   412  00FDA9  2A                 	db	42
   413  00FDAA  08                 	db	8
   414  00FDAB  08                 	db	8
   415  00FDAC  3E                 	db	62
   416  00FDAD  08                 	db	8
   417  00FDAE  08                 	db	8
   418  00FDAF  00                 	db	0
   419  00FDB0  80                 	db	128
   420  00FDB1  70                 	db	112
   421  00FDB2  30                 	db	48
   422  00FDB3  00                 	db	0
   423  00FDB4  08                 	db	8
   424  00FDB5  08                 	db	8
   425  00FDB6  08                 	db	8
   426  00FDB7  08                 	db	8
   427  00FDB8  08                 	db	8
   428  00FDB9  00                 	db	0
   429  00FDBA  00                 	db	0
   430  00FDBB  60                 	db	96
   431  00FDBC  60                 	db	96
   432  00FDBD  00                 	db	0
   433  00FDBE  20                 	db	32
   434  00FDBF  10                 	db	16
   435  00FDC0  08                 	db	8
   436  00FDC1  04                 	db	4
   437  00FDC2  02                 	db	2
   438  00FDC3  3E                 	db	62
   439  00FDC4  51                 	db	81
   440  00FDC5  49                 	db	73
   441  00FDC6  45                 	db	69
   442  00FDC7  3E                 	db	62
   443  00FDC8  00                 	db	0
   444  00FDC9  42                 	db	66
   445  00FDCA  7F                 	db	127
   446  00FDCB  40                 	db	64
   447  00FDCC  00                 	db	0
   448  00FDCD  72                 	db	114
   449  00FDCE  49                 	db	73
   450  00FDCF  49                 	db	73
   451  00FDD0  49                 	db	73
   452  00FDD1  46                 	db	70
   453  00FDD2  21                 	db	33
   454  00FDD3  41                 	db	65
   455  00FDD4  49                 	db	73
   456  00FDD5  4D                 	db	77
   457  00FDD6  33                 	db	51
   458  00FDD7  18                 	db	24
   459  00FDD8  14                 	db	20
   460  00FDD9  12                 	db	18
   461  00FDDA  7F                 	db	127
   462  00FDDB  10                 	db	16
   463  00FDDC  27                 	db	39
   464  00FDDD  45                 	db	69
   465  00FDDE  45                 	db	69
   466  00FDDF  45                 	db	69
   467  00FDE0  39                 	db	57
   468  00FDE1  3C                 	db	60
   469  00FDE2  4A                 	db	74
   470  00FDE3  49                 	db	73
   471  00FDE4  49                 	db	73
   472  00FDE5  31                 	db	49
   473  00FDE6  41                 	db	65
   474  00FDE7  21                 	db	33
   475  00FDE8  11                 	db	17
   476  00FDE9  09                 	db	9
   477  00FDEA  07                 	db	7
   478  00FDEB  36                 	db	54
   479  00FDEC  49                 	db	73
   480  00FDED  49                 	db	73
   481  00FDEE  49                 	db	73
   482  00FDEF  36                 	db	54
   483  00FDF0  46                 	db	70
   484  00FDF1  49                 	db	73
   485  00FDF2  49                 	db	73
   486  00FDF3  29                 	db	41
   487  00FDF4  1E                 	db	30
   488  00FDF5  00                 	db	0
   489  00FDF6  00                 	db	0
   490  00FDF7  14                 	db	20
   491  00FDF8  00                 	db	0
   492  00FDF9  00                 	db	0
   493  00FDFA  00                 	db	0
   494  00FDFB  40                 	db	64
   495  00FDFC  34                 	db	52
   496  00FDFD  00                 	db	0
   497  00FDFE  00                 	db	0
   498  00FDFF  00                 	db	0
   499  00FE00  08                 	db	8
   500  00FE01  14                 	db	20
   501  00FE02  22                 	db	34
   502  00FE03  41                 	db	65
   503  00FE04  14                 	db	20
   504  00FE05  14                 	db	20
   505  00FE06  14                 	db	20
   506  00FE07  14                 	db	20
   507  00FE08  14                 	db	20
   508  00FE09  00                 	db	0
   509  00FE0A  41                 	db	65
   510  00FE0B  22                 	db	34
   511  00FE0C  14                 	db	20
   512  00FE0D  08                 	db	8
   513  00FE0E  02                 	db	2
   514  00FE0F  01                 	db	1
   515  00FE10  59                 	db	89
   516  00FE11  09                 	db	9
   517  00FE12  06                 	db	6
   518  00FE13  3E                 	db	62
   519  00FE14  41                 	db	65
   520  00FE15  5D                 	db	93
   521  00FE16  59                 	db	89
   522  00FE17  4E                 	db	78
   523  00FE18  7C                 	db	124
   524  00FE19  12                 	db	18
   525  00FE1A  11                 	db	17
   526  00FE1B  12                 	db	18
   527  00FE1C  7C                 	db	124
   528  00FE1D  7F                 	db	127
   529  00FE1E  49                 	db	73
   530  00FE1F  49                 	db	73
   531  00FE20  49                 	db	73
   532  00FE21  36                 	db	54
   533  00FE22  3E                 	db	62
   534  00FE23  41                 	db	65
   535  00FE24  41                 	db	65
   536  00FE25  41                 	db	65
   537  00FE26  22                 	db	34
   538  00FE27  7F                 	db	127
   539  00FE28  41                 	db	65
   540  00FE29  41                 	db	65
   541  00FE2A  41                 	db	65
   542  00FE2B  3E                 	db	62
   543  00FE2C  7F                 	db	127
   544  00FE2D  49                 	db	73
   545  00FE2E  49                 	db	73
   546  00FE2F  49                 	db	73
   547  00FE30  41                 	db	65
   548  00FE31  7F                 	db	127
   549  00FE32  09                 	db	9
   550  00FE33  09                 	db	9
   551  00FE34  09                 	db	9
   552  00FE35  01                 	db	1
   553  00FE36  3E                 	db	62
   554  00FE37  41                 	db	65
   555  00FE38  41                 	db	65
   556  00FE39  51                 	db	81
   557  00FE3A  73                 	db	115
   558  00FE3B  7F                 	db	127
   559  00FE3C  08                 	db	8
   560  00FE3D  08                 	db	8
   561  00FE3E  08                 	db	8
   562  00FE3F  7F                 	db	127
   563  00FE40  00                 	db	0
   564  00FE41  41                 	db	65
   565  00FE42  7F                 	db	127
   566  00FE43  41                 	db	65
   567  00FE44  00                 	db	0
   568  00FE45  20                 	db	32
   569  00FE46  40                 	db	64
   570  00FE47  41                 	db	65
   571  00FE48  3F                 	db	63
   572  00FE49  01                 	db	1
   573  00FE4A  7F                 	db	127
   574  00FE4B  08                 	db	8
   575  00FE4C  14                 	db	20
   576  00FE4D  22                 	db	34
   577  00FE4E  41                 	db	65
   578  00FE4F  7F                 	db	127
   579  00FE50  40                 	db	64
   580  00FE51  40                 	db	64
   581  00FE52  40                 	db	64
   582  00FE53  40                 	db	64
   583  00FE54  7F                 	db	127
   584  00FE55  02                 	db	2
   585  00FE56  1C                 	db	28
   586  00FE57  02                 	db	2
   587  00FE58  7F                 	db	127
   588  00FE59  7F                 	db	127
   589  00FE5A  04                 	db	4
   590  00FE5B  08                 	db	8
   591  00FE5C  10                 	db	16
   592  00FE5D  7F                 	db	127
   593  00FE5E  3E                 	db	62
   594  00FE5F  41                 	db	65
   595  00FE60  41                 	db	65
   596  00FE61  41                 	db	65
   597  00FE62  3E                 	db	62
   598  00FE63  7F                 	db	127
   599  00FE64  09                 	db	9
   600  00FE65  09                 	db	9
   601  00FE66  09                 	db	9
   602  00FE67  06                 	db	6
   603  00FE68  3E                 	db	62
   604  00FE69  41                 	db	65
   605  00FE6A  51                 	db	81
   606  00FE6B  21                 	db	33
   607  00FE6C  5E                 	db	94
   608  00FE6D  7F                 	db	127
   609  00FE6E  09                 	db	9
   610  00FE6F  19                 	db	25
   611  00FE70  29                 	db	41
   612  00FE71  46                 	db	70
   613  00FE72                     __end_of_font:
   614                           	opt stack 0
   615  00FE72                     _font2:
   616                           	opt stack 0
   617  00FE72  26                 	db	38
   618  00FE73  49                 	db	73
   619  00FE74  49                 	db	73
   620  00FE75  49                 	db	73
   621  00FE76  32                 	db	50
   622  00FE77  03                 	db	3
   623  00FE78  01                 	db	1
   624  00FE79  7F                 	db	127
   625  00FE7A  01                 	db	1
   626  00FE7B  03                 	db	3
   627  00FE7C  3F                 	db	63
   628  00FE7D  40                 	db	64
   629  00FE7E  40                 	db	64
   630  00FE7F  40                 	db	64
   631  00FE80  3F                 	db	63
   632  00FE81  1F                 	db	31
   633  00FE82  20                 	db	32
   634  00FE83  40                 	db	64
   635  00FE84  20                 	db	32
   636  00FE85  1F                 	db	31
   637  00FE86  3F                 	db	63
   638  00FE87  40                 	db	64
   639  00FE88  38                 	db	56
   640  00FE89  40                 	db	64
   641  00FE8A  3F                 	db	63
   642  00FE8B  63                 	db	99
   643  00FE8C  14                 	db	20
   644  00FE8D  08                 	db	8
   645  00FE8E  14                 	db	20
   646  00FE8F  63                 	db	99
   647  00FE90  03                 	db	3
   648  00FE91  04                 	db	4
   649  00FE92  78                 	db	120
   650  00FE93  04                 	db	4
   651  00FE94  03                 	db	3
   652  00FE95  61                 	db	97
   653  00FE96  59                 	db	89
   654  00FE97  49                 	db	73
   655  00FE98  4D                 	db	77
   656  00FE99  43                 	db	67
   657  00FE9A  00                 	db	0
   658  00FE9B  7F                 	db	127
   659  00FE9C  41                 	db	65
   660  00FE9D  41                 	db	65
   661  00FE9E  41                 	db	65
   662  00FE9F  02                 	db	2
   663  00FEA0  04                 	db	4
   664  00FEA1  08                 	db	8
   665  00FEA2  10                 	db	16
   666  00FEA3  20                 	db	32
   667  00FEA4  00                 	db	0
   668  00FEA5  41                 	db	65
   669  00FEA6  41                 	db	65
   670  00FEA7  41                 	db	65
   671  00FEA8  7F                 	db	127
   672  00FEA9  04                 	db	4
   673  00FEAA  02                 	db	2
   674  00FEAB  01                 	db	1
   675  00FEAC  02                 	db	2
   676  00FEAD  04                 	db	4
   677  00FEAE  40                 	db	64
   678  00FEAF  40                 	db	64
   679  00FEB0  40                 	db	64
   680  00FEB1  40                 	db	64
   681  00FEB2  40                 	db	64
   682  00FEB3  00                 	db	0
   683  00FEB4  03                 	db	3
   684  00FEB5  07                 	db	7
   685  00FEB6  08                 	db	8
   686  00FEB7  00                 	db	0
   687  00FEB8  20                 	db	32
   688  00FEB9  54                 	db	84
   689  00FEBA  54                 	db	84
   690  00FEBB  78                 	db	120
   691  00FEBC  40                 	db	64
   692  00FEBD  7F                 	db	127
   693  00FEBE  28                 	db	40
   694  00FEBF  44                 	db	68
   695  00FEC0  44                 	db	68
   696  00FEC1  38                 	db	56
   697  00FEC2  38                 	db	56
   698  00FEC3  44                 	db	68
   699  00FEC4  44                 	db	68
   700  00FEC5  44                 	db	68
   701  00FEC6  28                 	db	40
   702  00FEC7  38                 	db	56
   703  00FEC8  44                 	db	68
   704  00FEC9  44                 	db	68
   705  00FECA  28                 	db	40
   706  00FECB  7F                 	db	127
   707  00FECC  38                 	db	56
   708  00FECD  54                 	db	84
   709  00FECE  54                 	db	84
   710  00FECF  54                 	db	84
   711  00FED0  18                 	db	24
   712  00FED1  00                 	db	0
   713  00FED2  08                 	db	8
   714  00FED3  7E                 	db	126
   715  00FED4  09                 	db	9
   716  00FED5  02                 	db	2
   717  00FED6  18                 	db	24
   718  00FED7  A4                 	db	164
   719  00FED8  A4                 	db	164
   720  00FED9  9C                 	db	156
   721  00FEDA  78                 	db	120
   722  00FEDB  7F                 	db	127
   723  00FEDC  08                 	db	8
   724  00FEDD  04                 	db	4
   725  00FEDE  04                 	db	4
   726  00FEDF  78                 	db	120
   727  00FEE0  00                 	db	0
   728  00FEE1  44                 	db	68
   729  00FEE2  7D                 	db	125
   730  00FEE3  40                 	db	64
   731  00FEE4  00                 	db	0
   732  00FEE5  20                 	db	32
   733  00FEE6  40                 	db	64
   734  00FEE7  40                 	db	64
   735  00FEE8  3D                 	db	61
   736  00FEE9  00                 	db	0
   737  00FEEA  7F                 	db	127
   738  00FEEB  10                 	db	16
   739  00FEEC  28                 	db	40
   740  00FEED  44                 	db	68
   741  00FEEE  00                 	db	0
   742  00FEEF  00                 	db	0
   743  00FEF0  41                 	db	65
   744  00FEF1  7F                 	db	127
   745  00FEF2  40                 	db	64
   746  00FEF3  00                 	db	0
   747  00FEF4  7C                 	db	124
   748  00FEF5  04                 	db	4
   749  00FEF6  78                 	db	120
   750  00FEF7  04                 	db	4
   751  00FEF8  78                 	db	120
   752  00FEF9  7C                 	db	124
   753  00FEFA  08                 	db	8
   754  00FEFB  04                 	db	4
   755  00FEFC  04                 	db	4
   756  00FEFD  78                 	db	120
   757  00FEFE  38                 	db	56
   758  00FEFF  44                 	db	68
   759  00FF00  44                 	db	68
   760  00FF01  44                 	db	68
   761  00FF02  38                 	db	56
   762  00FF03  FC                 	db	252
   763  00FF04  18                 	db	24
   764  00FF05  24                 	db	36
   765  00FF06  24                 	db	36
   766  00FF07  18                 	db	24
   767  00FF08  18                 	db	24
   768  00FF09  24                 	db	36
   769  00FF0A  24                 	db	36
   770  00FF0B  18                 	db	24
   771  00FF0C  FC                 	db	252
   772  00FF0D  7C                 	db	124
   773  00FF0E  08                 	db	8
   774  00FF0F  04                 	db	4
   775  00FF10  04                 	db	4
   776  00FF11  08                 	db	8
   777  00FF12  48                 	db	72
   778  00FF13  54                 	db	84
   779  00FF14  54                 	db	84
   780  00FF15  54                 	db	84
   781  00FF16  24                 	db	36
   782  00FF17  04                 	db	4
   783  00FF18  04                 	db	4
   784  00FF19  3F                 	db	63
   785  00FF1A  44                 	db	68
   786  00FF1B  24                 	db	36
   787  00FF1C  3C                 	db	60
   788  00FF1D  40                 	db	64
   789  00FF1E  40                 	db	64
   790  00FF1F  20                 	db	32
   791  00FF20  7C                 	db	124
   792  00FF21  1C                 	db	28
   793  00FF22  20                 	db	32
   794  00FF23  40                 	db	64
   795  00FF24  20                 	db	32
   796  00FF25  1C                 	db	28
   797  00FF26  3C                 	db	60
   798  00FF27  40                 	db	64
   799  00FF28  30                 	db	48
   800  00FF29  40                 	db	64
   801  00FF2A  3C                 	db	60
   802  00FF2B  44                 	db	68
   803  00FF2C  28                 	db	40
   804  00FF2D  10                 	db	16
   805  00FF2E  28                 	db	40
   806  00FF2F  44                 	db	68
   807  00FF30  4C                 	db	76
   808  00FF31  90                 	db	144
   809  00FF32  90                 	db	144
   810  00FF33  90                 	db	144
   811  00FF34  7C                 	db	124
   812  00FF35  44                 	db	68
   813  00FF36  64                 	db	100
   814  00FF37  54                 	db	84
   815  00FF38  4C                 	db	76
   816  00FF39  44                 	db	68
   817  00FF3A  00                 	db	0
   818  00FF3B  08                 	db	8
   819  00FF3C  36                 	db	54
   820  00FF3D  41                 	db	65
   821  00FF3E  00                 	db	0
   822  00FF3F  00                 	db	0
   823  00FF40  00                 	db	0
   824  00FF41  77                 	db	119
   825  00FF42  00                 	db	0
   826  00FF43  00                 	db	0
   827  00FF44  00                 	db	0
   828  00FF45  41                 	db	65
   829  00FF46  36                 	db	54
   830  00FF47  08                 	db	8
   831  00FF48  00                 	db	0
   832  00FF49  02                 	db	2
   833  00FF4A  01                 	db	1
   834  00FF4B  02                 	db	2
   835  00FF4C  04                 	db	4
   836  00FF4D  02                 	db	2
   837  00FF4E                     __end_of_font2:
   838                           	opt stack 0
   839  00FF4E                     _dpowers:
   840                           	opt stack 0
   841  00FF4E  0001               	dw	1
   842  00FF50  000A               	dw	10
   843  00FF52  0064               	dw	100
   844  00FF54  03E8               	dw	1000
   845  00FF56  2710               	dw	10000
   846  00FF58                     __end_of_dpowers:
   847                           	opt stack 0
   848  00FF58                     _hexpowers:
   849                           	opt stack 0
   850  00FF58  0001               	dw	1
   851  00FF5A  0010               	dw	16
   852  00FF5C  0100               	dw	256
   853  00FF5E  1000               	dw	4096
   854  00FF60                     __end_of_hexpowers:
   855                           	opt stack 0
   856  0000                     _ADCON0	set	4034
   857  0000                     _ADCON0bits	set	4034
   858  0000                     _ADCON1	set	4033
   859  0000                     _ADCON2	set	4032
   860  0000                     _ADRESH	set	4036
   861  0000                     _ADRESL	set	4035
   862  0000                     _CCP1CON	set	4029
   863  0000                     _CCP2CON	set	4026
   864  0000                     _CCPR1L	set	4030
   865  0000                     _CCPR2L	set	4027
   866  0000                     _INTCON2bits	set	4081
   867  0000                     _INTCONbits	set	4082
   868  0000                     _OSCCON	set	4051
   869  0000                     _PIE1bits	set	3997
   870  0000                     _PIR1bits	set	3998
   871  0000                     _PIR2bits	set	4001
   872  0000                     _PORTA	set	3968
   873  0000                     _PORTB	set	3969
   874  0000                     _PORTC	set	3970
   875  0000                     _PORTCbits	set	3970
   876  0000                     _PORTD	set	3971
   877  0000                     _PORTDbits	set	3971
   878  0000                     _PORTE	set	3972
   879  0000                     _PR2	set	4043
   880  0000                     _RCSTA	set	4011
   881  0000                     _RCSTAbits	set	4011
   882  0000                     _SPBRG	set	4015
   883  0000                     _SPBRGH	set	4016
   884  0000                     _SSPBUF	set	4041
   885  0000                     _SSPCON1	set	4038
   886  0000                     _SSPSTAT	set	4039
   887  0000                     _SSPSTATbits	set	4039
   888  0000                     _T0CON	set	4053
   889  0000                     _T0CONbits	set	4053
   890  0000                     _T1CON	set	4045
   891  0000                     _T1CONbits	set	4045
   892  0000                     _T2CON	set	4042
   893  0000                     _T3CON	set	4017
   894  0000                     _T3CONbits	set	4017
   895  0000                     _TMR0H	set	4055
   896  0000                     _TMR0L	set	4054
   897  0000                     _TMR1H	set	4047
   898  0000                     _TMR1L	set	4046
   899  0000                     _TMR3L	set	4018
   900  0000                     _TRISA	set	3986
   901  0000                     _TRISB	set	3987
   902  0000                     _TRISC	set	3988
   903  0000                     _TRISCbits	set	3988
   904  0000                     _TRISD	set	3989
   905  0000                     _TRISDbits	set	3989
   906  0000                     _TRISE	set	3990
   907  0000                     _TXREG	set	4013
   908  0000                     _TXSTA	set	4012
   909  0000                     _TXSTAbits	set	4012
   910  0000                     _TRMT	set	32097
   911  0000                     _nRBPU	set	32655
   912  00FF60                     STR_3:
   913  00FF60  20                 	db	32
   914  00FF61  54                 	db	84	;'T'
   915  00FF62  65                 	db	101	;'e'
   916  00FF63  6D                 	db	109	;'m'
   917  00FF64  70                 	db	112	;'p'
   918  00FF65  65                 	db	101	;'e'
   919  00FF66  72                 	db	114	;'r'
   920  00FF67  61                 	db	97	;'a'
   921  00FF68  74                 	db	116	;'t'
   922  00FF69  75                 	db	117	;'u'
   923  00FF6A  72                 	db	114	;'r'
   924  00FF6B  65                 	db	101	;'e'
   925  00FF6C  20                 	db	32
   926  00FF6D  3D                 	db	61	;'='
   927  00FF6E  20                 	db	32
   928  00FF6F  25                 	db	37
   929  00FF70  64                 	db	100	;'d'
   930  00FF71  20                 	db	32
   931  00FF72  64                 	db	100	;'d'
   932  00FF73  65                 	db	101	;'e'
   933  00FF74  67                 	db	103	;'g'
   934  00FF75  72                 	db	114	;'r'
   935  00FF76  65                 	db	101	;'e'
   936  00FF77  65                 	db	101	;'e'
   937  00FF78  73                 	db	115	;'s'
   938  00FF79  43                 	db	67	;'C'
   939  00FF7A  20                 	db	32
   940  00FF7B  3D                 	db	61	;'='
   941  00FF7C  20                 	db	32
   942  00FF7D  25                 	db	37
   943  00FF7E  64                 	db	100	;'d'
   944  00FF7F  20                 	db	32
   945  00FF80  64                 	db	100	;'d'
   946  00FF81  65                 	db	101	;'e'
   947  00FF82  67                 	db	103	;'g'
   948  00FF83  72                 	db	114	;'r'
   949  00FF84  65                 	db	101	;'e'
   950  00FF85  65                 	db	101	;'e'
   951  00FF86  73                 	db	115	;'s'
   952  00FF87  46                 	db	70	;'F'
   953  00FF88  0D                 	db	13
   954  00FF89  0A                 	db	10
   955  00FF8A  00                 	db	0
   956  00FF8B                     STR_2:
   957  00FF8B  25                 	db	37
   958  00FF8C  30                 	db	48	;'0'
   959  00FF8D  32                 	db	50	;'2'
   960  00FF8E  78                 	db	120	;'x'
   961  00FF8F  3A                 	db	58	;':'
   962  00FF90  25                 	db	37
   963  00FF91  30                 	db	48	;'0'
   964  00FF92  32                 	db	50	;'2'
   965  00FF93  78                 	db	120	;'x'
   966  00FF94  3A                 	db	58	;':'
   967  00FF95  25                 	db	37
   968  00FF96  30                 	db	48	;'0'
   969  00FF97  32                 	db	50	;'2'
   970  00FF98  78                 	db	120	;'x'
   971  00FF99  20                 	db	32
   972  00FF9A  25                 	db	37
   973  00FF9B  30                 	db	48	;'0'
   974  00FF9C  32                 	db	50	;'2'
   975  00FF9D  78                 	db	120	;'x'
   976  00FF9E  2F                 	db	47
   977  00FF9F  25                 	db	37
   978  00FFA0  30                 	db	48	;'0'
   979  00FFA1  32                 	db	50	;'2'
   980  00FFA2  78                 	db	120	;'x'
   981  00FFA3  2F                 	db	47
   982  00FFA4  25                 	db	37
   983  00FFA5  30                 	db	48	;'0'
   984  00FFA6  32                 	db	50	;'2'
   985  00FFA7  78                 	db	120	;'x'
   986  00FFA8  00                 	db	0
   987  00FFA9                     STR_6:
   988  00FFA9  4B                 	db	75	;'K'
   989  00FFAA  65                 	db	101	;'e'
   990  00FFAB  79                 	db	121	;'y'
   991  00FFAC  20                 	db	32
   992  00FFAD  4C                 	db	76	;'L'
   993  00FFAE  6F                 	db	111	;'o'
   994  00FFAF  63                 	db	99	;'c'
   995  00FFB0  61                 	db	97	;'a'
   996  00FFB1  74                 	db	116	;'t'
   997  00FFB2  69                 	db	105	;'i'
   998  00FFB3  6F                 	db	111	;'o'
   999  00FFB4  6E                 	db	110	;'n'
  1000  00FFB5  20                 	db	32
  1001  00FFB6  3D                 	db	61	;'='
  1002  00FFB7  20                 	db	32
  1003  00FFB8  25                 	db	37
  1004  00FFB9  64                 	db	100	;'d'
  1005  00FFBA  20                 	db	32
  1006  00FFBB  0D                 	db	13
  1007  00FFBC  0A                 	db	10
  1008  00FFBD  0A                 	db	10
  1009  00FFBE  00                 	db	0
  1010  00FFBF                     STR_5:
  1011  00FFBF  4E                 	db	78	;'N'
  1012  00FFC0  45                 	db	69	;'E'
  1013  00FFC1  43                 	db	67	;'C'
  1014  00FFC2  5F                 	db	95	;'_'
  1015  00FFC3  42                 	db	66	;'B'
  1016  00FFC4  75                 	db	117	;'u'
  1017  00FFC5  74                 	db	116	;'t'
  1018  00FFC6  74                 	db	116	;'t'
  1019  00FFC7  6F                 	db	111	;'o'
  1020  00FFC8  6E                 	db	110	;'n'
  1021  00FFC9  20                 	db	32
  1022  00FFCA  3D                 	db	61	;'='
  1023  00FFCB  20                 	db	32
  1024  00FFCC  25                 	db	37
  1025  00FFCD  78                 	db	120	;'x'
  1026  00FFCE  20                 	db	32
  1027  00FFCF  0D                 	db	13
  1028  00FFD0  0A                 	db	10
  1029  00FFD1  00                 	db	0
  1030  00FFD2                     STR_4:
  1031  00FFD2  52                 	db	82	;'R'
  1032  00FFD3  50                 	db	80	;'P'
  1033  00FFD4  4D                 	db	77	;'M'
  1034  00FFD5  20                 	db	32
  1035  00FFD6  3D                 	db	61	;'='
  1036  00FFD7  20                 	db	32
  1037  00FFD8  25                 	db	37
  1038  00FFD9  64                 	db	100	;'d'
  1039  00FFDA  20                 	db	32
  1040  00FFDB  64                 	db	100	;'d'
  1041  00FFDC  63                 	db	99	;'c'
  1042  00FFDD  20                 	db	32
  1043  00FFDE  3D                 	db	61	;'='
  1044  00FFDF  20                 	db	32
  1045  00FFE0  25                 	db	37
  1046  00FFE1  64                 	db	100	;'d'
  1047  00FFE2  0D                 	db	13
  1048  00FFE3  0A                 	db	10
  1049  00FFE4  00                 	db	0
  1050  00FFE5                     STR_7:
  1051  00FFE5  30                 	db	48	;'0'
  1052  00FFE6  31                 	db	49	;'1'
  1053  00FFE7  32                 	db	50	;'2'
  1054  00FFE8  33                 	db	51	;'3'
  1055  00FFE9  34                 	db	52	;'4'
  1056  00FFEA  35                 	db	53	;'5'
  1057  00FFEB  36                 	db	54	;'6'
  1058  00FFEC  37                 	db	55	;'7'
  1059  00FFED  38                 	db	56	;'8'
  1060  00FFEE  39                 	db	57	;'9'
  1061  00FFEF  61                 	db	97	;'a'
  1062  00FFF0  62                 	db	98	;'b'
  1063  00FFF1  63                 	db	99	;'c'
  1064  00FFF2  64                 	db	100	;'d'
  1065  00FFF3  65                 	db	101	;'e'
  1066  00FFF4  66                 	db	102	;'f'
  1067  00FFF5  00                 	db	0
  1068  00FFF6                     STR_1:
  1069  00FFF6  4C                 	db	76	;'L'
  1070  00FFF7  41                 	db	65	;'A'
  1071  00FFF8  42                 	db	66	;'B'
  1072  00FFF9  20                 	db	32
  1073  00FFFA  31                 	db	49	;'1'
  1074  00FFFB  30                 	db	48	;'0'
  1075  00FFFC  20                 	db	32
  1076  00FFFD  00                 	db	0
  1077                           
  1078                           ; #config settings
  1079  00FFFE  00                 	db	0	; dummy byte at the end
  1080  0000                     
  1081                           	psect	cinit
  1082  00172C                     __pcinit:
  1083                           	opt stack 0
  1084  00172C                     start_initialization:
  1085                           	opt stack 0
  1086  00172C                     __initialization:
  1087                           	opt stack 0
  1088                           
  1089                           ; Clear objects allocated to BANK1 (31 bytes)
  1090  00172C  EE01  F07E         	lfsr	0,__pbssBANK1
  1091  001730  0E1F               	movlw	31
  1092  001732                     clear_0:
  1093  001732  6AEE               	clrf	postinc0,c
  1094  001734  06E8               	decf	wreg,f,c
  1095  001736  E1FD               	bnz	clear_0
  1096                           
  1097                           ; Clear objects allocated to COMRAM (40 bytes)
  1098  001738  EE00  F045         	lfsr	0,__pbssCOMRAM
  1099  00173C  0E28               	movlw	40
  1100  00173E                     clear_1:
  1101  00173E  6AEE               	clrf	postinc0,c
  1102  001740  06E8               	decf	wreg,f,c
  1103  001742  E1FD               	bnz	clear_1
  1104                           
  1105                           ; Initialize objects allocated to BANK1 (126 bytes)
  1106                           ; load TBLPTR registers with __pidataBANK1
  1107  001744  0E32               	movlw	low __pidataBANK1
  1108  001746  6EF6               	movwf	tblptrl,c
  1109  001748  0E16               	movlw	high __pidataBANK1
  1110  00174A  6EF7               	movwf	tblptrh,c
  1111  00174C  0E00               	movlw	low (__pidataBANK1 shr (0+16))
  1112  00174E  6EF8               	movwf	tblptru,c
  1113  001750  EE01  F000         	lfsr	0,__pdataBANK1
  1114  001754  EE10 F07E          	lfsr	1,126
  1115  001758                     copy_data0:
  1116  001758  0009               	tblrd		*+
  1117  00175A  CFF5 FFEE          	movff	tablat,postinc0
  1118  00175E  50E5               	movf	postdec1,w,c
  1119  001760  50E1               	movf	fsr1l,w,c
  1120  001762  E1FA               	bnz	copy_data0
  1121                           
  1122                           ; Initialize objects allocated to BANK0 (115 bytes)
  1123                           ; load TBLPTR registers with __pidataBANK0
  1124  001764  0EA6               	movlw	low __pidataBANK0
  1125  001766  6EF6               	movwf	tblptrl,c
  1126  001768  0E17               	movlw	high __pidataBANK0
  1127  00176A  6EF7               	movwf	tblptrh,c
  1128  00176C  0E00               	movlw	low (__pidataBANK0 shr (0+16))
  1129  00176E  6EF8               	movwf	tblptru,c
  1130  001770  EE00  F080         	lfsr	0,__pdataBANK0
  1131  001774  EE10 F073          	lfsr	1,115
  1132  001778                     copy_data1:
  1133  001778  0009               	tblrd		*+
  1134  00177A  CFF5 FFEE          	movff	tablat,postinc0
  1135  00177E  50E5               	movf	postdec1,w,c
  1136  001780  50E1               	movf	fsr1l,w,c
  1137  001782  E1FA               	bnz	copy_data1
  1138                           
  1139                           ; Initialize objects allocated to COMRAM (2 bytes)
  1140                           ; load TBLPTR registers with __pidataCOMRAM
  1141  001784  0E94               	movlw	low __pidataCOMRAM
  1142  001786  6EF6               	movwf	tblptrl,c
  1143  001788  0E20               	movlw	high __pidataCOMRAM
  1144  00178A  6EF7               	movwf	tblptrh,c
  1145  00178C  0E00               	movlw	low (__pidataCOMRAM shr (0+16))
  1146  00178E  6EF8               	movwf	tblptru,c
  1147  001790  0009               	tblrd		*+	;fetch initializer
  1148  001792  CFF5 F06D          	movff	tablat,__pdataCOMRAM
  1149  001796  0009               	tblrd		*+	;fetch initializer
  1150  001798  CFF5 F06E          	movff	tablat,__pdataCOMRAM+1
  1151  00179C                     end_of_initialization:
  1152                           	opt stack 0
  1153  00179C                     __end_of__initialization:
  1154                           	opt stack 0
  1155  00179C  0E00               	movlw	low (__Lmediumconst shr (0+16))
  1156  00179E  6EF8               	movwf	tblptru,c
  1157  0017A0  0100               	movlb	0
  1158  0017A2  EFBB  F001         	goto	_main	;jump to C main() function
  1159                           tblptru	equ	0xFF8
  1160                           tblptrh	equ	0xFF7
  1161                           tblptrl	equ	0xFF6
  1162                           tablat	equ	0xFF5
  1163                           postinc0	equ	0xFEE
  1164                           wreg	equ	0xFE8
  1165                           postdec1	equ	0xFE5
  1166                           fsr1l	equ	0xFE1
  1167                           
  1168                           	psect	bssCOMRAM
  1169  000045                     __pbssCOMRAM:
  1170                           	opt stack 0
  1171  000045                     _Nec_code:
  1172                           	opt stack 0
  1173  000045                     	ds	4
  1174  000049                     _Nec_OK:
  1175                           	opt stack 0
  1176  000049                     	ds	2
  1177  00004B                     _Time_Elapsed:
  1178                           	opt stack 0
  1179  00004B                     	ds	2
  1180  00004D                     _nbr:
  1181                           	opt stack 0
  1182  00004D                     	ds	2
  1183  00004F                     _txt:
  1184                           	opt stack 0
  1185  00004F                     	ds	2
  1186  000051                     _FAN:
  1187                           	opt stack 0
  1188  000051                     	ds	1
  1189  000052                     _Nec_Button:
  1190                           	opt stack 0
  1191  000052                     	ds	1
  1192  000053                     _Nec_State:
  1193                           	opt stack 0
  1194  000053                     	ds	1
  1195  000054                     __tft_type:
  1196                           	opt stack 0
  1197  000054                     	ds	1
  1198  000055                     _alarm_date:
  1199                           	opt stack 0
  1200  000055                     	ds	1
  1201  000056                     _alarm_hour:
  1202                           	opt stack 0
  1203  000056                     	ds	1
  1204  000057                     _alarm_minute:
  1205                           	opt stack 0
  1206  000057                     	ds	1
  1207  000058                     _alarm_second:
  1208                           	opt stack 0
  1209  000058                     	ds	1
  1210  000059                     _bit_count:
  1211                           	opt stack 0
  1212  000059                     	ds	1
  1213  00005A                     _colstart:
  1214                           	opt stack 0
  1215  00005A                     	ds	1
  1216  00005B                     _day:
  1217                           	opt stack 0
  1218  00005B                     	ds	1
  1219  00005C                     _dow:
  1220                           	opt stack 0
  1221  00005C                     	ds	1
  1222  00005D                     _duty_cycle:
  1223                           	opt stack 0
  1224  00005D                     	ds	1
  1225  00005E                     _hour:
  1226                           	opt stack 0
  1227  00005E                     	ds	1
  1228  00005F                     _minute:
  1229                           	opt stack 0
  1230  00005F                     	ds	1
  1231  000060                     _month:
  1232                           	opt stack 0
  1233  000060                     	ds	1
  1234  000061                     _rowstart:
  1235                           	opt stack 0
  1236  000061                     	ds	1
  1237  000062                     _second:
  1238                           	opt stack 0
  1239  000062                     	ds	1
  1240  000063                     _setup_alarm_hour:
  1241                           	opt stack 0
  1242  000063                     	ds	1
  1243  000064                     _setup_alarm_minute:
  1244                           	opt stack 0
  1245  000064                     	ds	1
  1246  000065                     _setup_alarm_second:
  1247                           	opt stack 0
  1248  000065                     	ds	1
  1249  000066                     _setup_day:
  1250                           	opt stack 0
  1251  000066                     	ds	1
  1252  000067                     _setup_hour:
  1253                           	opt stack 0
  1254  000067                     	ds	1
  1255  000068                     _setup_minute:
  1256                           	opt stack 0
  1257  000068                     	ds	1
  1258  000069                     _setup_month:
  1259                           	opt stack 0
  1260  000069                     	ds	1
  1261  00006A                     _setup_second:
  1262                           	opt stack 0
  1263  00006A                     	ds	1
  1264  00006B                     _setup_year:
  1265                           	opt stack 0
  1266  00006B                     	ds	1
  1267  00006C                     _year:
  1268                           	opt stack 0
  1269  00006C                     	ds	1
  1270                           tblptru	equ	0xFF8
  1271                           tblptrh	equ	0xFF7
  1272                           tblptrl	equ	0xFF6
  1273                           tablat	equ	0xFF5
  1274                           postinc0	equ	0xFEE
  1275                           wreg	equ	0xFE8
  1276                           postdec1	equ	0xFE5
  1277                           fsr1l	equ	0xFE1
  1278                           
  1279                           	psect	dataCOMRAM
  1280  00006D                     __pdataCOMRAM:
  1281                           	opt stack 0
  1282  00006D                     _tempSecond:
  1283                           	opt stack 0
  1284  00006D                     	ds	1
  1285  00006E                     _wrap:
  1286                           	opt stack 0
  1287  00006E                     	ds	1
  1288                           tblptru	equ	0xFF8
  1289                           tblptrh	equ	0xFF7
  1290                           tblptrl	equ	0xFF6
  1291                           tablat	equ	0xFF5
  1292                           postinc0	equ	0xFEE
  1293                           wreg	equ	0xFE8
  1294                           postdec1	equ	0xFE5
  1295                           fsr1l	equ	0xFE1
  1296                           
  1297                           	psect	dataBANK0
  1298  000080                     __pdataBANK0:
  1299                           	opt stack 0
  1300  000080                     _LED1:
  1301                           	opt stack 0
  1302  000080                     	ds	21
  1303  000095                     _LED2:
  1304                           	opt stack 0
  1305  000095                     	ds	21
  1306  0000AA                     _LED3:
  1307                           	opt stack 0
  1308  0000AA                     	ds	21
  1309  0000BF                     _LED4:
  1310                           	opt stack 0
  1311  0000BF                     	ds	21
  1312  0000D4                     _array1:
  1313                           	opt stack 0
  1314  0000D4                     	ds	21
  1315  0000E9                     _Timing_Txt:
  1316                           	opt stack 0
  1317  0000E9                     	ds	10
  1318                           tblptru	equ	0xFF8
  1319                           tblptrh	equ	0xFF7
  1320                           tblptrl	equ	0xFF6
  1321                           tablat	equ	0xFF5
  1322                           postinc0	equ	0xFEE
  1323                           wreg	equ	0xFE8
  1324                           postdec1	equ	0xFE5
  1325                           fsr1l	equ	0xFE1
  1326                           
  1327                           	psect	bssBANK1
  1328  00017E                     __pbssBANK1:
  1329                           	opt stack 0
  1330  00017E                     _buffer:
  1331                           	opt stack 0
  1332  00017E                     	ds	31
  1333                           tblptru	equ	0xFF8
  1334                           tblptrh	equ	0xFF7
  1335                           tblptrl	equ	0xFF6
  1336                           tablat	equ	0xFF5
  1337                           postinc0	equ	0xFEE
  1338                           wreg	equ	0xFE8
  1339                           postdec1	equ	0xFE5
  1340                           fsr1l	equ	0xFE1
  1341                           
  1342                           	psect	dataBANK1
  1343  000100                     __pdataBANK1:
  1344                           	opt stack 0
  1345  000100                     _color:
  1346                           	opt stack 0
  1347  000100                     	ds	42
  1348  00012A                     _txt1:
  1349                           	opt stack 0
  1350  00012A                     	ds	84
  1351                           tblptru	equ	0xFF8
  1352                           tblptrh	equ	0xFF7
  1353                           tblptrl	equ	0xFF6
  1354                           tablat	equ	0xFF5
  1355                           postinc0	equ	0xFEE
  1356                           wreg	equ	0xFE8
  1357                           postdec1	equ	0xFE5
  1358                           fsr1l	equ	0xFE1
  1359                           
  1360                           	psect	cstackBANK0
  1361  0000F3                     __pcstackBANK0:
  1362                           	opt stack 0
  1363  0000F3                     drawtext@x:
  1364                           	opt stack 0
  1365                           
  1366                           ; 1 bytes @ 0x0
  1367  0000F3                     	ds	1
  1368  0000F4                     drawtext@textsize:
  1369                           	opt stack 0
  1370                           
  1371                           ; 2 bytes @ 0x1
  1372  0000F4                     	ds	2
  1373  0000F6                     drawtext@i:
  1374                           	opt stack 0
  1375                           
  1376                           ; 2 bytes @ 0x3
  1377  0000F6                     	ds	2
  1378  0000F8                     drawtext@cursor_y:
  1379                           	opt stack 0
  1380                           
  1381                           ; 1 bytes @ 0x5
  1382  0000F8                     	ds	1
  1383  0000F9                     drawtext@cursor_x:
  1384                           	opt stack 0
  1385                           
  1386                           ; 1 bytes @ 0x6
  1387  0000F9                     	ds	1
  1388  0000FA                     main@tempF:
  1389                           	opt stack 0
  1390                           
  1391                           ; 1 bytes @ 0x7
  1392  0000FA                     	ds	1
  1393  0000FB                     main@rpm:
  1394                           	opt stack 0
  1395                           
  1396                           ; 2 bytes @ 0x8
  1397  0000FB                     	ds	2
  1398  0000FD                     main@tempC:
  1399                           	opt stack 0
  1400                           
  1401                           ; 1 bytes @ 0xA
  1402  0000FD                     	ds	1
  1403  0000FE                     main@i:
  1404                           	opt stack 0
  1405                           
  1406                           ; 1 bytes @ 0xB
  1407  0000FE                     	ds	1
  1408  0000FF                     main@found:
  1409                           	opt stack 0
  1410                           
  1411                           ; 1 bytes @ 0xC
  1412  0000FF                     	ds	1
  1413                           tblptru	equ	0xFF8
  1414                           tblptrh	equ	0xFF7
  1415                           tblptrl	equ	0xFF6
  1416                           tablat	equ	0xFF5
  1417                           postinc0	equ	0xFEE
  1418                           wreg	equ	0xFE8
  1419                           postdec1	equ	0xFE5
  1420                           fsr1l	equ	0xFE1
  1421                           
  1422                           	psect	cstackCOMRAM
  1423  000001                     __pcstackCOMRAM:
  1424                           	opt stack 0
  1425  000001                     ??_INTx_isr:
  1426  000001                     
  1427                           ; 2 bytes @ 0x0
  1428  000001                     	ds	2
  1429  000003                     ??_chkisr:
  1430                           
  1431                           ; 0 bytes @ 0x2
  1432  000003                     	ds	14
  1433  000011                     ??_isdigit:
  1434  000011                     ?_strlen:
  1435                           	opt stack 0
  1436  000011                     ?___wmul:
  1437                           	opt stack 0
  1438  000011                     ?___lwdiv:
  1439                           	opt stack 0
  1440  000011                     ?___ftpack:
  1441                           	opt stack 0
  1442  000011                     ?___fttol:
  1443                           	opt stack 0
  1444  000011                     I2C_Read@ack:
  1445                           	opt stack 0
  1446  000011                     I2C_Write@outByte:
  1447                           	opt stack 0
  1448  000011                     spiwrite@x:
  1449                           	opt stack 0
  1450  000011                     putch@c:
  1451                           	opt stack 0
  1452  000011                     OpenUSART@spbrg:
  1453                           	opt stack 0
  1454  000011                     ___wmul@multiplier:
  1455                           	opt stack 0
  1456  000011                     ___lwdiv@dividend:
  1457                           	opt stack 0
  1458  000011                     strcpy@to:
  1459                           	opt stack 0
  1460  000011                     strlen@s:
  1461                           	opt stack 0
  1462  000011                     ___ftpack@arg:
  1463                           	opt stack 0
  1464  000011                     ___fttol@f1:
  1465                           	opt stack 0
  1466  000011                     I2C_Init@c:
  1467                           	opt stack 0
  1468                           
  1469                           ; 4 bytes @ 0x10
  1470  000011                     	ds	1
  1471  000012                     I2C_Read@n:
  1472                           	opt stack 0
  1473  000012                     I2C_Write@n:
  1474                           	opt stack 0
  1475  000012                     spiwrite@spidata:
  1476                           	opt stack 0
  1477  000012                     _isdigit$2286:
  1478                           	opt stack 0
  1479                           
  1480                           ; 1 bytes @ 0x11
  1481  000012                     	ds	1
  1482  000013                     ??_strlen:
  1483  000013                     I2C_Read@inByte:
  1484                           	opt stack 0
  1485  000013                     I2C_Write_Cmd_Only@Cmd:
  1486                           	opt stack 0
  1487  000013                     I2C_Write_Cmd_Write_Data@Cmd:
  1488                           	opt stack 0
  1489  000013                     DS3231_Setup_Time@Device:
  1490                           	opt stack 0
  1491  000013                     write_command@cmd_:
  1492                           	opt stack 0
  1493  000013                     write_data@data_:
  1494                           	opt stack 0
  1495  000013                     OpenUSART@config:
  1496                           	opt stack 0
  1497  000013                     isdigit@c:
  1498                           	opt stack 0
  1499  000013                     ___wmul@multiplicand:
  1500                           	opt stack 0
  1501  000013                     ___lwdiv@divisor:
  1502                           	opt stack 0
  1503  000013                     strcpy@from:
  1504                           	opt stack 0
  1505                           
  1506                           ; 2 bytes @ 0x12
  1507  000013                     	ds	1
  1508  000014                     ?_DS1621_Read_Temp:
  1509                           	opt stack 0
  1510  000014                     I2C_Write_Cmd_Only@Device:
  1511                           	opt stack 0
  1512  000014                     I2C_Write_Cmd_Write_Data@Data_Out:
  1513                           	opt stack 0
  1514  000014                     DS3231_Read_Time@Address:
  1515                           	opt stack 0
  1516  000014                     DS3231_Setup_Time@Address:
  1517                           	opt stack 0
  1518  000014                     setAddrWindow@y0:
  1519                           	opt stack 0
  1520  000014                     ___ftpack@exp:
  1521                           	opt stack 0
  1522                           
  1523                           ; 1 bytes @ 0x13
  1524  000014                     	ds	1
  1525  000015                     ??___fttol:
  1526  000015                     I2C_Write_Cmd_Write_Data@Device:
  1527                           	opt stack 0
  1528  000015                     DS3231_Read_Time@Device:
  1529                           	opt stack 0
  1530  000015                     setAddrWindow@x1:
  1531                           	opt stack 0
  1532  000015                     ___ftpack@sign:
  1533                           	opt stack 0
  1534  000015                     ___lwdiv@counter:
  1535                           	opt stack 0
  1536  000015                     ___wmul@product:
  1537                           	opt stack 0
  1538  000015                     strcpy@cp:
  1539                           	opt stack 0
  1540  000015                     strlen@cp:
  1541                           	opt stack 0
  1542                           
  1543                           ; 2 bytes @ 0x14
  1544  000015                     	ds	1
  1545  000016                     ??___ftpack:
  1546  000016                     DS1621_Read_Temp@Cmd:
  1547                           	opt stack 0
  1548  000016                     DS1621_Init@Device:
  1549                           	opt stack 0
  1550  000016                     setAddrWindow@y1:
  1551                           	opt stack 0
  1552  000016                     ___lwdiv@quotient:
  1553                           	opt stack 0
  1554                           
  1555                           ; 2 bytes @ 0x15
  1556  000016                     	ds	1
  1557  000017                     ?___awdiv:
  1558                           	opt stack 0
  1559  000017                     DS1621_Read_Temp@Data_Ret:
  1560                           	opt stack 0
  1561  000017                     setAddrWindow@x0:
  1562                           	opt stack 0
  1563  000017                     delay_ms@ms:
  1564                           	opt stack 0
  1565  000017                     ___awdiv@dividend:
  1566                           	opt stack 0
  1567                           
  1568                           ; 2 bytes @ 0x16
  1569  000017                     	ds	1
  1570  000018                     ?___lwmod:
  1571                           	opt stack 0
  1572  000018                     DS1621_Read_Temp@Device:
  1573                           	opt stack 0
  1574  000018                     drawPixel@y:
  1575                           	opt stack 0
  1576  000018                     drawFastVLine@y:
  1577                           	opt stack 0
  1578  000018                     fillRectangle@y:
  1579                           	opt stack 0
  1580  000018                     ___lwmod@dividend:
  1581                           	opt stack 0
  1582                           
  1583                           ; 2 bytes @ 0x17
  1584  000018                     	ds	1
  1585  000019                     ??_delay_ms:
  1586  000019                     ?___lbtoft:
  1587                           	opt stack 0
  1588  000019                     drawFastVLine@h:
  1589                           	opt stack 0
  1590  000019                     fillRectangle@w:
  1591                           	opt stack 0
  1592  000019                     drawPixel@color:
  1593                           	opt stack 0
  1594  000019                     ___awdiv@divisor:
  1595                           	opt stack 0
  1596                           
  1597                           ; 2 bytes @ 0x18
  1598  000019                     	ds	1
  1599  00001A                     fillRectangle@h:
  1600                           	opt stack 0
  1601  00001A                     ___fttol@sign1:
  1602                           	opt stack 0
  1603  00001A                     drawFastVLine@color:
  1604                           	opt stack 0
  1605  00001A                     ___lwmod@divisor:
  1606                           	opt stack 0
  1607                           
  1608                           ; 2 bytes @ 0x19
  1609  00001A                     	ds	1
  1610  00001B                     drawPixel@x:
  1611                           	opt stack 0
  1612  00001B                     ___awdiv@counter:
  1613                           	opt stack 0
  1614  00001B                     delay_ms@count:
  1615                           	opt stack 0
  1616  00001B                     fillRectangle@color:
  1617                           	opt stack 0
  1618  00001B                     ___fttol@lval:
  1619                           	opt stack 0
  1620                           
  1621                           ; 4 bytes @ 0x1A
  1622  00001B                     	ds	1
  1623  00001C                     ??_drawFastVLine:
  1624  00001C                     ___awdiv@sign:
  1625                           	opt stack 0
  1626  00001C                     ___lbtoft@c:
  1627                           	opt stack 0
  1628  00001C                     ___lwmod@counter:
  1629                           	opt stack 0
  1630  00001C                     drawCircle@x0:
  1631                           	opt stack 0
  1632                           
  1633                           ; 2 bytes @ 0x1B
  1634  00001C                     	ds	1
  1635  00001D                     ??_fillRectangle:
  1636  00001D                     ?_printf:
  1637                           	opt stack 0
  1638  00001D                     ?___ftmul:
  1639                           	opt stack 0
  1640  00001D                     printf@f:
  1641                           	opt stack 0
  1642  00001D                     ___awdiv@quotient:
  1643                           	opt stack 0
  1644  00001D                     ___ftmul@f1:
  1645                           	opt stack 0
  1646                           
  1647                           ; 3 bytes @ 0x1C
  1648  00001D                     	ds	1
  1649  00001E                     drawCircle@y0:
  1650                           	opt stack 0
  1651                           
  1652                           ; 2 bytes @ 0x1D
  1653  00001E                     	ds	1
  1654  00001F                     ?_get_RPM:
  1655                           	opt stack 0
  1656  00001F                     ___fttol@exp1:
  1657                           	opt stack 0
  1658  00001F                     Set_DC_RGB@duty_cycle:
  1659                           	opt stack 0
  1660  00001F                     Set_RPM_RGB@rpm:
  1661                           	opt stack 0
  1662                           
  1663                           ; 2 bytes @ 0x1E
  1664  00001F                     	ds	1
  1665  000020                     drawFastVLine@hi:
  1666                           	opt stack 0
  1667  000020                     drawCircle@r:
  1668                           	opt stack 0
  1669  000020                     ___ftmul@f2:
  1670                           	opt stack 0
  1671                           
  1672                           ; 3 bytes @ 0x1F
  1673  000020                     	ds	1
  1674  000021                     ??_Set_RPM_RGB:
  1675  000021                     drawFastVLine@lo:
  1676                           	opt stack 0
  1677  000021                     fillRectangle@hi:
  1678                           	opt stack 0
  1679  000021                     get_RPM@RPS:
  1680                           	opt stack 0
  1681  000021                     Set_DC_RGB@x:
  1682                           	opt stack 0
  1683                           
  1684                           ; 2 bytes @ 0x20
  1685  000021                     	ds	1
  1686  000022                     Set_RPM_RGB@y:
  1687                           	opt stack 0
  1688  000022                     drawFastVLine@x:
  1689                           	opt stack 0
  1690  000022                     fillRectangle@lo:
  1691                           	opt stack 0
  1692  000022                     drawCircle@color:
  1693                           	opt stack 0
  1694                           
  1695                           ; 2 bytes @ 0x21
  1696  000022                     	ds	1
  1697  000023                     ??___ftmul:
  1698  000023                     fillRect@y:
  1699                           	opt stack 0
  1700  000023                     fillRectangle@x:
  1701                           	opt stack 0
  1702  000023                     fillCircleHelper@x0:
  1703                           	opt stack 0
  1704                           
  1705                           ; 2 bytes @ 0x22
  1706  000023                     	ds	1
  1707  000024                     ??_drawCircle:
  1708  000024                     fillRect@w:
  1709                           	opt stack 0
  1710  000024                     fillScreen@color:
  1711                           	opt stack 0
  1712                           
  1713                           ; 2 bytes @ 0x23
  1714  000024                     	ds	1
  1715  000025                     fillRect@h:
  1716                           	opt stack 0
  1717  000025                     fillCircleHelper@y0:
  1718                           	opt stack 0
  1719                           
  1720                           ; 2 bytes @ 0x24
  1721  000025                     	ds	1
  1722  000026                     ___ftmul@exp:
  1723                           	opt stack 0
  1724  000026                     fillRect@color:
  1725                           	opt stack 0
  1726  000026                     drawCircle@ddF_x:
  1727                           	opt stack 0
  1728                           
  1729                           ; 2 bytes @ 0x25
  1730  000026                     	ds	1
  1731  000027                     fillCircleHelper@r:
  1732                           	opt stack 0
  1733  000027                     ___ftmul@f3_as_product:
  1734                           	opt stack 0
  1735                           
  1736                           ; 3 bytes @ 0x26
  1737  000027                     	ds	1
  1738  000028                     ??_fillRect:
  1739  000028                     drawCircle@ddF_y:
  1740                           	opt stack 0
  1741                           
  1742                           ; 2 bytes @ 0x27
  1743  000028                     	ds	1
  1744  000029                     fillCircleHelper@cornername:
  1745                           	opt stack 0
  1746                           
  1747                           ; 2 bytes @ 0x28
  1748  000029                     	ds	1
  1749  00002A                     ___ftmul@cntr:
  1750                           	opt stack 0
  1751  00002A                     drawCircle@f:
  1752                           	opt stack 0
  1753                           
  1754                           ; 2 bytes @ 0x29
  1755  00002A                     	ds	1
  1756  00002B                     ??_printf:
  1757  00002B                     fillRect@x:
  1758                           	opt stack 0
  1759  00002B                     ___ftmul@sign:
  1760                           	opt stack 0
  1761  00002B                     fillCircleHelper@delta:
  1762                           	opt stack 0
  1763                           
  1764                           ; 2 bytes @ 0x2A
  1765  00002B                     	ds	1
  1766  00002C                     ?___ftdiv:
  1767                           	opt stack 0
  1768  00002C                     fillRect@i:
  1769                           	opt stack 0
  1770  00002C                     drawCircle@x:
  1771                           	opt stack 0
  1772  00002C                     ___ftdiv@f1:
  1773                           	opt stack 0
  1774                           
  1775                           ; 3 bytes @ 0x2B
  1776  00002C                     	ds	1
  1777  00002D                     fillCircleHelper@color:
  1778                           	opt stack 0
  1779                           
  1780                           ; 2 bytes @ 0x2C
  1781  00002D                     	ds	1
  1782  00002E                     drawChar@y:
  1783                           	opt stack 0
  1784  00002E                     drawCircle@y:
  1785                           	opt stack 0
  1786                           
  1787                           ; 2 bytes @ 0x2D
  1788  00002E                     	ds	1
  1789  00002F                     ??_fillCircleHelper:
  1790  00002F                     drawChar@c:
  1791                           	opt stack 0
  1792  00002F                     printf@idx:
  1793                           	opt stack 0
  1794  00002F                     ___ftdiv@f2:
  1795                           	opt stack 0
  1796                           
  1797                           ; 3 bytes @ 0x2E
  1798  00002F                     	ds	1
  1799  000030                     drawChar@color:
  1800                           	opt stack 0
  1801  000030                     printf@ap:
  1802                           	opt stack 0
  1803                           
  1804                           ; 2 bytes @ 0x2F
  1805  000030                     	ds	1
  1806  000031                     fillCircleHelper@ddF_x:
  1807                           	opt stack 0
  1808                           
  1809                           ; 2 bytes @ 0x30
  1810  000031                     	ds	1
  1811  000032                     ??___ftdiv:
  1812  000032                     printf@prec:
  1813                           	opt stack 0
  1814  000032                     drawChar@bg:
  1815                           	opt stack 0
  1816                           
  1817                           ; 2 bytes @ 0x31
  1818  000032                     	ds	1
  1819  000033                     fillCircleHelper@ddF_y:
  1820                           	opt stack 0
  1821  000033                     printf@val:
  1822                           	opt stack 0
  1823                           
  1824                           ; 2 bytes @ 0x32
  1825  000033                     	ds	1
  1826  000034                     drawChar@size:
  1827                           	opt stack 0
  1828                           
  1829                           ; 1 bytes @ 0x33
  1830  000034                     	ds	1
  1831  000035                     drawChar@line:
  1832                           	opt stack 0
  1833  000035                     printf@flag:
  1834                           	opt stack 0
  1835  000035                     ___ftdiv@cntr:
  1836                           	opt stack 0
  1837  000035                     fillCircleHelper@f:
  1838                           	opt stack 0
  1839                           
  1840                           ; 2 bytes @ 0x34
  1841  000035                     	ds	1
  1842  000036                     drawChar@x:
  1843                           	opt stack 0
  1844  000036                     printf@width:
  1845                           	opt stack 0
  1846  000036                     ___ftdiv@f3:
  1847                           	opt stack 0
  1848                           
  1849                           ; 3 bytes @ 0x35
  1850  000036                     	ds	1
  1851  000037                     drawChar@j:
  1852                           	opt stack 0
  1853  000037                     fillCircleHelper@x:
  1854                           	opt stack 0
  1855                           
  1856                           ; 2 bytes @ 0x36
  1857  000037                     	ds	1
  1858  000038                     drawChar@i:
  1859                           	opt stack 0
  1860  000038                     printf@c:
  1861                           	opt stack 0
  1862                           
  1863                           ; 1 bytes @ 0x37
  1864  000038                     	ds	1
  1865  000039                     drawtext@y:
  1866                           	opt stack 0
  1867  000039                     ___ftdiv@exp:
  1868                           	opt stack 0
  1869  000039                     fillCircleHelper@y:
  1870                           	opt stack 0
  1871                           
  1872                           ; 2 bytes @ 0x38
  1873  000039                     	ds	1
  1874  00003A                     ___ftdiv@sign:
  1875                           	opt stack 0
  1876  00003A                     drawtext@_text:
  1877                           	opt stack 0
  1878                           
  1879                           ; 2 bytes @ 0x39
  1880  00003A                     	ds	1
  1881  00003B                     ??_do_update_pwm:
  1882  00003B                     fillCircle@x0:
  1883                           	opt stack 0
  1884                           
  1885                           ; 2 bytes @ 0x3A
  1886  00003B                     	ds	1
  1887  00003C                     drawtext@color:
  1888                           	opt stack 0
  1889                           
  1890                           ; 2 bytes @ 0x3B
  1891  00003C                     	ds	1
  1892  00003D                     fillCircle@y0:
  1893                           	opt stack 0
  1894                           
  1895                           ; 2 bytes @ 0x3C
  1896  00003D                     	ds	1
  1897  00003E                     drawtext@bg:
  1898                           	opt stack 0
  1899  00003E                     do_update_pwm@dc_f:
  1900                           	opt stack 0
  1901                           
  1902                           ; 3 bytes @ 0x3D
  1903  00003E                     	ds	1
  1904  00003F                     fillCircle@r:
  1905                           	opt stack 0
  1906                           
  1907                           ; 2 bytes @ 0x3E
  1908  00003F                     	ds	1
  1909  000040                     drawtext@size:
  1910                           	opt stack 0
  1911                           
  1912                           ; 1 bytes @ 0x3F
  1913  000040                     	ds	1
  1914  000041                     ??_drawtext:
  1915  000041                     do_update_pwm@duty_cycle:
  1916                           	opt stack 0
  1917  000041                     fillCircle@color:
  1918                           	opt stack 0
  1919                           
  1920                           ; 2 bytes @ 0x40
  1921  000041                     	ds	1
  1922  000042                     do_update_pwm@dc_I:
  1923                           	opt stack 0
  1924                           
  1925                           ; 2 bytes @ 0x41
  1926  000042                     	ds	1
  1927  000043                     
  1928                           ; 0 bytes @ 0x42
  1929  000043                     	ds	1
  1930  000044                     ??_main:
  1931                           
  1932                           ; 0 bytes @ 0x43
  1933  000044                     	ds	1
  1934                           tblptru	equ	0xFF8
  1935                           tblptrh	equ	0xFF7
  1936                           tblptrl	equ	0xFF6
  1937                           tablat	equ	0xFF5
  1938                           postinc0	equ	0xFEE
  1939                           wreg	equ	0xFE8
  1940                           postdec1	equ	0xFE5
  1941                           fsr1l	equ	0xFE1
  1942                           
  1943 ;;
  1944 ;;Main: autosize = 0, tempsize = 1, incstack = 0, save=0
  1945 ;;
  1946 ;; *************** function _main *****************
  1947 ;; Defined at:
  1948 ;;		line 53 in file "../lab12.c"
  1949 ;; Parameters:    Size  Location     Type
  1950 ;;		None
  1951 ;; Auto vars:     Size  Location     Type
  1952 ;;  i               1   11[BANK0 ] unsigned char 
  1953 ;;  found           1   12[BANK0 ] unsigned char 
  1954 ;;  rpm             2    8[BANK0 ] int 
  1955 ;;  tempC           1   10[BANK0 ] char 
  1956 ;;  tempF           1    7[BANK0 ] char 
  1957 ;; Return value:  Size  Location     Type
  1958 ;;		None               void
  1959 ;; Registers used:
  1960 ;;		wreg, fsr2l, fsr2h, status,2, status,0, tblptrl, tblptrh, tblptru, prodl, prodh, cstack
  1961 ;; Tracked objects:
  1962 ;;		On entry : 0/0
  1963 ;;		On exit  : 0/0
  1964 ;;		Unchanged: 0/0
  1965 ;; Data sizes:     COMRAM   BANK0   BANK1   BANK2   BANK3   BANK4   BANK5   BANK6   BANK7   BANK8   BANK9  BANK10  BANK1
      +1  BANK12  BANK13  BANK14  BANK15
  1966 ;;      Params:         0       0       0       0       0       0       0       0       0       0       0       0       
      +0       0       0       0       0
  1967 ;;      Locals:         0       6       0       0       0       0       0       0       0       0       0       0       
      +0       0       0       0       0
  1968 ;;      Temps:          1       0       0       0       0       0       0       0       0       0       0       0       
      +0       0       0       0       0
  1969 ;;      Totals:         1       6       0       0       0       0       0       0       0       0       0       0       
      +0       0       0       0       0
  1970 ;;Total ram usage:        7 bytes
  1971 ;; Hardware stack levels required when called:   11
  1972 ;; This function calls:
  1973 ;;		_Activate_Buzzer
  1974 ;;		_DS1621_Init
  1975 ;;		_DS1621_Read_Temp
  1976 ;;		_DS3231_Read_Time
  1977 ;;		_DS3231_Setup_Time
  1978 ;;		_Deactivate_Buzzer
  1979 ;;		_Decrease_Speed
  1980 ;;		_Enable_INT_Interrupt
  1981 ;;		_I2C_Init
  1982 ;;		_Increase_Speed
  1983 ;;		_Init_Interrupt
  1984 ;;		_Init_UART
  1985 ;;		_Initialize_LCD_Screen
  1986 ;;		_Set_DC_RGB
  1987 ;;		_Set_RPM_RGB
  1988 ;;		_Toggle_Fan
  1989 ;;		_Wait_One_Sec
  1990 ;;		___awdiv
  1991 ;;		___wmul
  1992 ;;		_do_update_pwm
  1993 ;;		_drawCircle
  1994 ;;		_drawtext
  1995 ;;		_fillCircle
  1996 ;;		_get_RPM
  1997 ;;		_printf
  1998 ;; This function is called by:
  1999 ;;		Startup code after reset
  2000 ;; This function uses a non-reentrant model
  2001 ;;
  2002                           
  2003                           	psect	text0
  2004  000376                     __ptext0:
  2005                           	opt stack 0
  2006  000376                     _main:
  2007                           	opt stack 20
  2008                           
  2009                           ;lab12.c: 55: Init_UART();
  2010                           
  2011                           ;incstack = 0
  2012  000376  ECB3  F00F         	call	_Init_UART	;wreg free
  2013                           
  2014                           ;lab12.c: 56: OSCCON = 0x70;
  2015  00037A  0E70               	movlw	112
  2016  00037C  6ED3               	movwf	4051,c	;volatile
  2017                           
  2018                           ;lab12.c: 57: nRBPU = 0;
  2019  00037E  9EF1               	bcf	intcon2,7,c	;volatile
  2020                           
  2021                           ;lab12.c: 59: PORTA = 0x00;
  2022  000380  0E00               	movlw	0
  2023  000382  6E80               	movwf	3968,c	;volatile
  2024                           
  2025                           ;lab12.c: 60: PORTB = 0x00;
  2026  000384  0E00               	movlw	0
  2027  000386  6E81               	movwf	3969,c	;volatile
  2028                           
  2029                           ;lab12.c: 61: PORTC = 0x00;
  2030  000388  0E00               	movlw	0
  2031  00038A  6E82               	movwf	3970,c	;volatile
  2032                           
  2033                           ;lab12.c: 62: PORTD = 0x00;
  2034  00038C  0E00               	movlw	0
  2035  00038E  6E83               	movwf	3971,c	;volatile
  2036                           
  2037                           ;lab12.c: 63: PORTE = 0x00;
  2038  000390  0E00               	movlw	0
  2039  000392  6E84               	movwf	3972,c	;volatile
  2040                           
  2041                           ;lab12.c: 65: TRISA = 0x00;
  2042  000394  0E00               	movlw	0
  2043  000396  6E92               	movwf	3986,c	;volatile
  2044                           
  2045                           ;lab12.c: 66: TRISB = 0x01;
  2046  000398  0E01               	movlw	1
  2047  00039A  6E93               	movwf	3987,c	;volatile
  2048                           
  2049                           ;lab12.c: 67: TRISC = 0x01;
  2050  00039C  0E01               	movlw	1
  2051  00039E  6E94               	movwf	3988,c	;volatile
  2052                           
  2053                           ;lab12.c: 68: TRISD = 0x00;
  2054  0003A0  0E00               	movlw	0
  2055  0003A2  6E95               	movwf	3989,c	;volatile
  2056                           
  2057                           ;lab12.c: 69: TRISE = 0x00;
  2058  0003A4  0E00               	movlw	0
  2059  0003A6  6E96               	movwf	3990,c	;volatile
  2060                           
  2061                           ;lab12.c: 71: ADCON1 = 0x0F;
  2062  0003A8  0E0F               	movlw	15
  2063  0003AA  6EC1               	movwf	4033,c	;volatile
  2064                           
  2065                           ;lab12.c: 73: Initialize_LCD_Screen();
  2066  0003AC  EC32  F00A         	call	_Initialize_LCD_Screen	;wreg free
  2067                           
  2068                           ;lab12.c: 74: T3CON = 0x03;
  2069  0003B0  0E03               	movlw	3
  2070  0003B2  6EB1               	movwf	4017,c	;volatile
  2071                           
  2072                           ;lab12.c: 75: I2C_Init(100000);
  2073  0003B4  0EA0               	movlw	160
  2074  0003B6  6E11               	movwf	I2C_Init@c,c
  2075  0003B8  0E86               	movlw	134
  2076  0003BA  6E12               	movwf	I2C_Init@c+1,c
  2077  0003BC  0E01               	movlw	1
  2078  0003BE  6E13               	movwf	I2C_Init@c+2,c
  2079  0003C0  0E00               	movlw	0
  2080  0003C2  6E14               	movwf	I2C_Init@c+3,c
  2081  0003C4  EC23  F010         	call	_I2C_Init	;wreg free
  2082                           
  2083                           ;lab12.c: 76: DS1621_Init();
  2084  0003C8  EC51  F00F         	call	_DS1621_Init	;wreg free
  2085                           
  2086                           ;lab12.c: 77: Init_Interrupt();
  2087  0003CC  EC88  F00F         	call	_Init_Interrupt	;wreg free
  2088                           
  2089                           ;lab12.c: 79: Nec_code = 0x0;
  2090  0003D0  0E00               	movlw	0
  2091  0003D2  6E45               	movwf	_Nec_code,c
  2092  0003D4  0E00               	movlw	0
  2093  0003D6  6E46               	movwf	_Nec_code+1,c
  2094  0003D8  0E00               	movlw	0
  2095  0003DA  6E47               	movwf	_Nec_code+2,c
  2096  0003DC  0E00               	movlw	0
  2097  0003DE  6E48               	movwf	_Nec_code+3,c
  2098                           
  2099                           ;lab12.c: 80: PORTDbits.RD1 = 1;
  2100  0003E0  8283               	bsf	3971,1,c	;volatile
  2101                           
  2102                           ;lab12.c: 81: PORTDbits.RD2 = 1;
  2103  0003E2  8483               	bsf	3971,2,c	;volatile
  2104                           
  2105                           ;lab12.c: 84: duty_cycle = 50;
  2106  0003E4  0E32               	movlw	50
  2107  0003E6  6E5D               	movwf	_duty_cycle,c
  2108                           
  2109                           ;lab12.c: 85: do_update_pwm(duty_cycle);
  2110  0003E8  505D               	movf	_duty_cycle,w,c
  2111  0003EA  ECD7  F009         	call	_do_update_pwm
  2112  0003EE  D000               	goto	l6594
  2113  0003F0                     l6594:
  2114                           
  2115                           ;lab12.c: 87: {
  2116                           ;lab12.c: 88: DS3231_Read_Time();
  2117  0003F0  EC78  F00C         	call	_DS3231_Read_Time	;wreg free
  2118                           
  2119                           ;lab12.c: 89: if(tempSecond != second)
  2120  0003F4  5062               	movf	_second,w,c
  2121  0003F6  186D               	xorwf	_tempSecond,w,c
  2122  0003F8  B4D8               	btfsc	status,2,c
  2123  0003FA  D06A               	goto	l6612
  2124                           
  2125                           ;lab12.c: 90: {
  2126                           ;lab12.c: 91: tempSecond = second;
  2127  0003FC  C062  F06D         	movff	_second,_tempSecond
  2128                           
  2129                           ;lab12.c: 92: signed char tempC = DS1621_Read_Temp();
  2130  000400  EC82  F00E         	call	_DS1621_Read_Temp	;wreg free
  2131  000404  5014               	movf	?_DS1621_Read_Temp,w,c
  2132  000406  0100               	movlb	0	; () banked
  2133  000408  6FFD               	movwf	main@tempC& (0+255),b
  2134                           
  2135                           ; BSR set to: 0
  2136                           ;lab12.c: 93: signed char tempF = (tempC * 9 / 5) + 32;
  2137  00040A  0100               	movlb	0	; () banked
  2138  00040C  51FD               	movf	main@tempC& (0+255),w,b
  2139  00040E  6E11               	movwf	___wmul@multiplier,c
  2140  000410  6A12               	clrf	___wmul@multiplier+1,c
  2141  000412  BE11               	btfsc	___wmul@multiplier,7,c
  2142  000414  0612               	decf	___wmul@multiplier+1,f,c
  2143  000416  0E00               	movlw	0
  2144  000418  6E14               	movwf	___wmul@multiplicand+1,c
  2145  00041A  0E09               	movlw	9
  2146  00041C  6E13               	movwf	___wmul@multiplicand,c
  2147  00041E  ECE6  F00E         	call	___wmul	;wreg free
  2148  000422  C011  F017         	movff	?___wmul,___awdiv@dividend
  2149  000426  C012  F018         	movff	?___wmul+1,___awdiv@dividend+1
  2150  00042A  0E00               	movlw	0
  2151  00042C  6E1A               	movwf	___awdiv@divisor+1,c
  2152  00042E  0E05               	movlw	5
  2153  000430  6E19               	movwf	___awdiv@divisor,c
  2154  000432  EC8A  F00A         	call	___awdiv	;wreg free
  2155  000436  5017               	movf	?___awdiv,w,c
  2156  000438  0F20               	addlw	32
  2157  00043A  0100               	movlb	0	; () banked
  2158  00043C  6FFA               	movwf	main@tempF& (0+255),b
  2159                           
  2160                           ; BSR set to: 0
  2161                           ;lab12.c: 94: int rpm = get_RPM();
  2162  00043E  EC06  F00E         	call	_get_RPM	;wreg free
  2163  000442  C01F  F0FB         	movff	?_get_RPM,main@rpm
  2164  000446  C020  F0FC         	movff	?_get_RPM+1,main@rpm+1
  2165                           
  2166                           ;lab12.c: 95: Set_DC_RGB(duty_cycle);
  2167  00044A  C05D  F01F         	movff	_duty_cycle,Set_DC_RGB@duty_cycle
  2168  00044E  6A20               	clrf	Set_DC_RGB@duty_cycle+1,c
  2169  000450  ECE6  F00D         	call	_Set_DC_RGB	;wreg free
  2170                           
  2171                           ;lab12.c: 96: Set_RPM_RGB(rpm);
  2172  000454  C0FB  F01F         	movff	main@rpm,Set_RPM_RGB@rpm
  2173  000458  C0FC  F020         	movff	main@rpm+1,Set_RPM_RGB@rpm+1
  2174  00045C  EC77  F00D         	call	_Set_RPM_RGB	;wreg free
  2175                           
  2176                           ;lab12.c: 97: printf ("%02x:%02x:%02x %02x/%02x/%02x",hour,minute,second,month,day,year)
      +                          ;
  2177  000460  0E8B               	movlw	low STR_2
  2178  000462  6E1D               	movwf	printf@f,c
  2179  000464  0EFF               	movlw	high STR_2
  2180  000466  6E1E               	movwf	printf@f+1,c
  2181  000468  C05E  F01F         	movff	_hour,?_printf+2
  2182  00046C  6A20               	clrf	?_printf+3,c
  2183  00046E  C05F  F021         	movff	_minute,?_printf+4
  2184  000472  6A22               	clrf	?_printf+5,c
  2185  000474  C062  F023         	movff	_second,?_printf+6
  2186  000478  6A24               	clrf	?_printf+7,c
  2187  00047A  C060  F025         	movff	_month,?_printf+8
  2188  00047E  6A26               	clrf	?_printf+9,c
  2189  000480  C05B  F027         	movff	_day,?_printf+10
  2190  000484  6A28               	clrf	?_printf+11,c
  2191  000486  C06C  F029         	movff	_year,?_printf+12
  2192  00048A  6A2A               	clrf	?_printf+13,c
  2193  00048C  EC0E  F000         	call	_printf	;wreg free
  2194                           
  2195                           ;lab12.c: 98: printf (" Temperature = %d degreesC = %d degreesF\r\n", tempC, tempF);
  2196  000490  0E60               	movlw	low STR_3
  2197  000492  6E1D               	movwf	printf@f,c
  2198  000494  0EFF               	movlw	high STR_3
  2199  000496  6E1E               	movwf	printf@f+1,c
  2200  000498  0100               	movlb	0	; () banked
  2201  00049A  51FD               	movf	main@tempC& (0+255),w,b
  2202  00049C  6E1F               	movwf	?_printf+2,c
  2203  00049E  6A20               	clrf	?_printf+3,c
  2204  0004A0  BE1F               	btfsc	?_printf+2,7,c
  2205  0004A2  0620               	decf	?_printf+3,f,c
  2206  0004A4  0100               	movlb	0	; () banked
  2207  0004A6  51FA               	movf	main@tempF& (0+255),w,b
  2208  0004A8  6E21               	movwf	?_printf+4,c
  2209  0004AA  6A22               	clrf	?_printf+5,c
  2210  0004AC  BE21               	btfsc	?_printf+4,7,c
  2211  0004AE  0622               	decf	?_printf+5,f,c
  2212  0004B0  EC0E  F000         	call	_printf	;wreg free
  2213                           
  2214                           ;lab12.c: 99: printf ("RPM = %d dc = %d\r\n", rpm, duty_cycle);
  2215  0004B4  0ED2               	movlw	low STR_4
  2216  0004B6  6E1D               	movwf	printf@f,c
  2217  0004B8  0EFF               	movlw	high STR_4
  2218  0004BA  6E1E               	movwf	printf@f+1,c
  2219  0004BC  C0FB  F01F         	movff	main@rpm,?_printf+2
  2220  0004C0  C0FC  F020         	movff	main@rpm+1,?_printf+3
  2221  0004C4  C05D  F021         	movff	_duty_cycle,?_printf+4
  2222  0004C8  6A22               	clrf	?_printf+5,c
  2223  0004CA  EC0E  F000         	call	_printf	;wreg free
  2224  0004CE  D000               	goto	l6612
  2225  0004D0                     l6612:
  2226                           
  2227                           ;lab12.c: 101: }
  2228                           ;lab12.c: 104: if (Nec_OK == 1)
  2229  0004D0  0449               	decf	_Nec_OK,w,c
  2230  0004D2  104A               	iorwf	_Nec_OK+1,w,c
  2231  0004D4  A4D8               	btfss	status,2,c
  2232  0004D6  D78C               	goto	l6594
  2233                           
  2234                           ;lab12.c: 105: {
  2235                           ;lab12.c: 106: Nec_OK = 0;
  2236  0004D8  0E00               	movlw	0
  2237  0004DA  6E4A               	movwf	_Nec_OK+1,c
  2238  0004DC  0E00               	movlw	0
  2239  0004DE  6E49               	movwf	_Nec_OK,c
  2240                           
  2241                           ;lab12.c: 107: Enable_INT_Interrupt();
  2242  0004E0  EC47  F010         	call	_Enable_INT_Interrupt	;wreg free
  2243                           
  2244                           ;lab12.c: 108: printf ("NEC_Button = %x \r\n", Nec_Button);
  2245  0004E4  0EBF               	movlw	low STR_5
  2246  0004E6  6E1D               	movwf	printf@f,c
  2247  0004E8  0EFF               	movlw	high STR_5
  2248  0004EA  6E1E               	movwf	printf@f+1,c
  2249  0004EC  C052  F01F         	movff	_Nec_Button,?_printf+2
  2250  0004F0  6A20               	clrf	?_printf+3,c
  2251  0004F2  EC0E  F000         	call	_printf	;wreg free
  2252                           
  2253                           ;lab12.c: 110: char found = 0xff;
  2254  0004F6  0100               	movlb	0	; () banked
  2255  0004F8  69FF               	setf	main@found& (0+255),b
  2256                           
  2257                           ; BSR set to: 0
  2258                           ;lab12.c: 113: for (char i = 0; i< 21; i++)
  2259  0004FA  0E00               	movlw	0
  2260  0004FC  0100               	movlb	0	; () banked
  2261  0004FE  6FFE               	movwf	main@i& (0+255),b
  2262  000500                     l6624:
  2263                           
  2264                           ; BSR set to: 0
  2265  000500  0E14               	movlw	20
  2266  000502  0100               	movlb	0	; () banked
  2267  000504  65FE               	cpfsgt	main@i& (0+255),b
  2268  000506  D001               	goto	l6628
  2269                           
  2270                           ; BSR set to: 0
  2271  000508  D013               	goto	l6636
  2272  00050A                     l6628:
  2273                           
  2274                           ; BSR set to: 0
  2275                           ;lab12.c: 114: {
  2276                           ;lab12.c: 115: if(Nec_Button == array1[i])
  2277  00050A  0100               	movlb	0	; () banked
  2278  00050C  51FE               	movf	main@i& (0+255),w,b
  2279  00050E  0D01               	mullw	1
  2280  000510  0ED4               	movlw	low _array1
  2281  000512  24F3               	addwf	prodl,w,c
  2282  000514  6ED9               	movwf	fsr2l,c
  2283  000516  0E00               	movlw	high _array1
  2284  000518  20F4               	addwfc	prodh,w,c
  2285  00051A  6EDA               	movwf	fsr2h,c
  2286  00051C  5052               	movf	_Nec_Button,w,c
  2287  00051E  18DE               	xorwf	postinc2,w,c
  2288  000520  A4D8               	btfss	status,2,c
  2289  000522  D003               	goto	l6632
  2290                           
  2291                           ; BSR set to: 0
  2292                           ;lab12.c: 116: {
  2293                           ;lab12.c: 117: found = i;
  2294  000524  C0FE  F0FF         	movff	main@i,main@found
  2295  000528  D000               	goto	l6632
  2296  00052A                     l6632:
  2297                           
  2298                           ; BSR set to: 0
  2299  00052A  0100               	movlb	0	; () banked
  2300  00052C  2BFE               	incf	main@i& (0+255),f,b
  2301  00052E  D7E8               	goto	l6624
  2302  000530                     l6636:
  2303                           
  2304                           ; BSR set to: 0
  2305                           ;lab12.c: 118: }
  2306                           ;lab12.c: 119: }
  2307                           ;lab12.c: 121: if (found != 0xff)
  2308  000530  0100               	movlb	0	; () banked
  2309  000532  29FF               	incf	main@found& (0+255),w,b
  2310  000534  B4D8               	btfsc	status,2,c
  2311  000536  D75C               	goto	l6594
  2312                           
  2313                           ; BSR set to: 0
  2314                           ;lab12.c: 122: {
  2315                           ;lab12.c: 123: printf ("Key Location = %d \r\n\n", found);
  2316  000538  0EA9               	movlw	low STR_6
  2317  00053A  6E1D               	movwf	printf@f,c
  2318  00053C  0EFF               	movlw	high STR_6
  2319  00053E  6E1E               	movwf	printf@f+1,c
  2320  000540  C0FF  F01F         	movff	main@found,?_printf+2
  2321  000544  6A20               	clrf	?_printf+3,c
  2322  000546  EC0E  F000         	call	_printf	;wreg free
  2323                           
  2324                           ;lab12.c: 124: fillCircle(60, 80, 20, color[found]);
  2325  00054A  0E00               	movlw	0
  2326  00054C  6E3C               	movwf	fillCircle@x0+1,c
  2327  00054E  0E3C               	movlw	60
  2328  000550  6E3B               	movwf	fillCircle@x0,c
  2329  000552  0E00               	movlw	0
  2330  000554  6E3E               	movwf	fillCircle@y0+1,c
  2331  000556  0E50               	movlw	80
  2332  000558  6E3D               	movwf	fillCircle@y0,c
  2333  00055A  0E00               	movlw	0
  2334  00055C  6E40               	movwf	fillCircle@r+1,c
  2335  00055E  0E14               	movlw	20
  2336  000560  6E3F               	movwf	fillCircle@r,c
  2337  000562  0100               	movlb	0	; () banked
  2338  000564  51FF               	movf	main@found& (0+255),w,b
  2339  000566  0D02               	mullw	2
  2340  000568  0E00               	movlw	low _color
  2341  00056A  24F3               	addwf	prodl,w,c
  2342  00056C  6ED9               	movwf	fsr2l,c
  2343  00056E  0E01               	movlw	high _color
  2344  000570  20F4               	addwfc	prodh,w,c
  2345  000572  6EDA               	movwf	fsr2h,c
  2346  000574  CFDE F041          	movff	postinc2,fillCircle@color
  2347  000578  CFDD F042          	movff	postdec2,fillCircle@color+1
  2348  00057C  ECD8  F00C         	call	_fillCircle	;wreg free
  2349                           
  2350                           ;lab12.c: 125: drawCircle(60, 80, 20, 0xFFFF);
  2351  000580  0E00               	movlw	0
  2352  000582  6E1D               	movwf	drawCircle@x0+1,c
  2353  000584  0E3C               	movlw	60
  2354  000586  6E1C               	movwf	drawCircle@x0,c
  2355  000588  0E00               	movlw	0
  2356  00058A  6E1F               	movwf	drawCircle@y0+1,c
  2357  00058C  0E50               	movlw	80
  2358  00058E  6E1E               	movwf	drawCircle@y0,c
  2359  000590  0E00               	movlw	0
  2360  000592  6E21               	movwf	drawCircle@r+1,c
  2361  000594  0E14               	movlw	20
  2362  000596  6E20               	movwf	drawCircle@r,c
  2363  000598  0EFF               	movlw	255
  2364  00059A  6E23               	movwf	drawCircle@color+1,c
  2365  00059C  6822               	setf	drawCircle@color,c
  2366  00059E  EC45  F003         	call	_drawCircle	;wreg free
  2367                           
  2368                           ;lab12.c: 126: drawtext(52, 77, txt1[found], 0xFFFF, 0x0000,1);
  2369  0005A2  0E4D               	movlw	77
  2370  0005A4  6E39               	movwf	drawtext@y,c
  2371  0005A6  0100               	movlb	0	; () banked
  2372  0005A8  51FF               	movf	main@found& (0+255),w,b
  2373  0005AA  0D04               	mullw	4
  2374  0005AC  0E2A               	movlw	low _txt1
  2375  0005AE  24F3               	addwf	prodl,w,c
  2376  0005B0  6E3A               	movwf	drawtext@_text,c
  2377  0005B2  0E01               	movlw	high _txt1
  2378  0005B4  20F4               	addwfc	prodh,w,c
  2379  0005B6  6E3B               	movwf	drawtext@_text+1,c
  2380  0005B8  0EFF               	movlw	255
  2381  0005BA  6E3D               	movwf	drawtext@color+1,c
  2382  0005BC  683C               	setf	drawtext@color,c
  2383  0005BE  0E00               	movlw	0
  2384  0005C0  6E3F               	movwf	drawtext@bg+1,c
  2385  0005C2  0E00               	movlw	0
  2386  0005C4  6E3E               	movwf	drawtext@bg,c
  2387  0005C6  0E01               	movlw	1
  2388  0005C8  6E40               	movwf	drawtext@size,c
  2389  0005CA  0E34               	movlw	52
  2390  0005CC  ECA8  F006         	call	_drawtext
  2391                           
  2392                           ;lab12.c: 129: PORTA = LED1[found] | LED2[found];
  2393  0005D0  0100               	movlb	0	; () banked
  2394  0005D2  51FF               	movf	main@found& (0+255),w,b
  2395  0005D4  0D01               	mullw	1
  2396  0005D6  0E95               	movlw	low _LED2
  2397  0005D8  24F3               	addwf	prodl,w,c
  2398  0005DA  6ED9               	movwf	fsr2l,c
  2399  0005DC  0E00               	movlw	high _LED2
  2400  0005DE  20F4               	addwfc	prodh,w,c
  2401  0005E0  6EDA               	movwf	fsr2h,c
  2402  0005E2  50DF               	movf	indf2,w,c
  2403  0005E4  6E44               	movwf	??_main& (0+255),c
  2404  0005E6  0100               	movlb	0	; () banked
  2405  0005E8  51FF               	movf	main@found& (0+255),w,b
  2406  0005EA  0D01               	mullw	1
  2407  0005EC  0E80               	movlw	low _LED1
  2408  0005EE  24F3               	addwf	prodl,w,c
  2409  0005F0  6ED9               	movwf	fsr2l,c
  2410  0005F2  0E00               	movlw	high _LED1
  2411  0005F4  20F4               	addwfc	prodh,w,c
  2412  0005F6  6EDA               	movwf	fsr2h,c
  2413  0005F8  50DF               	movf	indf2,w,c
  2414  0005FA  1044               	iorwf	??_main,w,c
  2415  0005FC  6E80               	movwf	3968,c	;volatile
  2416                           
  2417                           ; BSR set to: 0
  2418                           ;lab12.c: 130: PORTB = LED3[found];
  2419  0005FE  0100               	movlb	0	; () banked
  2420  000600  51FF               	movf	main@found& (0+255),w,b
  2421  000602  0D01               	mullw	1
  2422  000604  0EAA               	movlw	low _LED3
  2423  000606  24F3               	addwf	prodl,w,c
  2424  000608  6ED9               	movwf	fsr2l,c
  2425  00060A  0E00               	movlw	high _LED3
  2426  00060C  20F4               	addwfc	prodh,w,c
  2427  00060E  6EDA               	movwf	fsr2h,c
  2428  000610  50DF               	movf	indf2,w,c
  2429  000612  6E81               	movwf	3969,c	;volatile
  2430                           
  2431                           ; BSR set to: 0
  2432                           ;lab12.c: 131: PORTCbits.RC2 = LED4[found];
  2433  000614  0100               	movlb	0	; () banked
  2434  000616  51FF               	movf	main@found& (0+255),w,b
  2435  000618  0D01               	mullw	1
  2436  00061A  0EBF               	movlw	low _LED4
  2437  00061C  24F3               	addwf	prodl,w,c
  2438  00061E  6ED9               	movwf	fsr2l,c
  2439  000620  0E00               	movlw	high _LED4
  2440  000622  20F4               	addwfc	prodh,w,c
  2441  000624  6EDA               	movwf	fsr2h,c
  2442  000626  50DF               	movf	indf2,w,c
  2443  000628  6E44               	movwf	??_main& (0+255),c
  2444  00062A  4644               	rlncf	??_main,f,c
  2445  00062C  4644               	rlncf	??_main,f,c
  2446  00062E  5082               	movf	3970,w,c	;volatile
  2447  000630  1844               	xorwf	??_main,w,c
  2448  000632  0BFB               	andlw	-5
  2449  000634  1844               	xorwf	??_main,w,c
  2450  000636  6E82               	movwf	3970,c	;volatile
  2451                           
  2452                           ; BSR set to: 0
  2453                           ;lab12.c: 134: PORTDbits.RD7 = 1;
  2454  000638  8E83               	bsf	3971,7,c	;volatile
  2455                           
  2456                           ; BSR set to: 0
  2457                           ;lab12.c: 135: Activate_Buzzer();
  2458  00063A  ECCF  F00F         	call	_Activate_Buzzer	;wreg free
  2459                           
  2460                           ;lab12.c: 136: Wait_One_Sec();
  2461  00063E  EC28  F010         	call	_Wait_One_Sec	;wreg free
  2462                           
  2463                           ;lab12.c: 137: Deactivate_Buzzer();
  2464  000642  EC37  F010         	call	_Deactivate_Buzzer	;wreg free
  2465                           
  2466                           ;lab12.c: 138: do_update_pwm(duty_cycle);
  2467  000646  505D               	movf	_duty_cycle,w,c
  2468  000648  ECD7  F009         	call	_do_update_pwm
  2469                           
  2470                           ;lab12.c: 139: PORTDbits.RD7 = 0;
  2471  00064C  9E83               	bcf	3971,7,c	;volatile
  2472                           
  2473                           ;lab12.c: 141: if (Nec_Button == 0xa2)
  2474  00064E  0EA2               	movlw	162
  2475  000650  1852               	xorwf	_Nec_Button,w,c
  2476  000652  A4D8               	btfss	status,2,c
  2477  000654  D003               	goto	l6668
  2478                           
  2479                           ;lab12.c: 142: {
  2480                           ;lab12.c: 143: DS3231_Setup_Time();
  2481  000656  EC45  F00C         	call	_DS3231_Setup_Time	;wreg free
  2482  00065A  D000               	goto	l6668
  2483  00065C                     l6668:
  2484                           
  2485                           ;lab12.c: 144: }
  2486                           ;lab12.c: 147: if (Nec_Button == 0xc2)
  2487  00065C  0EC2               	movlw	194
  2488  00065E  1852               	xorwf	_Nec_Button,w,c
  2489  000660  A4D8               	btfss	status,2,c
  2490  000662  D003               	goto	l6672
  2491                           
  2492                           ;lab12.c: 148: {
  2493                           ;lab12.c: 149: Toggle_Fan();
  2494  000664  EC9F  F00F         	call	_Toggle_Fan	;wreg free
  2495  000668  D000               	goto	l6672
  2496  00066A                     l6672:
  2497                           
  2498                           ;lab12.c: 150: }
  2499                           ;lab12.c: 152: if (Nec_Button == 0xe0)
  2500  00066A  0EE0               	movlw	224
  2501  00066C  1852               	xorwf	_Nec_Button,w,c
  2502  00066E  A4D8               	btfss	status,2,c
  2503  000670  D003               	goto	l6676
  2504                           
  2505                           ;lab12.c: 153: {
  2506                           ;lab12.c: 154: Decrease_Speed();
  2507  000672  EC30  F00F         	call	_Decrease_Speed	;wreg free
  2508  000676  D000               	goto	l6676
  2509  000678                     l6676:
  2510                           
  2511                           ;lab12.c: 155: }
  2512                           ;lab12.c: 157: if (Nec_Button == 0xa8)
  2513  000678  0EA8               	movlw	168
  2514  00067A  1852               	xorwf	_Nec_Button,w,c
  2515  00067C  A4D8               	btfss	status,2,c
  2516  00067E  D6B8               	goto	l6594
  2517                           
  2518                           ;lab12.c: 158: {
  2519                           ;lab12.c: 159: Increase_Speed();
  2520  000680  EC0D  F00F         	call	_Increase_Speed	;wreg free
  2521  000684  D6B5               	goto	l6594
  2522  000686  EF0C  F000         	goto	start
  2523  00068A                     __end_of_main:
  2524                           	opt stack 0
  2525                           tblptru	equ	0xFF8
  2526                           tblptrh	equ	0xFF7
  2527                           tblptrl	equ	0xFF6
  2528                           tablat	equ	0xFF5
  2529                           prodh	equ	0xFF4
  2530                           prodl	equ	0xFF3
  2531                           intcon2	equ	0xFF1
  2532                           postinc0	equ	0xFEE
  2533                           wreg	equ	0xFE8
  2534                           postdec1	equ	0xFE5
  2535                           fsr1l	equ	0xFE1
  2536                           indf2	equ	0xFDF
  2537                           postinc2	equ	0xFDE
  2538                           postdec2	equ	0xFDD
  2539                           fsr2h	equ	0xFDA
  2540                           fsr2l	equ	0xFD9
  2541                           status	equ	0xFD8
  2542                           
  2543 ;; *************** function _printf *****************
  2544 ;; Defined at:
  2545 ;;		line 464 in file "C:\Program Files (x86)\Microchip\xc8\v1.34\sources\common\doprnt.c"
  2546 ;; Parameters:    Size  Location     Type
  2547 ;;  f               2   28[COMRAM] PTR const unsigned char 
  2548 ;;		 -> STR_6(22), STR_5(19), STR_4(19), STR_3(43), 
  2549 ;;		 -> STR_2(30), 
  2550 ;; Auto vars:     Size  Location     Type
  2551 ;;  idx             1   46[COMRAM] unsigned char 
  2552 ;;  tmpval          4    0        struct .
  2553 ;;  cp              3    0        PTR const unsigned char 
  2554 ;;  width           2   53[COMRAM] int 
  2555 ;;  val             2   50[COMRAM] unsigned int 
  2556 ;;  ap              2   47[COMRAM] PTR void [1]
  2557 ;;		 -> ?_printf(2), 
  2558 ;;  len             2    0        unsigned int 
  2559 ;;  c               1   55[COMRAM] char 
  2560 ;;  flag            1   52[COMRAM] unsigned char 
  2561 ;;  prec            1   49[COMRAM] char 
  2562 ;; Return value:  Size  Location     Type
  2563 ;;                  2   28[COMRAM] int 
  2564 ;; Registers used:
  2565 ;;		wreg, fsr2l, fsr2h, status,2, status,0, tblptrl, tblptrh, tblptru, prodl, prodh, cstack
  2566 ;; Tracked objects:
  2567 ;;		On entry : 0/0
  2568 ;;		On exit  : 0/0
  2569 ;;		Unchanged: 0/0
  2570 ;; Data sizes:     COMRAM   BANK0   BANK1   BANK2   BANK3   BANK4   BANK5   BANK6   BANK7   BANK8   BANK9  BANK10  BANK1
      +1  BANK12  BANK13  BANK14  BANK15
  2571 ;;      Params:        14       0       0       0       0       0       0       0       0       0       0       0       
      +0       0       0       0       0
  2572 ;;      Locals:        10       0       0       0       0       0       0       0       0       0       0       0       
      +0       0       0       0       0
  2573 ;;      Temps:          4       0       0       0       0       0       0       0       0       0       0       0       
      +0       0       0       0       0
  2574 ;;      Totals:        28       0       0       0       0       0       0       0       0       0       0       0       
      +0       0       0       0       0
  2575 ;;Total ram usage:       28 bytes
  2576 ;; Hardware stack levels used:    1
  2577 ;; Hardware stack levels required when called:    4
  2578 ;; This function calls:
  2579 ;;		___lwdiv
  2580 ;;		___lwmod
  2581 ;;		___wmul
  2582 ;;		_isdigit
  2583 ;;		_putch
  2584 ;; This function is called by:
  2585 ;;		_main
  2586 ;; This function uses a non-reentrant model
  2587 ;;
  2588                           
  2589                           	psect	text1
  2590  00001C                     __ptext1:
  2591                           	opt stack 0
  2592  00001C                     _printf:
  2593                           	opt stack 26
  2594                           
  2595                           ;doprnt.c: 466: va_list ap;
  2596                           ;doprnt.c: 499: signed char c;
  2597                           ;doprnt.c: 501: int width;
  2598                           ;doprnt.c: 506: signed char prec;
  2599                           ;doprnt.c: 508: unsigned char flag;
  2600                           ;doprnt.c: 523: union {
  2601                           ;doprnt.c: 524: unsigned long vd;
  2602                           ;doprnt.c: 525: double integ;
  2603                           ;doprnt.c: 526: } tmpval;
  2604                           ;doprnt.c: 528: unsigned int val;
  2605                           ;doprnt.c: 529: unsigned len;
  2606                           ;doprnt.c: 530: const char * cp;
  2607                           ;doprnt.c: 533: *ap = __va_start();
  2608                           
  2609                           ;incstack = 0
  2610  00001C  0E1F               	movlw	low (?_printf+2)
  2611  00001E  6E30               	movwf	printf@ap,c
  2612  000020  0E00               	movlw	high (?_printf+2)
  2613  000022  6E31               	movwf	printf@ap+1,c
  2614                           
  2615                           ;doprnt.c: 536: while(c = *f++) {
  2616  000024  D199               	goto	l6242
  2617  000026                     l6116:
  2618                           
  2619                           ;doprnt.c: 538: if(c != '%')
  2620  000026  0E25               	movlw	37
  2621  000028  1838               	xorwf	printf@c,w,c
  2622  00002A  B4D8               	btfsc	status,2,c
  2623  00002C  D004               	goto	l6120
  2624                           
  2625                           ;doprnt.c: 540: {
  2626                           ;doprnt.c: 541: (putch(c) );
  2627  00002E  5038               	movf	printf@c,w,c
  2628  000030  EC0B  F010         	call	_putch
  2629                           
  2630                           ;doprnt.c: 542: continue;
  2631  000034  D191               	goto	l6242
  2632  000036                     l6120:
  2633                           
  2634                           ;doprnt.c: 543: }
  2635                           ;doprnt.c: 546: width = 0;
  2636  000036  0E00               	movlw	0
  2637  000038  6E37               	movwf	printf@width+1,c
  2638  00003A  0E00               	movlw	0
  2639  00003C  6E36               	movwf	printf@width,c
  2640                           
  2641                           ;doprnt.c: 548: flag = 0;
  2642  00003E  0E00               	movlw	0
  2643  000040  6E35               	movwf	printf@flag,c
  2644                           
  2645                           ;doprnt.c: 551: switch(*f) {
  2646                           
  2647                           ;doprnt.c: 550: for(;;) {
  2648  000042  D005               	goto	l6126
  2649  000044                     l6122:
  2650                           
  2651                           ;doprnt.c: 580: flag |= 0x04;
  2652  000044  8435               	bsf	printf@flag,2,c
  2653                           
  2654                           ;doprnt.c: 581: f++;
  2655  000046  4A1D               	infsnz	printf@f,f,c
  2656  000048  2A1E               	incf	printf@f+1,f,c
  2657                           
  2658                           ;doprnt.c: 582: continue;
  2659  00004A  D001               	goto	l6126
  2660                           
  2661                           ;doprnt.c: 584: }
  2662  00004C  D00B               	goto	l6128
  2663  00004E                     l6126:
  2664  00004E  C01D  FFF6         	movff	printf@f,tblptrl
  2665  000052  C01E  FFF7         	movff	printf@f+1,tblptrh
  2666  000056                     	if	0	;tblptru may be non-zero
  2667  000056                     	endif
  2668  000056                     	if	0	;tblptru may be non-zero
  2669  000056                     	endif
  2670  000056  0008               	tblrd		*
  2671  000058  50F5               	movf	tablat,w,c
  2672                           
  2673                           ; Switch size 1, requested type "space"
  2674                           ; Number of cases is 1, Range of values is 48 to 48
  2675                           ; switch strategies available:
  2676                           ; Name         Instructions Cycles
  2677                           ; simple_byte            4     3 (average)
  2678                           ;	Chosen strategy is simple_byte
  2679  00005A  0A30               	xorlw	48	; case 48
  2680  00005C  B4D8               	btfsc	status,2,c
  2681  00005E  D7F2               	goto	l6122
  2682                           
  2683                           ;doprnt.c: 585: break;
  2684  000060  D001               	goto	l6128
  2685                           
  2686                           ;doprnt.c: 586: }
  2687  000062  D7F5               	goto	l6126
  2688  000064                     l6128:
  2689                           
  2690                           ;doprnt.c: 597: if(isdigit((unsigned)*f)) {
  2691  000064  C01D  FFF6         	movff	printf@f,tblptrl
  2692  000068  C01E  FFF7         	movff	printf@f+1,tblptrh
  2693  00006C                     	if	0	;tblptru may be non-zero
  2694  00006C                     	endif
  2695  00006C                     	if	0	;tblptru may be non-zero
  2696  00006C                     	endif
  2697  00006C  0008               	tblrd		*
  2698  00006E  50F5               	movf	tablat,w,c
  2699  000070  EC1F  F00F         	call	_isdigit
  2700  000074  A0D8               	btfss	status,0,c
  2701  000076  D03B               	goto	l6144
  2702                           
  2703                           ;doprnt.c: 598: width = 0;
  2704  000078  0E00               	movlw	0
  2705  00007A  6E37               	movwf	printf@width+1,c
  2706  00007C  0E00               	movlw	0
  2707  00007E  6E36               	movwf	printf@width,c
  2708  000080  D000               	goto	l6132
  2709  000082                     l6132:
  2710                           
  2711                           ;doprnt.c: 600: width *= 10;
  2712  000082  C036  F011         	movff	printf@width,___wmul@multiplier
  2713  000086  C037  F012         	movff	printf@width+1,___wmul@multiplier+1
  2714  00008A  0E00               	movlw	0
  2715  00008C  6E14               	movwf	___wmul@multiplicand+1,c
  2716  00008E  0E0A               	movlw	10
  2717  000090  6E13               	movwf	___wmul@multiplicand,c
  2718  000092  ECE6  F00E         	call	___wmul	;wreg free
  2719  000096  C011  F036         	movff	?___wmul,printf@width
  2720  00009A  C012  F037         	movff	?___wmul+1,printf@width+1
  2721                           
  2722                           ;doprnt.c: 601: width += *f++ - '0';
  2723  00009E  0ED0               	movlw	208
  2724  0000A0  6E2B               	movwf	??_printf& (0+255),c
  2725  0000A2  0EFF               	movlw	255
  2726  0000A4  6E2C               	movwf	(??_printf+1)& (0+255),c
  2727  0000A6  C01D  FFF6         	movff	printf@f,tblptrl
  2728  0000AA  C01E  FFF7         	movff	printf@f+1,tblptrh
  2729  0000AE                     	if	0	;tblptru may be non-zero
  2730  0000AE                     	endif
  2731  0000AE                     	if	0	;tblptru may be non-zero
  2732  0000AE                     	endif
  2733  0000AE  0008               	tblrd		*
  2734  0000B0  50F5               	movf	tablat,w,c
  2735  0000B2  6E2D               	movwf	(??_printf+2)& (0+255),c
  2736  0000B4  6A2E               	clrf	(??_printf+3)& (0+255),c
  2737  0000B6  502B               	movf	??_printf,w,c
  2738  0000B8  262D               	addwf	??_printf+2,f,c
  2739  0000BA  502C               	movf	??_printf+1,w,c
  2740  0000BC  222E               	addwfc	??_printf+3,f,c
  2741  0000BE  502D               	movf	??_printf+2,w,c
  2742  0000C0  2636               	addwf	printf@width,f,c
  2743  0000C2  502E               	movf	??_printf+3,w,c
  2744  0000C4  2237               	addwfc	printf@width+1,f,c
  2745  0000C6  4A1D               	infsnz	printf@f,f,c
  2746  0000C8  2A1E               	incf	printf@f+1,f,c
  2747                           
  2748                           ;doprnt.c: 602: } while(isdigit((unsigned)*f));
  2749  0000CA  C01D  FFF6         	movff	printf@f,tblptrl
  2750  0000CE  C01E  FFF7         	movff	printf@f+1,tblptrh
  2751  0000D2                     	if	0	;tblptru may be non-zero
  2752  0000D2                     	endif
  2753  0000D2                     	if	0	;tblptru may be non-zero
  2754  0000D2                     	endif
  2755  0000D2  0008               	tblrd		*
  2756  0000D4  50F5               	movf	tablat,w,c
  2757  0000D6  EC1F  F00F         	call	_isdigit
  2758  0000DA  A0D8               	btfss	status,0,c
  2759  0000DC  D008               	goto	l6144
  2760  0000DE  D7D1               	goto	l6132
  2761                           
  2762                           ;doprnt.c: 608: }
  2763                           ;doprnt.c: 635: switch(c = *f++) {
  2764  0000E0  D006               	goto	l6144
  2765                           
  2766                           ;doprnt.c: 638: goto alldone;
  2767                           
  2768                           ;doprnt.c: 637: case 0:
  2769  0000E2  D148               	goto	l842
  2770                           
  2771                           ;doprnt.c: 698: case 'i':
  2772                           ;doprnt.c: 699: break;
  2773                           
  2774                           ;doprnt.c: 697: case 'd':
  2775  0000E4  D01B               	goto	l805
  2776  0000E6                     l6140:
  2777                           
  2778                           ;doprnt.c: 721: flag |= 0x80;
  2779  0000E6  8E35               	bsf	printf@flag,7,c
  2780                           
  2781                           ;doprnt.c: 723: break;
  2782  0000E8  D019               	goto	l805
  2783                           
  2784                           ;doprnt.c: 813: continue;
  2785                           
  2786                           ;doprnt.c: 802: default:
  2787  0000EA  D136               	goto	l6242
  2788                           
  2789                           ;doprnt.c: 822: }
  2790  0000EC  D017               	goto	l805
  2791  0000EE                     l6144:
  2792  0000EE  C01D  FFF6         	movff	printf@f,tblptrl
  2793  0000F2  C01E  FFF7         	movff	printf@f+1,tblptrh
  2794  0000F6  4A1D               	infsnz	printf@f,f,c
  2795  0000F8  2A1E               	incf	printf@f+1,f,c
  2796  0000FA                     	if	0	;tblptru may be non-zero
  2797  0000FA                     	endif
  2798  0000FA                     	if	0	;tblptru may be non-zero
  2799  0000FA                     	endif
  2800  0000FA  0008               	tblrd		*
  2801  0000FC  CFF5 F038          	movff	tablat,printf@c
  2802  000100  5038               	movf	printf@c,w,c
  2803                           
  2804                           ; Switch size 1, requested type "space"
  2805                           ; Number of cases is 4, Range of values is 0 to 120
  2806                           ; switch strategies available:
  2807                           ; Name         Instructions Cycles
  2808                           ; simple_byte           13     7 (average)
  2809                           ;	Chosen strategy is simple_byte
  2810  000102  0A00               	xorlw	0	; case 0
  2811  000104  B4D8               	btfsc	status,2,c
  2812  000106  D136               	goto	l842
  2813  000108  0A64               	xorlw	100	; case 100
  2814  00010A  B4D8               	btfsc	status,2,c
  2815  00010C  D007               	goto	l805
  2816  00010E  0A0D               	xorlw	13	; case 105
  2817  000110  B4D8               	btfsc	status,2,c
  2818  000112  D004               	goto	l805
  2819  000114  0A11               	xorlw	17	; case 120
  2820  000116  B4D8               	btfsc	status,2,c
  2821  000118  D7E6               	goto	l6140
  2822  00011A  D11E               	goto	l6242
  2823  00011C                     l805:
  2824                           
  2825                           ;doprnt.c: 1251: if((flag & 0x80) == 0x00)
  2826  00011C  BE35               	btfsc	printf@flag,7,c
  2827  00011E  D015               	goto	l6156
  2828                           
  2829                           ;doprnt.c: 1253: {
  2830                           ;doprnt.c: 1259: val = (int)(*(int *)__va_arg((*(int **)ap), (int)0));
  2831  000120  C030  FFD9         	movff	printf@ap,fsr2l
  2832  000124  C031  FFDA         	movff	printf@ap+1,fsr2h
  2833  000128  CFDE F033          	movff	postinc2,printf@val
  2834  00012C  CFDD F034          	movff	postdec2,printf@val+1
  2835  000130  0E02               	movlw	2
  2836  000132  2630               	addwf	printf@ap,f,c
  2837  000134  0E00               	movlw	0
  2838  000136  2231               	addwfc	printf@ap+1,f,c
  2839                           
  2840                           ;doprnt.c: 1261: if((int)val < 0) {
  2841  000138  AE34               	btfss	printf@val+1,7,c
  2842  00013A  D04E               	goto	l6190
  2843                           
  2844                           ;doprnt.c: 1262: flag |= 0x03;
  2845  00013C  0E03               	movlw	3
  2846  00013E  1235               	iorwf	printf@flag,f,c
  2847                           
  2848                           ;doprnt.c: 1263: val = -val;
  2849  000140  6C33               	negf	printf@val,c
  2850  000142  1E34               	comf	printf@val+1,f,c
  2851  000144  B0D8               	btfsc	status,0,c
  2852  000146  2A34               	incf	printf@val+1,f,c
  2853                           
  2854                           ;doprnt.c: 1264: }
  2855                           ;doprnt.c: 1266: }
  2856  000148  D047               	goto	l6190
  2857  00014A                     l6156:
  2858                           
  2859                           ;doprnt.c: 1268: else
  2860                           ;doprnt.c: 1273: {
  2861                           ;doprnt.c: 1286: val = (*(unsigned *)__va_arg((*(unsigned **)ap), (unsigned)0));
  2862  00014A  C030  FFD9         	movff	printf@ap,fsr2l
  2863  00014E  C031  FFDA         	movff	printf@ap+1,fsr2h
  2864  000152  CFDE F033          	movff	postinc2,printf@val
  2865  000156  CFDD F034          	movff	postdec2,printf@val+1
  2866  00015A  0E02               	movlw	2
  2867  00015C  2630               	addwf	printf@ap,f,c
  2868  00015E  0E00               	movlw	0
  2869  000160  2231               	addwfc	printf@ap+1,f,c
  2870                           
  2871                           ;doprnt.c: 1287: }
  2872                           ;doprnt.c: 1294: switch((unsigned char)(flag & 0x80)) {
  2873  000162  D03A               	goto	l6190
  2874  000164                     l6160:
  2875                           
  2876                           ;doprnt.c: 1305: for(c = 1 ; c != sizeof dpowers/sizeof dpowers[0] ; c++)
  2877  000164  0E01               	movlw	1
  2878  000166  6E38               	movwf	printf@c,c
  2879  000168                     l6162:
  2880  000168  0E05               	movlw	5
  2881  00016A  1838               	xorwf	printf@c,w,c
  2882  00016C  B4D8               	btfsc	status,2,c
  2883  00016E  D03D               	goto	l6192
  2884  000170  D001               	goto	l6166
  2885  000172  D03B               	goto	l6192
  2886  000174                     l6166:
  2887                           
  2888                           ;doprnt.c: 1306: if(val < dpowers[c])
  2889  000174  5038               	movf	printf@c,w,c
  2890  000176  0D02               	mullw	2
  2891  000178  0E4E               	movlw	low _dpowers
  2892  00017A  24F3               	addwf	prodl,w,c
  2893  00017C  6EF6               	movwf	tblptrl,c
  2894  00017E  0EFF               	movlw	high _dpowers
  2895  000180  20F4               	addwfc	prodh,w,c
  2896  000182  6EF7               	movwf	tblptrh,c
  2897  000184                     	if	0	;There are less than 3 active tblptr bytes
  2898  000184                     	endif
  2899  000184  0009               	tblrd		*+
  2900  000186  50F5               	movf	tablat,w,c
  2901  000188  5C33               	subwf	printf@val,w,c
  2902  00018A  0009               	tblrd		*+
  2903  00018C  50F5               	movf	tablat,w,c
  2904  00018E  5834               	subwfb	printf@val+1,w,c
  2905  000190  A0D8               	btfss	status,0,c
  2906  000192  D02B               	goto	l6192
  2907  000194  D001               	goto	l6170
  2908                           
  2909                           ;doprnt.c: 1307: break;
  2910  000196  D029               	goto	l6192
  2911  000198                     l6170:
  2912  000198  2A38               	incf	printf@c,f,c
  2913  00019A  D7E6               	goto	l6162
  2914                           
  2915                           ;doprnt.c: 1309: break;
  2916  00019C  D026               	goto	l6192
  2917  00019E                     l6174:
  2918                           
  2919                           ;doprnt.c: 1316: for(c = 1 ; c != sizeof hexpowers/sizeof hexpowers[0] ; c++)
  2920  00019E  0E01               	movlw	1
  2921  0001A0  6E38               	movwf	printf@c,c
  2922  0001A2                     l6176:
  2923  0001A2  0E04               	movlw	4
  2924  0001A4  1838               	xorwf	printf@c,w,c
  2925  0001A6  B4D8               	btfsc	status,2,c
  2926  0001A8  D020               	goto	l6192
  2927  0001AA  D001               	goto	l6180
  2928  0001AC  D01E               	goto	l6192
  2929  0001AE                     l6180:
  2930                           
  2931                           ;doprnt.c: 1317: if(val < hexpowers[c])
  2932  0001AE  5038               	movf	printf@c,w,c
  2933  0001B0  0D02               	mullw	2
  2934  0001B2  0E58               	movlw	low _hexpowers
  2935  0001B4  24F3               	addwf	prodl,w,c
  2936  0001B6  6EF6               	movwf	tblptrl,c
  2937  0001B8  0EFF               	movlw	high _hexpowers
  2938  0001BA  20F4               	addwfc	prodh,w,c
  2939  0001BC  6EF7               	movwf	tblptrh,c
  2940  0001BE                     	if	0	;There are less than 3 active tblptr bytes
  2941  0001BE                     	endif
  2942  0001BE  0009               	tblrd		*+
  2943  0001C0  50F5               	movf	tablat,w,c
  2944  0001C2  5C33               	subwf	printf@val,w,c
  2945  0001C4  0009               	tblrd		*+
  2946  0001C6  50F5               	movf	tablat,w,c
  2947  0001C8  5834               	subwfb	printf@val+1,w,c
  2948  0001CA  A0D8               	btfss	status,0,c
  2949  0001CC  D00E               	goto	l6192
  2950  0001CE  D001               	goto	l6184
  2951                           
  2952                           ;doprnt.c: 1318: break;
  2953  0001D0  D00C               	goto	l6192
  2954  0001D2                     l6184:
  2955  0001D2  2A38               	incf	printf@c,f,c
  2956  0001D4  D7E6               	goto	l6176
  2957                           
  2958                           ;doprnt.c: 1336: }
  2959                           
  2960                           ;doprnt.c: 1320: break;
  2961  0001D6  D009               	goto	l6192
  2962  0001D8                     l6190:
  2963  0001D8  5035               	movf	printf@flag,w,c
  2964  0001DA  0B80               	andlw	128
  2965                           
  2966                           ; Switch size 1, requested type "space"
  2967                           ; Number of cases is 2, Range of values is 0 to 128
  2968                           ; switch strategies available:
  2969                           ; Name         Instructions Cycles
  2970                           ; simple_byte            7     4 (average)
  2971                           ;	Chosen strategy is simple_byte
  2972  0001DC  0A00               	xorlw	0	; case 0
  2973  0001DE  B4D8               	btfsc	status,2,c
  2974  0001E0  D7C1               	goto	l6160
  2975  0001E2  0A80               	xorlw	128	; case 128
  2976  0001E4  B4D8               	btfsc	status,2,c
  2977  0001E6  D7DB               	goto	l6174
  2978  0001E8  D000               	goto	l6192
  2979  0001EA                     l6192:
  2980                           
  2981                           ;doprnt.c: 1345: if(width && flag & 0x03)
  2982  0001EA  5036               	movf	printf@width,w,c
  2983  0001EC  1037               	iorwf	printf@width+1,w,c
  2984  0001EE  B4D8               	btfsc	status,2,c
  2985  0001F0  D00A               	goto	l6198
  2986  0001F2  C035  F02B         	movff	printf@flag,??_printf
  2987  0001F6  0E03               	movlw	3
  2988  0001F8  162B               	andwf	??_printf,f,c
  2989  0001FA  B4D8               	btfsc	status,2,c
  2990  0001FC  D004               	goto	l6198
  2991                           
  2992                           ;doprnt.c: 1346: width--;
  2993  0001FE  0636               	decf	printf@width,f,c
  2994  000200  A0D8               	btfss	status,0,c
  2995  000202  0637               	decf	printf@width+1,f,c
  2996  000204  D000               	goto	l6198
  2997  000206                     l6198:
  2998                           
  2999                           ;doprnt.c: 1381: if(width > c)
  3000  000206  0E80               	movlw	128
  3001  000208  BE38               	btfsc	printf@c,7,c
  3002  00020A  0E7F               	movlw	127
  3003  00020C  6E2B               	movwf	??_printf& (0+255),c
  3004  00020E  5036               	movf	printf@width,w,c
  3005  000210  5C38               	subwf	printf@c,w,c
  3006  000212  5037               	movf	printf@width+1,w,c
  3007  000214  0A80               	xorlw	128
  3008  000216  582B               	subwfb	??_printf& (0+255),w,c
  3009  000218  B0D8               	btfsc	status,0,c
  3010  00021A  D007               	goto	l6202
  3011                           
  3012                           ;doprnt.c: 1382: width -= c;
  3013  00021C  5038               	movf	printf@c,w,c
  3014  00021E  5E36               	subwf	printf@width,f,c
  3015  000220  0E00               	movlw	0
  3016  000222  BE38               	btfsc	printf@c,7,c
  3017  000224  0EFF               	movlw	255
  3018  000226  5A37               	subwfb	printf@width+1,f,c
  3019  000228  D005               	goto	l6204
  3020  00022A                     l6202:
  3021                           
  3022                           ;doprnt.c: 1383: else
  3023                           ;doprnt.c: 1384: width = 0;
  3024  00022A  0E00               	movlw	0
  3025  00022C  6E37               	movwf	printf@width+1,c
  3026  00022E  0E00               	movlw	0
  3027  000230  6E36               	movwf	printf@width,c
  3028  000232  D000               	goto	l6204
  3029  000234                     l6204:
  3030                           
  3031                           ;doprnt.c: 1387: if(flag & 0x04) {
  3032  000234  A435               	btfss	printf@flag,2,c
  3033  000236  D01A               	goto	l6216
  3034                           
  3035                           ;doprnt.c: 1392: if(flag & 0x03)
  3036  000238  C035  F02B         	movff	printf@flag,??_printf
  3037  00023C  0E03               	movlw	3
  3038  00023E  162B               	andwf	??_printf,f,c
  3039  000240  B4D8               	btfsc	status,2,c
  3040  000242  D004               	goto	l6210
  3041                           
  3042                           ;doprnt.c: 1393: (putch('-') );
  3043  000244  0E2D               	movlw	45
  3044  000246  EC0B  F010         	call	_putch
  3045  00024A  D000               	goto	l6210
  3046  00024C                     l6210:
  3047                           
  3048                           ;doprnt.c: 1415: if(width)
  3049  00024C  5036               	movf	printf@width,w,c
  3050  00024E  1037               	iorwf	printf@width+1,w,c
  3051  000250  B4D8               	btfsc	status,2,c
  3052  000252  D026               	goto	l6226
  3053  000254                     l6212:
  3054                           
  3055                           ;doprnt.c: 1417: (putch('0') );
  3056  000254  0E30               	movlw	48
  3057  000256  EC0B  F010         	call	_putch
  3058                           
  3059                           ;doprnt.c: 1418: while(--width);
  3060  00025A  0636               	decf	printf@width,f,c
  3061  00025C  A0D8               	btfss	status,0,c
  3062  00025E  0637               	decf	printf@width+1,f,c
  3063  000260  5036               	movf	printf@width,w,c
  3064  000262  1037               	iorwf	printf@width+1,w,c
  3065  000264  B4D8               	btfsc	status,2,c
  3066  000266  D01C               	goto	l6226
  3067  000268  D7F5               	goto	l6212
  3068                           
  3069                           ;doprnt.c: 1420: } else
  3070  00026A  D01A               	goto	l6226
  3071  00026C                     l6216:
  3072                           
  3073                           ;doprnt.c: 1422: {
  3074                           ;doprnt.c: 1424: if(width
  3075                           ;doprnt.c: 1428: )
  3076  00026C  5036               	movf	printf@width,w,c
  3077  00026E  1037               	iorwf	printf@width+1,w,c
  3078  000270  B4D8               	btfsc	status,2,c
  3079  000272  D00C               	goto	l6222
  3080  000274                     l6218:
  3081                           
  3082                           ;doprnt.c: 1430: (putch(' ') );
  3083  000274  0E20               	movlw	32
  3084  000276  EC0B  F010         	call	_putch
  3085                           
  3086                           ;doprnt.c: 1431: while(--width);
  3087  00027A  0636               	decf	printf@width,f,c
  3088  00027C  A0D8               	btfss	status,0,c
  3089  00027E  0637               	decf	printf@width+1,f,c
  3090  000280  5036               	movf	printf@width,w,c
  3091  000282  1037               	iorwf	printf@width+1,w,c
  3092  000284  B4D8               	btfsc	status,2,c
  3093  000286  D002               	goto	l6222
  3094  000288  D7F5               	goto	l6218
  3095  00028A  D000               	goto	l6222
  3096  00028C                     l6222:
  3097                           
  3098                           ;doprnt.c: 1438: if(flag & 0x03)
  3099  00028C  C035  F02B         	movff	printf@flag,??_printf
  3100  000290  0E03               	movlw	3
  3101  000292  162B               	andwf	??_printf,f,c
  3102  000294  B4D8               	btfsc	status,2,c
  3103  000296  D004               	goto	l6226
  3104                           
  3105                           ;doprnt.c: 1439: (putch('-') );
  3106  000298  0E2D               	movlw	45
  3107  00029A  EC0B  F010         	call	_putch
  3108  00029E  D000               	goto	l6226
  3109  0002A0                     l6226:
  3110                           
  3111                           ;doprnt.c: 1469: }
  3112                           ;doprnt.c: 1472: prec = c;
  3113  0002A0  C038  F032         	movff	printf@c,printf@prec
  3114                           
  3115                           ;doprnt.c: 1474: while(prec--) {
  3116  0002A4  D053               	goto	l6240
  3117                           
  3118                           ;doprnt.c: 1476: switch((unsigned char)(flag & 0x80))
  3119  0002A6  D045               	goto	l6236
  3120  0002A8                     l6228:
  3121                           
  3122                           ;doprnt.c: 1489: c = (val / dpowers[prec]) % 10 + '0';
  3123  0002A8  5032               	movf	printf@prec,w,c
  3124  0002AA  0D02               	mullw	2
  3125  0002AC  0E4E               	movlw	low _dpowers
  3126  0002AE  24F3               	addwf	prodl,w,c
  3127  0002B0  6EF6               	movwf	tblptrl,c
  3128  0002B2  0EFF               	movlw	high _dpowers
  3129  0002B4  20F4               	addwfc	prodh,w,c
  3130  0002B6  6EF7               	movwf	tblptrh,c
  3131  0002B8                     	if	0	;There are less than 3 active tblptr bytes
  3132  0002B8                     	endif
  3133  0002B8  0009               	tblrd		*+
  3134  0002BA  CFF5 F013          	movff	tablat,___lwdiv@divisor
  3135  0002BE  000A               	tblrd		*-
  3136  0002C0  CFF5 F014          	movff	tablat,___lwdiv@divisor+1
  3137  0002C4  C033  F011         	movff	printf@val,___lwdiv@dividend
  3138  0002C8  C034  F012         	movff	printf@val+1,___lwdiv@dividend+1
  3139  0002CC  ECAA  F00C         	call	___lwdiv	;wreg free
  3140  0002D0  C011  F018         	movff	?___lwdiv,___lwmod@dividend
  3141  0002D4  C012  F019         	movff	?___lwdiv+1,___lwmod@dividend+1
  3142  0002D8  0E00               	movlw	0
  3143  0002DA  6E1B               	movwf	___lwmod@divisor+1,c
  3144  0002DC  0E0A               	movlw	10
  3145  0002DE  6E1A               	movwf	___lwmod@divisor,c
  3146  0002E0  EC51  F00D         	call	___lwmod	;wreg free
  3147  0002E4  5018               	movf	?___lwmod,w,c
  3148  0002E6  0F30               	addlw	48
  3149  0002E8  6E38               	movwf	printf@c,c
  3150                           
  3151                           ;doprnt.c: 1491: break;
  3152  0002EA  D02C               	goto	l6238
  3153  0002EC                     l6230:
  3154                           
  3155                           ;doprnt.c: 1499: {
  3156                           ;doprnt.c: 1500: unsigned char idx = (val / hexpowers[prec]) & 0xF;
  3157  0002EC  C033  F011         	movff	printf@val,___lwdiv@dividend
  3158  0002F0  C034  F012         	movff	printf@val+1,___lwdiv@dividend+1
  3159  0002F4  5032               	movf	printf@prec,w,c
  3160  0002F6  0D02               	mullw	2
  3161  0002F8  0E58               	movlw	low _hexpowers
  3162  0002FA  24F3               	addwf	prodl,w,c
  3163  0002FC  6EF6               	movwf	tblptrl,c
  3164  0002FE  0EFF               	movlw	high _hexpowers
  3165  000300  20F4               	addwfc	prodh,w,c
  3166  000302  6EF7               	movwf	tblptrh,c
  3167  000304                     	if	0	;There are less than 3 active tblptr bytes
  3168  000304                     	endif
  3169  000304  0009               	tblrd		*+
  3170  000306  CFF5 F013          	movff	tablat,___lwdiv@divisor
  3171  00030A  000A               	tblrd		*-
  3172  00030C  CFF5 F014          	movff	tablat,___lwdiv@divisor+1
  3173  000310  ECAA  F00C         	call	___lwdiv	;wreg free
  3174  000314  5011               	movf	?___lwdiv,w,c
  3175  000316  0B0F               	andlw	15
  3176  000318  6E2F               	movwf	printf@idx,c
  3177                           
  3178                           ;doprnt.c: 1506: c = "0123456789abcdef"[idx];
  3179  00031A  502F               	movf	printf@idx,w,c
  3180  00031C  0D01               	mullw	1
  3181  00031E  0EE5               	movlw	low STR_7
  3182  000320  24F3               	addwf	prodl,w,c
  3183  000322  6EF6               	movwf	tblptrl,c
  3184  000324  0EFF               	movlw	high STR_7
  3185  000326  20F4               	addwfc	prodh,w,c
  3186  000328  6EF7               	movwf	tblptrh,c
  3187  00032A                     	if	0	;There are less than 3 active tblptr bytes
  3188  00032A                     	endif
  3189  00032A  0008               	tblrd		*
  3190  00032C  CFF5 F038          	movff	tablat,printf@c
  3191                           
  3192                           ;doprnt.c: 1523: }
  3193                           
  3194                           ;doprnt.c: 1508: }
  3195                           ;doprnt.c: 1510: break;
  3196  000330  D009               	goto	l6238
  3197  000332                     l6236:
  3198  000332  5035               	movf	printf@flag,w,c
  3199  000334  0B80               	andlw	128
  3200                           
  3201                           ; Switch size 1, requested type "space"
  3202                           ; Number of cases is 2, Range of values is 0 to 128
  3203                           ; switch strategies available:
  3204                           ; Name         Instructions Cycles
  3205                           ; simple_byte            7     4 (average)
  3206                           ;	Chosen strategy is simple_byte
  3207  000336  0A00               	xorlw	0	; case 0
  3208  000338  B4D8               	btfsc	status,2,c
  3209  00033A  D7B6               	goto	l6228
  3210  00033C  0A80               	xorlw	128	; case 128
  3211  00033E  B4D8               	btfsc	status,2,c
  3212  000340  D7D5               	goto	l6230
  3213  000342  D000               	goto	l6238
  3214  000344                     l6238:
  3215                           
  3216                           ;doprnt.c: 1524: (putch(c) );
  3217  000344  5038               	movf	printf@c,w,c
  3218  000346  EC0B  F010         	call	_putch
  3219  00034A  D000               	goto	l6240
  3220  00034C                     l6240:
  3221  00034C  0632               	decf	printf@prec,f,c
  3222  00034E  2832               	incf	printf@prec,w,c
  3223  000350  B4D8               	btfsc	status,2,c
  3224  000352  D002               	goto	l6242
  3225  000354  D7EE               	goto	l6236
  3226  000356  D000               	goto	l6242
  3227  000358                     l6242:
  3228  000358  C01D  FFF6         	movff	printf@f,tblptrl
  3229  00035C  C01E  FFF7         	movff	printf@f+1,tblptrh
  3230  000360  4A1D               	infsnz	printf@f,f,c
  3231  000362  2A1E               	incf	printf@f+1,f,c
  3232  000364                     	if	0	;tblptru may be non-zero
  3233  000364                     	endif
  3234  000364                     	if	0	;tblptru may be non-zero
  3235  000364                     	endif
  3236  000364  0008               	tblrd		*
  3237  000366  CFF5 F038          	movff	tablat,printf@c
  3238  00036A  5038               	movf	printf@c,w,c
  3239  00036C  B4D8               	btfsc	status,2,c
  3240  00036E  D002               	goto	l842
  3241  000370  D65A               	goto	l6116
  3242  000372  D000               	goto	l842
  3243  000374                     l842:
  3244  000374  0012               	return		;funcret
  3245  000376                     __end_of_printf:
  3246                           	opt stack 0
  3247                           tblptru	equ	0xFF8
  3248                           tblptrh	equ	0xFF7
  3249                           tblptrl	equ	0xFF6
  3250                           tablat	equ	0xFF5
  3251                           prodh	equ	0xFF4
  3252                           prodl	equ	0xFF3
  3253                           intcon2	equ	0xFF1
  3254                           postinc0	equ	0xFEE
  3255                           wreg	equ	0xFE8
  3256                           postdec1	equ	0xFE5
  3257                           fsr1l	equ	0xFE1
  3258                           indf2	equ	0xFDF
  3259                           postinc2	equ	0xFDE
  3260                           postdec2	equ	0xFDD
  3261                           fsr2h	equ	0xFDA
  3262                           fsr2l	equ	0xFD9
  3263                           status	equ	0xFD8
  3264                           
  3265 ;; *************** function _putch *****************
  3266 ;; Defined at:
  3267 ;;		line 33 in file "../utils.c"
  3268 ;; Parameters:    Size  Location     Type
  3269 ;;  c               1    wreg     unsigned char 
  3270 ;; Auto vars:     Size  Location     Type
  3271 ;;  c               1   16[COMRAM] unsigned char 
  3272 ;; Return value:  Size  Location     Type
  3273 ;;		None               void
  3274 ;; Registers used:
  3275 ;;		wreg
  3276 ;; Tracked objects:
  3277 ;;		On entry : 0/0
  3278 ;;		On exit  : 0/0
  3279 ;;		Unchanged: 0/0
  3280 ;; Data sizes:     COMRAM   BANK0   BANK1   BANK2   BANK3   BANK4   BANK5   BANK6   BANK7   BANK8   BANK9  BANK10  BANK1
      +1  BANK12  BANK13  BANK14  BANK15
  3281 ;;      Params:         0       0       0       0       0       0       0       0       0       0       0       0       
      +0       0       0       0       0
  3282 ;;      Locals:         1       0       0       0       0       0       0       0       0       0       0       0       
      +0       0       0       0       0
  3283 ;;      Temps:          0       0       0       0       0       0       0       0       0       0       0       0       
      +0       0       0       0       0
  3284 ;;      Totals:         1       0       0       0       0       0       0       0       0       0       0       0       
      +0       0       0       0       0
  3285 ;;Total ram usage:        1 bytes
  3286 ;; Hardware stack levels used:    1
  3287 ;; Hardware stack levels required when called:    3
  3288 ;; This function calls:
  3289 ;;		Nothing
  3290 ;; This function is called by:
  3291 ;;		_printf
  3292 ;; This function uses a non-reentrant model
  3293 ;;
  3294                           
  3295                           	psect	text2
  3296  002016                     __ptext2:
  3297                           	opt stack 0
  3298  002016                     _putch:
  3299                           	opt stack 26
  3300                           
  3301                           ;incstack = 0
  3302                           ;putch@c stored from wreg
  3303  002016  6E11               	movwf	putch@c,c
  3304                           
  3305                           ;utils.c: 35: while (!TRMT);
  3306  002018  D000               	goto	l551
  3307  00201A                     l551:
  3308  00201A  A2AC               	btfss	4012,1,c	;volatile
  3309  00201C  D7FE               	goto	l551
  3310                           
  3311                           ;utils.c: 36: TXREG = c;
  3312  00201E  C011  FFAD         	movff	putch@c,4013	;volatile
  3313  002022  0012               	return		;funcret
  3314  002024                     __end_of_putch:
  3315                           	opt stack 0
  3316                           tblptru	equ	0xFF8
  3317                           tblptrh	equ	0xFF7
  3318                           tblptrl	equ	0xFF6
  3319                           tablat	equ	0xFF5
  3320                           prodh	equ	0xFF4
  3321                           prodl	equ	0xFF3
  3322                           intcon2	equ	0xFF1
  3323                           postinc0	equ	0xFEE
  3324                           wreg	equ	0xFE8
  3325                           postdec1	equ	0xFE5
  3326                           fsr1l	equ	0xFE1
  3327                           indf2	equ	0xFDF
  3328                           postinc2	equ	0xFDE
  3329                           postdec2	equ	0xFDD
  3330                           fsr2h	equ	0xFDA
  3331                           fsr2l	equ	0xFD9
  3332                           status	equ	0xFD8
  3333                           
  3334 ;; *************** function _isdigit *****************
  3335 ;; Defined at:
  3336 ;;		line 8 in file "C:\Program Files (x86)\Microchip\xc8\v1.34\sources\common\isdigit.c"
  3337 ;; Parameters:    Size  Location     Type
  3338 ;;  c               1    wreg     unsigned char 
  3339 ;; Auto vars:     Size  Location     Type
  3340 ;;  c               1   18[COMRAM] unsigned char 
  3341 ;; Return value:  Size  Location     Type
  3342 ;;		None               void
  3343 ;; Registers used:
  3344 ;;		wreg, status,2, status,0
  3345 ;; Tracked objects:
  3346 ;;		On entry : 0/0
  3347 ;;		On exit  : 0/0
  3348 ;;		Unchanged: 0/0
  3349 ;; Data sizes:     COMRAM   BANK0   BANK1   BANK2   BANK3   BANK4   BANK5   BANK6   BANK7   BANK8   BANK9  BANK10  BANK1
      +1  BANK12  BANK13  BANK14  BANK15
  3350 ;;      Params:         0       0       0       0       0       0       0       0       0       0       0       0       
      +0       0       0       0       0
  3351 ;;      Locals:         2       0       0       0       0       0       0       0       0       0       0       0       
      +0       0       0       0       0
  3352 ;;      Temps:          1       0       0       0       0       0       0       0       0       0       0       0       
      +0       0       0       0       0
  3353 ;;      Totals:         3       0       0       0       0       0       0       0       0       0       0       0       
      +0       0       0       0       0
  3354 ;;Total ram usage:        3 bytes
  3355 ;; Hardware stack levels used:    1
  3356 ;; Hardware stack levels required when called:    3
  3357 ;; This function calls:
  3358 ;;		Nothing
  3359 ;; This function is called by:
  3360 ;;		_printf
  3361 ;; This function uses a non-reentrant model
  3362 ;;
  3363                           
  3364                           	psect	text3
  3365  001E3E                     __ptext3:
  3366                           	opt stack 0
  3367  001E3E                     _isdigit:
  3368                           	opt stack 26
  3369                           
  3370                           ;incstack = 0
  3371                           ;isdigit@c stored from wreg
  3372  001E3E  6E13               	movwf	isdigit@c,c
  3373  001E40  0E00               	movlw	0
  3374  001E42  6E12               	movwf	_isdigit$2286,c
  3375  001E44  0E3A               	movlw	58
  3376  001E46  6013               	cpfslt	isdigit@c,c
  3377  001E48  D006               	goto	l5784
  3378  001E4A  0E2F               	movlw	47
  3379  001E4C  6413               	cpfsgt	isdigit@c,c
  3380  001E4E  D003               	goto	l5784
  3381  001E50  0E01               	movlw	1
  3382  001E52  6E12               	movwf	_isdigit$2286,c
  3383  001E54  D000               	goto	l5784
  3384  001E56                     l5784:
  3385  001E56  C012  F011         	movff	_isdigit$2286,??_isdigit
  3386  001E5A  3011               	rrcf	??_isdigit,w,c
  3387  001E5C  D000               	goto	l1309
  3388  001E5E                     l1309:
  3389  001E5E  0012               	return		;funcret
  3390  001E60                     __end_of_isdigit:
  3391                           	opt stack 0
  3392                           tblptru	equ	0xFF8
  3393                           tblptrh	equ	0xFF7
  3394                           tblptrl	equ	0xFF6
  3395                           tablat	equ	0xFF5
  3396                           prodh	equ	0xFF4
  3397                           prodl	equ	0xFF3
  3398                           intcon2	equ	0xFF1
  3399                           postinc0	equ	0xFEE
  3400                           wreg	equ	0xFE8
  3401                           postdec1	equ	0xFE5
  3402                           fsr1l	equ	0xFE1
  3403                           indf2	equ	0xFDF
  3404                           postinc2	equ	0xFDE
  3405                           postdec2	equ	0xFDD
  3406                           fsr2h	equ	0xFDA
  3407                           fsr2l	equ	0xFD9
  3408                           status	equ	0xFD8
  3409                           
  3410 ;; *************** function ___lwmod *****************
  3411 ;; Defined at:
  3412 ;;		line 8 in file "C:\Program Files (x86)\Microchip\xc8\v1.34\sources\common\lwmod.c"
  3413 ;; Parameters:    Size  Location     Type
  3414 ;;  dividend        2   23[COMRAM] unsigned int 
  3415 ;;  divisor         2   25[COMRAM] unsigned int 
  3416 ;; Auto vars:     Size  Location     Type
  3417 ;;  counter         1   27[COMRAM] unsigned char 
  3418 ;; Return value:  Size  Location     Type
  3419 ;;                  2   23[COMRAM] unsigned int 
  3420 ;; Registers used:
  3421 ;;		wreg, status,2, status,0
  3422 ;; Tracked objects:
  3423 ;;		On entry : 0/0
  3424 ;;		On exit  : 0/0
  3425 ;;		Unchanged: 0/0
  3426 ;; Data sizes:     COMRAM   BANK0   BANK1   BANK2   BANK3   BANK4   BANK5   BANK6   BANK7   BANK8   BANK9  BANK10  BANK1
      +1  BANK12  BANK13  BANK14  BANK15
  3427 ;;      Params:         4       0       0       0       0       0       0       0       0       0       0       0       
      +0       0       0       0       0
  3428 ;;      Locals:         1       0       0       0       0       0       0       0       0       0       0       0       
      +0       0       0       0       0
  3429 ;;      Temps:          0       0       0       0       0       0       0       0       0       0       0       0       
      +0       0       0       0       0
  3430 ;;      Totals:         5       0       0       0       0       0       0       0       0       0       0       0       
      +0       0       0       0       0
  3431 ;;Total ram usage:        5 bytes
  3432 ;; Hardware stack levels used:    1
  3433 ;; Hardware stack levels required when called:    3
  3434 ;; This function calls:
  3435 ;;		Nothing
  3436 ;; This function is called by:
  3437 ;;		_printf
  3438 ;; This function uses a non-reentrant model
  3439 ;;
  3440                           
  3441                           	psect	text4
  3442  001AA2                     __ptext4:
  3443                           	opt stack 0
  3444  001AA2                     ___lwmod:
  3445                           	opt stack 26
  3446                           
  3447                           ;incstack = 0
  3448  001AA2  501A               	movf	___lwmod@divisor,w,c
  3449  001AA4  101B               	iorwf	___lwmod@divisor+1,w,c
  3450  001AA6  B4D8               	btfsc	status,2,c
  3451  001AA8  D01D               	goto	l1411
  3452  001AAA  0E01               	movlw	1
  3453  001AAC  6E1C               	movwf	___lwmod@counter,c
  3454  001AAE  D005               	goto	l5860
  3455  001AB0                     l5858:
  3456  001AB0  90D8               	bcf	status,0,c
  3457  001AB2  361A               	rlcf	___lwmod@divisor,f,c
  3458  001AB4  361B               	rlcf	___lwmod@divisor+1,f,c
  3459  001AB6  2A1C               	incf	___lwmod@counter,f,c
  3460  001AB8  D000               	goto	l5860
  3461  001ABA                     l5860:
  3462  001ABA  BE1B               	btfsc	___lwmod@divisor+1,7,c
  3463  001ABC  D002               	goto	l5862
  3464  001ABE  D7F8               	goto	l5858
  3465  001AC0  D000               	goto	l5862
  3466  001AC2                     l5862:
  3467  001AC2  501A               	movf	___lwmod@divisor,w,c
  3468  001AC4  5C18               	subwf	___lwmod@dividend,w,c
  3469  001AC6  501B               	movf	___lwmod@divisor+1,w,c
  3470  001AC8  5819               	subwfb	___lwmod@dividend+1,w,c
  3471  001ACA  A0D8               	btfss	status,0,c
  3472  001ACC  D005               	goto	l5866
  3473  001ACE  501A               	movf	___lwmod@divisor,w,c
  3474  001AD0  5E18               	subwf	___lwmod@dividend,f,c
  3475  001AD2  501B               	movf	___lwmod@divisor+1,w,c
  3476  001AD4  5A19               	subwfb	___lwmod@dividend+1,f,c
  3477  001AD6  D000               	goto	l5866
  3478  001AD8                     l5866:
  3479  001AD8  90D8               	bcf	status,0,c
  3480  001ADA  321B               	rrcf	___lwmod@divisor+1,f,c
  3481  001ADC  321A               	rrcf	___lwmod@divisor,f,c
  3482  001ADE  2E1C               	decfsz	___lwmod@counter,f,c
  3483  001AE0  D7F0               	goto	l5862
  3484  001AE2  D000               	goto	l1411
  3485  001AE4                     l1411:
  3486  001AE4  C018  F018         	movff	___lwmod@dividend,?___lwmod
  3487  001AE8  C019  F019         	movff	___lwmod@dividend+1,?___lwmod+1
  3488  001AEC  0012               	return		;funcret
  3489  001AEE                     __end_of___lwmod:
  3490                           	opt stack 0
  3491                           tblptru	equ	0xFF8
  3492                           tblptrh	equ	0xFF7
  3493                           tblptrl	equ	0xFF6
  3494                           tablat	equ	0xFF5
  3495                           prodh	equ	0xFF4
  3496                           prodl	equ	0xFF3
  3497                           intcon2	equ	0xFF1
  3498                           postinc0	equ	0xFEE
  3499                           wreg	equ	0xFE8
  3500                           postdec1	equ	0xFE5
  3501                           fsr1l	equ	0xFE1
  3502                           indf2	equ	0xFDF
  3503                           postinc2	equ	0xFDE
  3504                           postdec2	equ	0xFDD
  3505                           fsr2h	equ	0xFDA
  3506                           fsr2l	equ	0xFD9
  3507                           status	equ	0xFD8
  3508                           
  3509 ;; *************** function ___lwdiv *****************
  3510 ;; Defined at:
  3511 ;;		line 8 in file "C:\Program Files (x86)\Microchip\xc8\v1.34\sources\common\lwdiv.c"
  3512 ;; Parameters:    Size  Location     Type
  3513 ;;  dividend        2   16[COMRAM] unsigned int 
  3514 ;;  divisor         2   18[COMRAM] unsigned int 
  3515 ;; Auto vars:     Size  Location     Type
  3516 ;;  quotient        2   21[COMRAM] unsigned int 
  3517 ;;  counter         1   20[COMRAM] unsigned char 
  3518 ;; Return value:  Size  Location     Type
  3519 ;;                  2   16[COMRAM] unsigned int 
  3520 ;; Registers used:
  3521 ;;		wreg, status,2, status,0
  3522 ;; Tracked objects:
  3523 ;;		On entry : 0/0
  3524 ;;		On exit  : 0/0
  3525 ;;		Unchanged: 0/0
  3526 ;; Data sizes:     COMRAM   BANK0   BANK1   BANK2   BANK3   BANK4   BANK5   BANK6   BANK7   BANK8   BANK9  BANK10  BANK1
      +1  BANK12  BANK13  BANK14  BANK15
  3527 ;;      Params:         4       0       0       0       0       0       0       0       0       0       0       0       
      +0       0       0       0       0
  3528 ;;      Locals:         3       0       0       0       0       0       0       0       0       0       0       0       
      +0       0       0       0       0
  3529 ;;      Temps:          0       0       0       0       0       0       0       0       0       0       0       0       
      +0       0       0       0       0
  3530 ;;      Totals:         7       0       0       0       0       0       0       0       0       0       0       0       
      +0       0       0       0       0
  3531 ;;Total ram usage:        7 bytes
  3532 ;; Hardware stack levels used:    1
  3533 ;; Hardware stack levels required when called:    3
  3534 ;; This function calls:
  3535 ;;		Nothing
  3536 ;; This function is called by:
  3537 ;;		_printf
  3538 ;; This function uses a non-reentrant model
  3539 ;;
  3540                           
  3541                           	psect	text5
  3542  001954                     __ptext5:
  3543                           	opt stack 0
  3544  001954                     ___lwdiv:
  3545                           	opt stack 26
  3546                           
  3547                           ;incstack = 0
  3548  001954  0E00               	movlw	0
  3549  001956  6E17               	movwf	___lwdiv@quotient+1,c
  3550  001958  0E00               	movlw	0
  3551  00195A  6E16               	movwf	___lwdiv@quotient,c
  3552  00195C  5013               	movf	___lwdiv@divisor,w,c
  3553  00195E  1014               	iorwf	___lwdiv@divisor+1,w,c
  3554  001960  B4D8               	btfsc	status,2,c
  3555  001962  D021               	goto	l1401
  3556  001964  0E01               	movlw	1
  3557  001966  6E15               	movwf	___lwdiv@counter,c
  3558  001968  D005               	goto	l5840
  3559  00196A                     l5838:
  3560  00196A  90D8               	bcf	status,0,c
  3561  00196C  3613               	rlcf	___lwdiv@divisor,f,c
  3562  00196E  3614               	rlcf	___lwdiv@divisor+1,f,c
  3563  001970  2A15               	incf	___lwdiv@counter,f,c
  3564  001972  D000               	goto	l5840
  3565  001974                     l5840:
  3566  001974  BE14               	btfsc	___lwdiv@divisor+1,7,c
  3567  001976  D002               	goto	l5842
  3568  001978  D7F8               	goto	l5838
  3569  00197A  D000               	goto	l5842
  3570  00197C                     l5842:
  3571  00197C  90D8               	bcf	status,0,c
  3572  00197E  3616               	rlcf	___lwdiv@quotient,f,c
  3573  001980  3617               	rlcf	___lwdiv@quotient+1,f,c
  3574  001982  5013               	movf	___lwdiv@divisor,w,c
  3575  001984  5C11               	subwf	___lwdiv@dividend,w,c
  3576  001986  5014               	movf	___lwdiv@divisor+1,w,c
  3577  001988  5812               	subwfb	___lwdiv@dividend+1,w,c
  3578  00198A  A0D8               	btfss	status,0,c
  3579  00198C  D006               	goto	l5850
  3580  00198E  5013               	movf	___lwdiv@divisor,w,c
  3581  001990  5E11               	subwf	___lwdiv@dividend,f,c
  3582  001992  5014               	movf	___lwdiv@divisor+1,w,c
  3583  001994  5A12               	subwfb	___lwdiv@dividend+1,f,c
  3584  001996  8016               	bsf	___lwdiv@quotient,0,c
  3585  001998  D000               	goto	l5850
  3586  00199A                     l5850:
  3587  00199A  90D8               	bcf	status,0,c
  3588  00199C  3214               	rrcf	___lwdiv@divisor+1,f,c
  3589  00199E  3213               	rrcf	___lwdiv@divisor,f,c
  3590  0019A0  2E15               	decfsz	___lwdiv@counter,f,c
  3591  0019A2  D7EC               	goto	l5842
  3592  0019A4  D000               	goto	l1401
  3593  0019A6                     l1401:
  3594  0019A6  C016  F011         	movff	___lwdiv@quotient,?___lwdiv
  3595  0019AA  C017  F012         	movff	___lwdiv@quotient+1,?___lwdiv+1
  3596  0019AE  0012               	return		;funcret
  3597  0019B0                     __end_of___lwdiv:
  3598                           	opt stack 0
  3599                           tblptru	equ	0xFF8
  3600                           tblptrh	equ	0xFF7
  3601                           tblptrl	equ	0xFF6
  3602                           tablat	equ	0xFF5
  3603                           prodh	equ	0xFF4
  3604                           prodl	equ	0xFF3
  3605                           intcon2	equ	0xFF1
  3606                           postinc0	equ	0xFEE
  3607                           wreg	equ	0xFE8
  3608                           postdec1	equ	0xFE5
  3609                           fsr1l	equ	0xFE1
  3610                           indf2	equ	0xFDF
  3611                           postinc2	equ	0xFDE
  3612                           postdec2	equ	0xFDD
  3613                           fsr2h	equ	0xFDA
  3614                           fsr2l	equ	0xFD9
  3615                           status	equ	0xFD8
  3616                           
  3617 ;; *************** function _get_RPM *****************
  3618 ;; Defined at:
  3619 ;;		line 10 in file "../Fan_Support.c"
  3620 ;; Parameters:    Size  Location     Type
  3621 ;;		None
  3622 ;; Auto vars:     Size  Location     Type
  3623 ;;  RPS             2   32[COMRAM] int 
  3624 ;; Return value:  Size  Location     Type
  3625 ;;                  2   30[COMRAM] int 
  3626 ;; Registers used:
  3627 ;;		wreg, status,2, status,0, prodl, prodh, cstack
  3628 ;; Tracked objects:
  3629 ;;		On entry : 0/0
  3630 ;;		On exit  : 0/0
  3631 ;;		Unchanged: 0/0
  3632 ;; Data sizes:     COMRAM   BANK0   BANK1   BANK2   BANK3   BANK4   BANK5   BANK6   BANK7   BANK8   BANK9  BANK10  BANK1
      +1  BANK12  BANK13  BANK14  BANK15
  3633 ;;      Params:         2       0       0       0       0       0       0       0       0       0       0       0       
      +0       0       0       0       0
  3634 ;;      Locals:         2       0       0       0       0       0       0       0       0       0       0       0       
      +0       0       0       0       0
  3635 ;;      Temps:          0       0       0       0       0       0       0       0       0       0       0       0       
      +0       0       0       0       0
  3636 ;;      Totals:         4       0       0       0       0       0       0       0       0       0       0       0       
      +0       0       0       0       0
  3637 ;;Total ram usage:        4 bytes
  3638 ;; Hardware stack levels used:    1
  3639 ;; Hardware stack levels required when called:    4
  3640 ;; This function calls:
  3641 ;;		___awdiv
  3642 ;;		___wmul
  3643 ;; This function is called by:
  3644 ;;		_main
  3645 ;; This function uses a non-reentrant model
  3646 ;;
  3647                           
  3648                           	psect	text6
  3649  001C0C                     __ptext6:
  3650                           	opt stack 0
  3651  001C0C                     _get_RPM:
  3652                           	opt stack 26
  3653                           
  3654                           ;Fan_Support.c: 12: int RPS = TMR3L / 2;
  3655                           
  3656                           ;incstack = 0
  3657  001C0C  CFB2 F017          	movff	4018,___awdiv@dividend	;volatile
  3658  001C10  6A18               	clrf	___awdiv@dividend+1,c
  3659  001C12  0E00               	movlw	0
  3660  001C14  6E1A               	movwf	___awdiv@divisor+1,c
  3661  001C16  0E02               	movlw	2
  3662  001C18  6E19               	movwf	___awdiv@divisor,c
  3663  001C1A  EC8A  F00A         	call	___awdiv	;wreg free
  3664  001C1E  C017  F021         	movff	?___awdiv,get_RPM@RPS
  3665  001C22  C018  F022         	movff	?___awdiv+1,get_RPM@RPS+1
  3666                           
  3667                           ;Fan_Support.c: 14: TMR3L = 0;
  3668  001C26  0E00               	movlw	0
  3669  001C28  6EB2               	movwf	4018,c	;volatile
  3670                           
  3671                           ;Fan_Support.c: 15: return (RPS * 60);
  3672  001C2A  C021  F011         	movff	get_RPM@RPS,___wmul@multiplier
  3673  001C2E  C022  F012         	movff	get_RPM@RPS+1,___wmul@multiplier+1
  3674  001C32  0E00               	movlw	0
  3675  001C34  6E14               	movwf	___wmul@multiplicand+1,c
  3676  001C36  0E3C               	movlw	60
  3677  001C38  6E13               	movwf	___wmul@multiplicand,c
  3678  001C3A  ECE6  F00E         	call	___wmul	;wreg free
  3679  001C3E  C011  F01F         	movff	?___wmul,?_get_RPM
  3680  001C42  C012  F020         	movff	?___wmul+1,?_get_RPM+1
  3681  001C46  D000               	goto	l29
  3682  001C48                     l29:
  3683  001C48  0012               	return		;funcret
  3684  001C4A                     __end_of_get_RPM:
  3685                           	opt stack 0
  3686                           tblptru	equ	0xFF8
  3687                           tblptrh	equ	0xFF7
  3688                           tblptrl	equ	0xFF6
  3689                           tablat	equ	0xFF5
  3690                           prodh	equ	0xFF4
  3691                           prodl	equ	0xFF3
  3692                           intcon2	equ	0xFF1
  3693                           postinc0	equ	0xFEE
  3694                           wreg	equ	0xFE8
  3695                           postdec1	equ	0xFE5
  3696                           fsr1l	equ	0xFE1
  3697                           indf2	equ	0xFDF
  3698                           postinc2	equ	0xFDE
  3699                           postdec2	equ	0xFDD
  3700                           fsr2h	equ	0xFDA
  3701                           fsr2l	equ	0xFD9
  3702                           status	equ	0xFD8
  3703                           
  3704 ;; *************** function _fillCircle *****************
  3705 ;; Defined at:
  3706 ;;		line 561 in file "../ST7735_TFT.c"
  3707 ;; Parameters:    Size  Location     Type
  3708 ;;  x0              2   58[COMRAM] int 
  3709 ;;  y0              2   60[COMRAM] int 
  3710 ;;  r               2   62[COMRAM] int 
  3711 ;;  color           2   64[COMRAM] unsigned int 
  3712 ;; Auto vars:     Size  Location     Type
  3713 ;;		None
  3714 ;; Return value:  Size  Location     Type
  3715 ;;		None               void
  3716 ;; Registers used:
  3717 ;;		wreg, status,2, status,0, cstack
  3718 ;; Tracked objects:
  3719 ;;		On entry : 0/0
  3720 ;;		On exit  : 0/0
  3721 ;;		Unchanged: 0/0
  3722 ;; Data sizes:     COMRAM   BANK0   BANK1   BANK2   BANK3   BANK4   BANK5   BANK6   BANK7   BANK8   BANK9  BANK10  BANK1
      +1  BANK12  BANK13  BANK14  BANK15
  3723 ;;      Params:         8       0       0       0       0       0       0       0       0       0       0       0       
      +0       0       0       0       0
  3724 ;;      Locals:         0       0       0       0       0       0       0       0       0       0       0       0       
      +0       0       0       0       0
  3725 ;;      Temps:          0       0       0       0       0       0       0       0       0       0       0       0       
      +0       0       0       0       0
  3726 ;;      Totals:         8       0       0       0       0       0       0       0       0       0       0       0       
      +0       0       0       0       0
  3727 ;;Total ram usage:        8 bytes
  3728 ;; Hardware stack levels used:    1
  3729 ;; Hardware stack levels required when called:    8
  3730 ;; This function calls:
  3731 ;;		_drawFastVLine
  3732 ;;		_fillCircleHelper
  3733 ;; This function is called by:
  3734 ;;		_main
  3735 ;; This function uses a non-reentrant model
  3736 ;;
  3737                           
  3738                           	psect	text7
  3739  0019B0                     __ptext7:
  3740                           	opt stack 0
  3741  0019B0                     _fillCircle:
  3742                           	opt stack 22
  3743                           
  3744                           ;ST7735_TFT.c: 563: drawFastVLine(x0, y0 - r, 2 * r + 1, color);
  3745                           
  3746                           ;incstack = 0
  3747  0019B0  503F               	movf	fillCircle@r,w,c
  3748  0019B2  0800               	sublw	0
  3749  0019B4  243D               	addwf	fillCircle@y0,w,c
  3750  0019B6  6E18               	movwf	drawFastVLine@y,c
  3751  0019B8  80D8               	bsf	status,0,c
  3752  0019BA  343F               	rlcf	fillCircle@r,w,c
  3753  0019BC  6E19               	movwf	drawFastVLine@h,c
  3754  0019BE  C041  F01A         	movff	fillCircle@color,drawFastVLine@color
  3755  0019C2  C042  F01B         	movff	fillCircle@color+1,drawFastVLine@color+1
  3756  0019C6  503B               	movf	fillCircle@x0,w,c
  3757  0019C8  ECD5  F00A         	call	_drawFastVLine
  3758                           
  3759                           ;ST7735_TFT.c: 564: fillCircleHelper(x0, y0, r, 3, 0, color);
  3760  0019CC  C03B  F023         	movff	fillCircle@x0,fillCircleHelper@x0
  3761  0019D0  C03C  F024         	movff	fillCircle@x0+1,fillCircleHelper@x0+1
  3762  0019D4  C03D  F025         	movff	fillCircle@y0,fillCircleHelper@y0
  3763  0019D8  C03E  F026         	movff	fillCircle@y0+1,fillCircleHelper@y0+1
  3764  0019DC  C03F  F027         	movff	fillCircle@r,fillCircleHelper@r
  3765  0019E0  C040  F028         	movff	fillCircle@r+1,fillCircleHelper@r+1
  3766  0019E4  0E00               	movlw	0
  3767  0019E6  6E2A               	movwf	fillCircleHelper@cornername+1,c
  3768  0019E8  0E03               	movlw	3
  3769  0019EA  6E29               	movwf	fillCircleHelper@cornername,c
  3770  0019EC  0E00               	movlw	0
  3771  0019EE  6E2C               	movwf	fillCircleHelper@delta+1,c
  3772  0019F0  0E00               	movlw	0
  3773  0019F2  6E2B               	movwf	fillCircleHelper@delta,c
  3774  0019F4  C041  F02D         	movff	fillCircle@color,fillCircleHelper@color
  3775  0019F8  C042  F02E         	movff	fillCircle@color+1,fillCircleHelper@color+1
  3776  0019FC  EC84  F005         	call	_fillCircleHelper	;wreg free
  3777  001A00  0012               	return		;funcret
  3778  001A02                     __end_of_fillCircle:
  3779                           	opt stack 0
  3780                           tblptru	equ	0xFF8
  3781                           tblptrh	equ	0xFF7
  3782                           tblptrl	equ	0xFF6
  3783                           tablat	equ	0xFF5
  3784                           prodh	equ	0xFF4
  3785                           prodl	equ	0xFF3
  3786                           intcon2	equ	0xFF1
  3787                           postinc0	equ	0xFEE
  3788                           wreg	equ	0xFE8
  3789                           postdec1	equ	0xFE5
  3790                           fsr1l	equ	0xFE1
  3791                           indf2	equ	0xFDF
  3792                           postinc2	equ	0xFDE
  3793                           postdec2	equ	0xFDD
  3794                           fsr2h	equ	0xFDA
  3795                           fsr2l	equ	0xFD9
  3796                           status	equ	0xFD8
  3797                           
  3798 ;; *************** function _fillCircleHelper *****************
  3799 ;; Defined at:
  3800 ;;		line 536 in file "../ST7735_TFT.c"
  3801 ;; Parameters:    Size  Location     Type
  3802 ;;  x0              2   34[COMRAM] int 
  3803 ;;  y0              2   36[COMRAM] int 
  3804 ;;  r               2   38[COMRAM] int 
  3805 ;;  cornername      2   40[COMRAM] unsigned int 
  3806 ;;  delta           2   42[COMRAM] int 
  3807 ;;  color           2   44[COMRAM] unsigned int 
  3808 ;; Auto vars:     Size  Location     Type
  3809 ;;  y               2   56[COMRAM] int 
  3810 ;;  x               2   54[COMRAM] int 
  3811 ;;  f               2   52[COMRAM] int 
  3812 ;;  ddF_y           2   50[COMRAM] int 
  3813 ;;  ddF_x           2   48[COMRAM] int 
  3814 ;; Return value:  Size  Location     Type
  3815 ;;		None               void
  3816 ;; Registers used:
  3817 ;;		wreg, status,2, status,0, cstack
  3818 ;; Tracked objects:
  3819 ;;		On entry : 0/0
  3820 ;;		On exit  : 0/0
  3821 ;;		Unchanged: 0/0
  3822 ;; Data sizes:     COMRAM   BANK0   BANK1   BANK2   BANK3   BANK4   BANK5   BANK6   BANK7   BANK8   BANK9  BANK10  BANK1
      +1  BANK12  BANK13  BANK14  BANK15
  3823 ;;      Params:        12       0       0       0       0       0       0       0       0       0       0       0       
      +0       0       0       0       0
  3824 ;;      Locals:        10       0       0       0       0       0       0       0       0       0       0       0       
      +0       0       0       0       0
  3825 ;;      Temps:          2       0       0       0       0       0       0       0       0       0       0       0       
      +0       0       0       0       0
  3826 ;;      Totals:        24       0       0       0       0       0       0       0       0       0       0       0       
      +0       0       0       0       0
  3827 ;;Total ram usage:       24 bytes
  3828 ;; Hardware stack levels used:    1
  3829 ;; Hardware stack levels required when called:    7
  3830 ;; This function calls:
  3831 ;;		_drawFastVLine
  3832 ;; This function is called by:
  3833 ;;		_fillCircle
  3834 ;; This function uses a non-reentrant model
  3835 ;;
  3836                           
  3837                           	psect	text8
  3838  000B08                     __ptext8:
  3839                           	opt stack 0
  3840  000B08                     _fillCircleHelper:
  3841                           	opt stack 22
  3842                           
  3843                           ;ST7735_TFT.c: 538: signed int f, ddF_x, ddF_y, x, y;
  3844                           ;ST7735_TFT.c: 539: f = 1 - r, ddF_x = 1, ddF_y = -2 * r, x = 0, y = r;
  3845                           
  3846                           ;incstack = 0
  3847  000B08  C027  F02F         	movff	fillCircleHelper@r,??_fillCircleHelper
  3848  000B0C  C028  F030         	movff	fillCircleHelper@r+1,??_fillCircleHelper+1
  3849  000B10  1E2F               	comf	??_fillCircleHelper,f,c
  3850  000B12  1E30               	comf	??_fillCircleHelper+1,f,c
  3851  000B14  4A2F               	infsnz	??_fillCircleHelper,f,c
  3852  000B16  2A30               	incf	??_fillCircleHelper+1,f,c
  3853  000B18  0E01               	movlw	1
  3854  000B1A  242F               	addwf	??_fillCircleHelper,w,c
  3855  000B1C  6E35               	movwf	fillCircleHelper@f,c
  3856  000B1E  0E00               	movlw	0
  3857  000B20  2030               	addwfc	??_fillCircleHelper+1,w,c
  3858  000B22  6E36               	movwf	fillCircleHelper@f+1,c
  3859  000B24  0E00               	movlw	0
  3860  000B26  6E32               	movwf	fillCircleHelper@ddF_x+1,c
  3861  000B28  0E01               	movlw	1
  3862  000B2A  6E31               	movwf	fillCircleHelper@ddF_x,c
  3863  000B2C  C027  F02F         	movff	fillCircleHelper@r,??_fillCircleHelper
  3864  000B30  C028  F030         	movff	fillCircleHelper@r+1,??_fillCircleHelper+1
  3865  000B34  90D8               	bcf	status,0,c
  3866  000B36  362F               	rlcf	??_fillCircleHelper,f,c
  3867  000B38  3630               	rlcf	??_fillCircleHelper+1,f,c
  3868  000B3A  1E2F               	comf	??_fillCircleHelper,f,c
  3869  000B3C  1E30               	comf	??_fillCircleHelper+1,f,c
  3870  000B3E  4A2F               	infsnz	??_fillCircleHelper,f,c
  3871  000B40  2A30               	incf	??_fillCircleHelper+1,f,c
  3872  000B42  C02F  F033         	movff	??_fillCircleHelper,fillCircleHelper@ddF_y
  3873  000B46  C030  F034         	movff	??_fillCircleHelper+1,fillCircleHelper@ddF_y+1
  3874  000B4A  0E00               	movlw	0
  3875  000B4C  6E38               	movwf	fillCircleHelper@x+1,c
  3876  000B4E  0E00               	movlw	0
  3877  000B50  6E37               	movwf	fillCircleHelper@x,c
  3878  000B52  C027  F039         	movff	fillCircleHelper@r,fillCircleHelper@y
  3879  000B56  C028  F03A         	movff	fillCircleHelper@r+1,fillCircleHelper@y+1
  3880                           
  3881                           ;ST7735_TFT.c: 540: while (x<y) {
  3882  000B5A  D067               	goto	l5720
  3883  000B5C                     l5700:
  3884                           
  3885                           ;ST7735_TFT.c: 541: if (f >= 0) {
  3886  000B5C  BE36               	btfsc	fillCircleHelper@f+1,7,c
  3887  000B5E  D00B               	goto	l462
  3888                           
  3889                           ;ST7735_TFT.c: 542: y--;
  3890  000B60  0639               	decf	fillCircleHelper@y,f,c
  3891  000B62  A0D8               	btfss	status,0,c
  3892  000B64  063A               	decf	fillCircleHelper@y+1,f,c
  3893                           
  3894                           ;ST7735_TFT.c: 543: ddF_y += 2;
  3895  000B66  0E02               	movlw	2
  3896  000B68  2633               	addwf	fillCircleHelper@ddF_y,f,c
  3897  000B6A  0E00               	movlw	0
  3898  000B6C  2234               	addwfc	fillCircleHelper@ddF_y+1,f,c
  3899                           
  3900                           ;ST7735_TFT.c: 544: f += ddF_y;
  3901  000B6E  5033               	movf	fillCircleHelper@ddF_y,w,c
  3902  000B70  2635               	addwf	fillCircleHelper@f,f,c
  3903  000B72  5034               	movf	fillCircleHelper@ddF_y+1,w,c
  3904  000B74  2236               	addwfc	fillCircleHelper@f+1,f,c
  3905  000B76                     l462:
  3906                           
  3907                           ;ST7735_TFT.c: 545: }
  3908                           ;ST7735_TFT.c: 546: x++;
  3909  000B76  4A37               	infsnz	fillCircleHelper@x,f,c
  3910  000B78  2A38               	incf	fillCircleHelper@x+1,f,c
  3911                           
  3912                           ;ST7735_TFT.c: 547: ddF_x += 2;
  3913  000B7A  0E02               	movlw	2
  3914  000B7C  2631               	addwf	fillCircleHelper@ddF_x,f,c
  3915  000B7E  0E00               	movlw	0
  3916  000B80  2232               	addwfc	fillCircleHelper@ddF_x+1,f,c
  3917                           
  3918                           ;ST7735_TFT.c: 548: f += ddF_x;
  3919  000B82  5031               	movf	fillCircleHelper@ddF_x,w,c
  3920  000B84  2635               	addwf	fillCircleHelper@f,f,c
  3921  000B86  5032               	movf	fillCircleHelper@ddF_x+1,w,c
  3922  000B88  2236               	addwfc	fillCircleHelper@f+1,f,c
  3923                           
  3924                           ;ST7735_TFT.c: 550: if (cornername & 0x1) {
  3925  000B8A  A029               	btfss	fillCircleHelper@cornername,0,c
  3926  000B8C  D025               	goto	l5716
  3927                           
  3928                           ;ST7735_TFT.c: 551: drawFastVLine(x0+x, y0-y, 2*y+1+delta, color);
  3929  000B8E  5039               	movf	fillCircleHelper@y,w,c
  3930  000B90  0800               	sublw	0
  3931  000B92  2425               	addwf	fillCircleHelper@y0,w,c
  3932  000B94  6E18               	movwf	drawFastVLine@y,c
  3933  000B96  5039               	movf	fillCircleHelper@y,w,c
  3934  000B98  2439               	addwf	fillCircleHelper@y,w,c
  3935  000B9A  242B               	addwf	fillCircleHelper@delta,w,c
  3936  000B9C  6E2F               	movwf	??_fillCircleHelper& (0+255),c
  3937  000B9E  282F               	incf	??_fillCircleHelper,w,c
  3938  000BA0  6E19               	movwf	drawFastVLine@h,c
  3939  000BA2  C02D  F01A         	movff	fillCircleHelper@color,drawFastVLine@color
  3940  000BA6  C02E  F01B         	movff	fillCircleHelper@color+1,drawFastVLine@color+1
  3941  000BAA  5023               	movf	fillCircleHelper@x0,w,c
  3942  000BAC  2437               	addwf	fillCircleHelper@x,w,c
  3943  000BAE  ECD5  F00A         	call	_drawFastVLine
  3944                           
  3945                           ;ST7735_TFT.c: 552: drawFastVLine(x0+y, y0-x, 2*x+1+delta, color);
  3946  000BB2  5037               	movf	fillCircleHelper@x,w,c
  3947  000BB4  0800               	sublw	0
  3948  000BB6  2425               	addwf	fillCircleHelper@y0,w,c
  3949  000BB8  6E18               	movwf	drawFastVLine@y,c
  3950  000BBA  5037               	movf	fillCircleHelper@x,w,c
  3951  000BBC  2437               	addwf	fillCircleHelper@x,w,c
  3952  000BBE  242B               	addwf	fillCircleHelper@delta,w,c
  3953  000BC0  6E2F               	movwf	??_fillCircleHelper& (0+255),c
  3954  000BC2  282F               	incf	??_fillCircleHelper,w,c
  3955  000BC4  6E19               	movwf	drawFastVLine@h,c
  3956  000BC6  C02D  F01A         	movff	fillCircleHelper@color,drawFastVLine@color
  3957  000BCA  C02E  F01B         	movff	fillCircleHelper@color+1,drawFastVLine@color+1
  3958  000BCE  5023               	movf	fillCircleHelper@x0,w,c
  3959  000BD0  2439               	addwf	fillCircleHelper@y,w,c
  3960  000BD2  ECD5  F00A         	call	_drawFastVLine
  3961  000BD6  D000               	goto	l5716
  3962  000BD8                     l5716:
  3963                           
  3964                           ;ST7735_TFT.c: 553: }
  3965                           ;ST7735_TFT.c: 554: if (cornername & 0x2) {
  3966  000BD8  A229               	btfss	fillCircleHelper@cornername,1,c
  3967  000BDA  D027               	goto	l5720
  3968                           
  3969                           ;ST7735_TFT.c: 555: drawFastVLine(x0-x, y0-y, 2*y+1+delta, color);
  3970  000BDC  5039               	movf	fillCircleHelper@y,w,c
  3971  000BDE  0800               	sublw	0
  3972  000BE0  2425               	addwf	fillCircleHelper@y0,w,c
  3973  000BE2  6E18               	movwf	drawFastVLine@y,c
  3974  000BE4  5039               	movf	fillCircleHelper@y,w,c
  3975  000BE6  2439               	addwf	fillCircleHelper@y,w,c
  3976  000BE8  242B               	addwf	fillCircleHelper@delta,w,c
  3977  000BEA  6E2F               	movwf	??_fillCircleHelper& (0+255),c
  3978  000BEC  282F               	incf	??_fillCircleHelper,w,c
  3979  000BEE  6E19               	movwf	drawFastVLine@h,c
  3980  000BF0  C02D  F01A         	movff	fillCircleHelper@color,drawFastVLine@color
  3981  000BF4  C02E  F01B         	movff	fillCircleHelper@color+1,drawFastVLine@color+1
  3982  000BF8  5037               	movf	fillCircleHelper@x,w,c
  3983  000BFA  0800               	sublw	0
  3984  000BFC  2423               	addwf	fillCircleHelper@x0,w,c
  3985  000BFE  ECD5  F00A         	call	_drawFastVLine
  3986                           
  3987                           ;ST7735_TFT.c: 556: drawFastVLine(x0-y, y0-x, 2*x+1+delta, color);
  3988  000C02  5037               	movf	fillCircleHelper@x,w,c
  3989  000C04  0800               	sublw	0
  3990  000C06  2425               	addwf	fillCircleHelper@y0,w,c
  3991  000C08  6E18               	movwf	drawFastVLine@y,c
  3992  000C0A  5037               	movf	fillCircleHelper@x,w,c
  3993  000C0C  2437               	addwf	fillCircleHelper@x,w,c
  3994  000C0E  242B               	addwf	fillCircleHelper@delta,w,c
  3995  000C10  6E2F               	movwf	??_fillCircleHelper& (0+255),c
  3996  000C12  282F               	incf	??_fillCircleHelper,w,c
  3997  000C14  6E19               	movwf	drawFastVLine@h,c
  3998  000C16  C02D  F01A         	movff	fillCircleHelper@color,drawFastVLine@color
  3999  000C1A  C02E  F01B         	movff	fillCircleHelper@color+1,drawFastVLine@color+1
  4000  000C1E  5039               	movf	fillCircleHelper@y,w,c
  4001  000C20  0800               	sublw	0
  4002  000C22  2423               	addwf	fillCircleHelper@x0,w,c
  4003  000C24  ECD5  F00A         	call	_drawFastVLine
  4004  000C28  D000               	goto	l5720
  4005  000C2A                     l5720:
  4006  000C2A  5039               	movf	fillCircleHelper@y,w,c
  4007  000C2C  5C37               	subwf	fillCircleHelper@x,w,c
  4008  000C2E  5038               	movf	fillCircleHelper@x+1,w,c
  4009  000C30  0A80               	xorlw	128
  4010  000C32  6E2F               	movwf	??_fillCircleHelper& (0+255),c
  4011  000C34  503A               	movf	fillCircleHelper@y+1,w,c
  4012  000C36  0A80               	xorlw	128
  4013  000C38  582F               	subwfb	??_fillCircleHelper& (0+255),w,c
  4014  000C3A  A0D8               	btfss	status,0,c
  4015  000C3C  D78F               	goto	l5700
  4016  000C3E  0012               	return		;funcret
  4017  000C40                     __end_of_fillCircleHelper:
  4018                           	opt stack 0
  4019                           tblptru	equ	0xFF8
  4020                           tblptrh	equ	0xFF7
  4021                           tblptrl	equ	0xFF6
  4022                           tablat	equ	0xFF5
  4023                           prodh	equ	0xFF4
  4024                           prodl	equ	0xFF3
  4025                           intcon2	equ	0xFF1
  4026                           postinc0	equ	0xFEE
  4027                           wreg	equ	0xFE8
  4028                           postdec1	equ	0xFE5
  4029                           fsr1l	equ	0xFE1
  4030                           indf2	equ	0xFDF
  4031                           postinc2	equ	0xFDE
  4032                           postdec2	equ	0xFDD
  4033                           fsr2h	equ	0xFDA
  4034                           fsr2l	equ	0xFD9
  4035                           status	equ	0xFD8
  4036                           
  4037 ;; *************** function _drawCircle *****************
  4038 ;; Defined at:
  4039 ;;		line 475 in file "../ST7735_TFT.c"
  4040 ;; Parameters:    Size  Location     Type
  4041 ;;  x0              2   27[COMRAM] int 
  4042 ;;  y0              2   29[COMRAM] int 
  4043 ;;  r               2   31[COMRAM] int 
  4044 ;;  color           2   33[COMRAM] unsigned int 
  4045 ;; Auto vars:     Size  Location     Type
  4046 ;;  y               2   45[COMRAM] int 
  4047 ;;  x               2   43[COMRAM] int 
  4048 ;;  f               2   41[COMRAM] int 
  4049 ;;  ddF_y           2   39[COMRAM] int 
  4050 ;;  ddF_x           2   37[COMRAM] int 
  4051 ;; Return value:  Size  Location     Type
  4052 ;;		None               void
  4053 ;; Registers used:
  4054 ;;		wreg, status,2, status,0, cstack
  4055 ;; Tracked objects:
  4056 ;;		On entry : 0/0
  4057 ;;		On exit  : 0/0
  4058 ;;		Unchanged: 0/0
  4059 ;; Data sizes:     COMRAM   BANK0   BANK1   BANK2   BANK3   BANK4   BANK5   BANK6   BANK7   BANK8   BANK9  BANK10  BANK1
      +1  BANK12  BANK13  BANK14  BANK15
  4060 ;;      Params:         8       0       0       0       0       0       0       0       0       0       0       0       
      +0       0       0       0       0
  4061 ;;      Locals:        10       0       0       0       0       0       0       0       0       0       0       0       
      +0       0       0       0       0
  4062 ;;      Temps:          2       0       0       0       0       0       0       0       0       0       0       0       
      +0       0       0       0       0
  4063 ;;      Totals:        20       0       0       0       0       0       0       0       0       0       0       0       
      +0       0       0       0       0
  4064 ;;Total ram usage:       20 bytes
  4065 ;; Hardware stack levels used:    1
  4066 ;; Hardware stack levels required when called:    7
  4067 ;; This function calls:
  4068 ;;		_drawPixel
  4069 ;; This function is called by:
  4070 ;;		_main
  4071 ;; This function uses a non-reentrant model
  4072 ;;
  4073                           
  4074                           	psect	text9
  4075  00068A                     __ptext9:
  4076                           	opt stack 0
  4077  00068A                     _drawCircle:
  4078                           	opt stack 23
  4079                           
  4080                           ;ST7735_TFT.c: 477: signed int f, ddF_x, ddF_y, x, y;
  4081                           ;ST7735_TFT.c: 478: f = 1 - r, ddF_x = 1, ddF_y = -2 * r, x = 0, y = r;
  4082                           
  4083                           ;incstack = 0
  4084  00068A  C020  F024         	movff	drawCircle@r,??_drawCircle
  4085  00068E  C021  F025         	movff	drawCircle@r+1,??_drawCircle+1
  4086  000692  1E24               	comf	??_drawCircle,f,c
  4087  000694  1E25               	comf	??_drawCircle+1,f,c
  4088  000696  4A24               	infsnz	??_drawCircle,f,c
  4089  000698  2A25               	incf	??_drawCircle+1,f,c
  4090  00069A  0E01               	movlw	1
  4091  00069C  2424               	addwf	??_drawCircle,w,c
  4092  00069E  6E2A               	movwf	drawCircle@f,c
  4093  0006A0  0E00               	movlw	0
  4094  0006A2  2025               	addwfc	??_drawCircle+1,w,c
  4095  0006A4  6E2B               	movwf	drawCircle@f+1,c
  4096  0006A6  0E00               	movlw	0
  4097  0006A8  6E27               	movwf	drawCircle@ddF_x+1,c
  4098  0006AA  0E01               	movlw	1
  4099  0006AC  6E26               	movwf	drawCircle@ddF_x,c
  4100  0006AE  C020  F024         	movff	drawCircle@r,??_drawCircle
  4101  0006B2  C021  F025         	movff	drawCircle@r+1,??_drawCircle+1
  4102  0006B6  90D8               	bcf	status,0,c
  4103  0006B8  3624               	rlcf	??_drawCircle,f,c
  4104  0006BA  3625               	rlcf	??_drawCircle+1,f,c
  4105  0006BC  1E24               	comf	??_drawCircle,f,c
  4106  0006BE  1E25               	comf	??_drawCircle+1,f,c
  4107  0006C0  4A24               	infsnz	??_drawCircle,f,c
  4108  0006C2  2A25               	incf	??_drawCircle+1,f,c
  4109  0006C4  C024  F028         	movff	??_drawCircle,drawCircle@ddF_y
  4110  0006C8  C025  F029         	movff	??_drawCircle+1,drawCircle@ddF_y+1
  4111  0006CC  0E00               	movlw	0
  4112  0006CE  6E2D               	movwf	drawCircle@x+1,c
  4113  0006D0  0E00               	movlw	0
  4114  0006D2  6E2C               	movwf	drawCircle@x,c
  4115  0006D4  C020  F02E         	movff	drawCircle@r,drawCircle@y
  4116  0006D8  C021  F02F         	movff	drawCircle@r+1,drawCircle@y+1
  4117                           
  4118                           ;ST7735_TFT.c: 479: drawPixel(x0 , y0 + r, color);
  4119  0006DC  501E               	movf	drawCircle@y0,w,c
  4120  0006DE  2420               	addwf	drawCircle@r,w,c
  4121  0006E0  6E18               	movwf	drawPixel@y,c
  4122  0006E2  C022  F019         	movff	drawCircle@color,drawPixel@color
  4123  0006E6  C023  F01A         	movff	drawCircle@color+1,drawPixel@color+1
  4124  0006EA  501C               	movf	drawCircle@x0,w,c
  4125  0006EC  ECB9  F00E         	call	_drawPixel
  4126                           
  4127                           ;ST7735_TFT.c: 480: drawPixel(x0 , y0 - r, color);
  4128  0006F0  5020               	movf	drawCircle@r,w,c
  4129  0006F2  0800               	sublw	0
  4130  0006F4  241E               	addwf	drawCircle@y0,w,c
  4131  0006F6  6E18               	movwf	drawPixel@y,c
  4132  0006F8  C022  F019         	movff	drawCircle@color,drawPixel@color
  4133  0006FC  C023  F01A         	movff	drawCircle@color+1,drawPixel@color+1
  4134  000700  501C               	movf	drawCircle@x0,w,c
  4135  000702  ECB9  F00E         	call	_drawPixel
  4136                           
  4137                           ;ST7735_TFT.c: 481: drawPixel(x0+r, y0 , color);
  4138  000706  C01E  F018         	movff	drawCircle@y0,drawPixel@y
  4139  00070A  C022  F019         	movff	drawCircle@color,drawPixel@color
  4140  00070E  C023  F01A         	movff	drawCircle@color+1,drawPixel@color+1
  4141  000712  501C               	movf	drawCircle@x0,w,c
  4142  000714  2420               	addwf	drawCircle@r,w,c
  4143  000716  ECB9  F00E         	call	_drawPixel
  4144                           
  4145                           ;ST7735_TFT.c: 482: drawPixel(x0-r, y0 , color);
  4146  00071A  C01E  F018         	movff	drawCircle@y0,drawPixel@y
  4147  00071E  C022  F019         	movff	drawCircle@color,drawPixel@color
  4148  000722  C023  F01A         	movff	drawCircle@color+1,drawPixel@color+1
  4149  000726  5020               	movf	drawCircle@r,w,c
  4150  000728  0800               	sublw	0
  4151  00072A  241C               	addwf	drawCircle@x0,w,c
  4152  00072C  ECB9  F00E         	call	_drawPixel
  4153                           
  4154                           ;ST7735_TFT.c: 483: while (x < y) {
  4155  000730  D078               	goto	l6084
  4156  000732                     l6056:
  4157                           
  4158                           ;ST7735_TFT.c: 484: if (f >= 0) {
  4159  000732  BE2B               	btfsc	drawCircle@f+1,7,c
  4160  000734  D00B               	goto	l444
  4161                           
  4162                           ;ST7735_TFT.c: 485: y--;
  4163  000736  062E               	decf	drawCircle@y,f,c
  4164  000738  A0D8               	btfss	status,0,c
  4165  00073A  062F               	decf	drawCircle@y+1,f,c
  4166                           
  4167                           ;ST7735_TFT.c: 486: ddF_y += 2;
  4168  00073C  0E02               	movlw	2
  4169  00073E  2628               	addwf	drawCircle@ddF_y,f,c
  4170  000740  0E00               	movlw	0
  4171  000742  2229               	addwfc	drawCircle@ddF_y+1,f,c
  4172                           
  4173                           ;ST7735_TFT.c: 487: f += ddF_y;
  4174  000744  5028               	movf	drawCircle@ddF_y,w,c
  4175  000746  262A               	addwf	drawCircle@f,f,c
  4176  000748  5029               	movf	drawCircle@ddF_y+1,w,c
  4177  00074A  222B               	addwfc	drawCircle@f+1,f,c
  4178  00074C                     l444:
  4179                           
  4180                           ;ST7735_TFT.c: 488: }
  4181                           ;ST7735_TFT.c: 489: x++;
  4182  00074C  4A2C               	infsnz	drawCircle@x,f,c
  4183  00074E  2A2D               	incf	drawCircle@x+1,f,c
  4184                           
  4185                           ;ST7735_TFT.c: 490: ddF_x += 2;
  4186  000750  0E02               	movlw	2
  4187  000752  2626               	addwf	drawCircle@ddF_x,f,c
  4188  000754  0E00               	movlw	0
  4189  000756  2227               	addwfc	drawCircle@ddF_x+1,f,c
  4190                           
  4191                           ;ST7735_TFT.c: 491: f += ddF_x;
  4192  000758  5026               	movf	drawCircle@ddF_x,w,c
  4193  00075A  262A               	addwf	drawCircle@f,f,c
  4194  00075C  5027               	movf	drawCircle@ddF_x+1,w,c
  4195  00075E  222B               	addwfc	drawCircle@f+1,f,c
  4196                           
  4197                           ;ST7735_TFT.c: 492: drawPixel(x0 + x, y0 + y, color);
  4198  000760  501E               	movf	drawCircle@y0,w,c
  4199  000762  242E               	addwf	drawCircle@y,w,c
  4200  000764  6E18               	movwf	drawPixel@y,c
  4201  000766  C022  F019         	movff	drawCircle@color,drawPixel@color
  4202  00076A  C023  F01A         	movff	drawCircle@color+1,drawPixel@color+1
  4203  00076E  501C               	movf	drawCircle@x0,w,c
  4204  000770  242C               	addwf	drawCircle@x,w,c
  4205  000772  ECB9  F00E         	call	_drawPixel
  4206                           
  4207                           ;ST7735_TFT.c: 493: drawPixel(x0 - x, y0 + y, color);
  4208  000776  501E               	movf	drawCircle@y0,w,c
  4209  000778  242E               	addwf	drawCircle@y,w,c
  4210  00077A  6E18               	movwf	drawPixel@y,c
  4211  00077C  C022  F019         	movff	drawCircle@color,drawPixel@color
  4212  000780  C023  F01A         	movff	drawCircle@color+1,drawPixel@color+1
  4213  000784  502C               	movf	drawCircle@x,w,c
  4214  000786  0800               	sublw	0
  4215  000788  241C               	addwf	drawCircle@x0,w,c
  4216  00078A  ECB9  F00E         	call	_drawPixel
  4217                           
  4218                           ;ST7735_TFT.c: 494: drawPixel(x0 + x, y0 - y, color);
  4219  00078E  502E               	movf	drawCircle@y,w,c
  4220  000790  0800               	sublw	0
  4221  000792  241E               	addwf	drawCircle@y0,w,c
  4222  000794  6E18               	movwf	drawPixel@y,c
  4223  000796  C022  F019         	movff	drawCircle@color,drawPixel@color
  4224  00079A  C023  F01A         	movff	drawCircle@color+1,drawPixel@color+1
  4225  00079E  501C               	movf	drawCircle@x0,w,c
  4226  0007A0  242C               	addwf	drawCircle@x,w,c
  4227  0007A2  ECB9  F00E         	call	_drawPixel
  4228                           
  4229                           ;ST7735_TFT.c: 495: drawPixel(x0 - x, y0 - y, color);
  4230  0007A6  502E               	movf	drawCircle@y,w,c
  4231  0007A8  0800               	sublw	0
  4232  0007AA  241E               	addwf	drawCircle@y0,w,c
  4233  0007AC  6E18               	movwf	drawPixel@y,c
  4234  0007AE  C022  F019         	movff	drawCircle@color,drawPixel@color
  4235  0007B2  C023  F01A         	movff	drawCircle@color+1,drawPixel@color+1
  4236  0007B6  502C               	movf	drawCircle@x,w,c
  4237  0007B8  0800               	sublw	0
  4238  0007BA  241C               	addwf	drawCircle@x0,w,c
  4239  0007BC  ECB9  F00E         	call	_drawPixel
  4240                           
  4241                           ;ST7735_TFT.c: 496: drawPixel(x0 + y, y0 + x, color);
  4242  0007C0  501E               	movf	drawCircle@y0,w,c
  4243  0007C2  242C               	addwf	drawCircle@x,w,c
  4244  0007C4  6E18               	movwf	drawPixel@y,c
  4245  0007C6  C022  F019         	movff	drawCircle@color,drawPixel@color
  4246  0007CA  C023  F01A         	movff	drawCircle@color+1,drawPixel@color+1
  4247  0007CE  501C               	movf	drawCircle@x0,w,c
  4248  0007D0  242E               	addwf	drawCircle@y,w,c
  4249  0007D2  ECB9  F00E         	call	_drawPixel
  4250                           
  4251                           ;ST7735_TFT.c: 497: drawPixel(x0 - y, y0 + x, color);
  4252  0007D6  501E               	movf	drawCircle@y0,w,c
  4253  0007D8  242C               	addwf	drawCircle@x,w,c
  4254  0007DA  6E18               	movwf	drawPixel@y,c
  4255  0007DC  C022  F019         	movff	drawCircle@color,drawPixel@color
  4256  0007E0  C023  F01A         	movff	drawCircle@color+1,drawPixel@color+1
  4257  0007E4  502E               	movf	drawCircle@y,w,c
  4258  0007E6  0800               	sublw	0
  4259  0007E8  241C               	addwf	drawCircle@x0,w,c
  4260  0007EA  ECB9  F00E         	call	_drawPixel
  4261                           
  4262                           ;ST7735_TFT.c: 498: drawPixel(x0 + y, y0 - x, color);
  4263  0007EE  502C               	movf	drawCircle@x,w,c
  4264  0007F0  0800               	sublw	0
  4265  0007F2  241E               	addwf	drawCircle@y0,w,c
  4266  0007F4  6E18               	movwf	drawPixel@y,c
  4267  0007F6  C022  F019         	movff	drawCircle@color,drawPixel@color
  4268  0007FA  C023  F01A         	movff	drawCircle@color+1,drawPixel@color+1
  4269  0007FE  501C               	movf	drawCircle@x0,w,c
  4270  000800  242E               	addwf	drawCircle@y,w,c
  4271  000802  ECB9  F00E         	call	_drawPixel
  4272                           
  4273                           ;ST7735_TFT.c: 499: drawPixel(x0 - y, y0 - x, color);
  4274  000806  502C               	movf	drawCircle@x,w,c
  4275  000808  0800               	sublw	0
  4276  00080A  241E               	addwf	drawCircle@y0,w,c
  4277  00080C  6E18               	movwf	drawPixel@y,c
  4278  00080E  C022  F019         	movff	drawCircle@color,drawPixel@color
  4279  000812  C023  F01A         	movff	drawCircle@color+1,drawPixel@color+1
  4280  000816  502E               	movf	drawCircle@y,w,c
  4281  000818  0800               	sublw	0
  4282  00081A  241C               	addwf	drawCircle@x0,w,c
  4283  00081C  ECB9  F00E         	call	_drawPixel
  4284  000820  D000               	goto	l6084
  4285  000822                     l6084:
  4286  000822  502E               	movf	drawCircle@y,w,c
  4287  000824  5C2C               	subwf	drawCircle@x,w,c
  4288  000826  502D               	movf	drawCircle@x+1,w,c
  4289  000828  0A80               	xorlw	128
  4290  00082A  6E24               	movwf	??_drawCircle& (0+255),c
  4291  00082C  502F               	movf	drawCircle@y+1,w,c
  4292  00082E  0A80               	xorlw	128
  4293  000830  5824               	subwfb	??_drawCircle& (0+255),w,c
  4294  000832  A0D8               	btfss	status,0,c
  4295  000834  D77E               	goto	l6056
  4296  000836  0012               	return		;funcret
  4297  000838                     __end_of_drawCircle:
  4298                           	opt stack 0
  4299                           tblptru	equ	0xFF8
  4300                           tblptrh	equ	0xFF7
  4301                           tblptrl	equ	0xFF6
  4302                           tablat	equ	0xFF5
  4303                           prodh	equ	0xFF4
  4304                           prodl	equ	0xFF3
  4305                           intcon2	equ	0xFF1
  4306                           postinc0	equ	0xFEE
  4307                           wreg	equ	0xFE8
  4308                           postdec1	equ	0xFE5
  4309                           fsr1l	equ	0xFE1
  4310                           indf2	equ	0xFDF
  4311                           postinc2	equ	0xFDE
  4312                           postdec2	equ	0xFDD
  4313                           fsr2h	equ	0xFDA
  4314                           fsr2l	equ	0xFD9
  4315                           status	equ	0xFD8
  4316                           
  4317 ;; *************** function _Toggle_Fan *****************
  4318 ;; Defined at:
  4319 ;;		line 18 in file "../Fan_Support.c"
  4320 ;; Parameters:    Size  Location     Type
  4321 ;;		None
  4322 ;; Auto vars:     Size  Location     Type
  4323 ;;		None
  4324 ;; Return value:  Size  Location     Type
  4325 ;;		None               void
  4326 ;; Registers used:
  4327 ;;		wreg, status,2, status,0, cstack
  4328 ;; Tracked objects:
  4329 ;;		On entry : 0/0
  4330 ;;		On exit  : 0/0
  4331 ;;		Unchanged: 0/0
  4332 ;; Data sizes:     COMRAM   BANK0   BANK1   BANK2   BANK3   BANK4   BANK5   BANK6   BANK7   BANK8   BANK9  BANK10  BANK1
      +1  BANK12  BANK13  BANK14  BANK15
  4333 ;;      Params:         0       0       0       0       0       0       0       0       0       0       0       0       
      +0       0       0       0       0
  4334 ;;      Locals:         0       0       0       0       0       0       0       0       0       0       0       0       
      +0       0       0       0       0
  4335 ;;      Temps:          0       0       0       0       0       0       0       0       0       0       0       0       
      +0       0       0       0       0
  4336 ;;      Totals:         0       0       0       0       0       0       0       0       0       0       0       0       
      +0       0       0       0       0
  4337 ;;Total ram usage:        0 bytes
  4338 ;; Hardware stack levels used:    1
  4339 ;; Hardware stack levels required when called:    7
  4340 ;; This function calls:
  4341 ;;		_Turn_Off_Fan
  4342 ;;		_Turn_On_Fan
  4343 ;; This function is called by:
  4344 ;;		_main
  4345 ;; This function uses a non-reentrant model
  4346 ;;
  4347                           
  4348                           	psect	text10
  4349  001F3E                     __ptext10:
  4350                           	opt stack 0
  4351  001F3E                     _Toggle_Fan:
  4352                           	opt stack 23
  4353                           
  4354                           ;Fan_Support.c: 20: if(FAN == 0)
  4355                           
  4356                           ;incstack = 0
  4357  001F3E  5051               	movf	_FAN,w,c
  4358  001F40  A4D8               	btfss	status,2,c
  4359  001F42  D003               	goto	l5882
  4360                           
  4361                           ;Fan_Support.c: 21: {
  4362                           ;Fan_Support.c: 22: Turn_On_Fan();
  4363  001F44  ECF3  F00F         	call	_Turn_On_Fan	;wreg free
  4364                           
  4365                           ;Fan_Support.c: 23: }
  4366  001F48  D003               	goto	l34
  4367  001F4A                     l5882:
  4368                           
  4369                           ;Fan_Support.c: 24: else
  4370                           ;Fan_Support.c: 25: {
  4371                           ;Fan_Support.c: 26: Turn_Off_Fan();
  4372  001F4A  EC1E  F010         	call	_Turn_Off_Fan	;wreg free
  4373  001F4E  D000               	goto	l34
  4374  001F50                     l34:
  4375  001F50  0012               	return		;funcret
  4376  001F52                     __end_of_Toggle_Fan:
  4377                           	opt stack 0
  4378                           tblptru	equ	0xFF8
  4379                           tblptrh	equ	0xFF7
  4380                           tblptrl	equ	0xFF6
  4381                           tablat	equ	0xFF5
  4382                           prodh	equ	0xFF4
  4383                           prodl	equ	0xFF3
  4384                           intcon2	equ	0xFF1
  4385                           postinc0	equ	0xFEE
  4386                           wreg	equ	0xFE8
  4387                           postdec1	equ	0xFE5
  4388                           fsr1l	equ	0xFE1
  4389                           indf2	equ	0xFDF
  4390                           postinc2	equ	0xFDE
  4391                           postdec2	equ	0xFDD
  4392                           fsr2h	equ	0xFDA
  4393                           fsr2l	equ	0xFD9
  4394                           status	equ	0xFD8
  4395                           
  4396 ;; *************** function _Turn_On_Fan *****************
  4397 ;; Defined at:
  4398 ;;		line 37 in file "../Fan_Support.c"
  4399 ;; Parameters:    Size  Location     Type
  4400 ;;		None
  4401 ;; Auto vars:     Size  Location     Type
  4402 ;;		None
  4403 ;; Return value:  Size  Location     Type
  4404 ;;		None               void
  4405 ;; Registers used:
  4406 ;;		wreg, status,2, status,0, cstack
  4407 ;; Tracked objects:
  4408 ;;		On entry : 0/0
  4409 ;;		On exit  : 0/0
  4410 ;;		Unchanged: 0/0
  4411 ;; Data sizes:     COMRAM   BANK0   BANK1   BANK2   BANK3   BANK4   BANK5   BANK6   BANK7   BANK8   BANK9  BANK10  BANK1
      +1  BANK12  BANK13  BANK14  BANK15
  4412 ;;      Params:         0       0       0       0       0       0       0       0       0       0       0       0       
      +0       0       0       0       0
  4413 ;;      Locals:         0       0       0       0       0       0       0       0       0       0       0       0       
      +0       0       0       0       0
  4414 ;;      Temps:          0       0       0       0       0       0       0       0       0       0       0       0       
      +0       0       0       0       0
  4415 ;;      Totals:         0       0       0       0       0       0       0       0       0       0       0       0       
      +0       0       0       0       0
  4416 ;;Total ram usage:        0 bytes
  4417 ;; Hardware stack levels used:    1
  4418 ;; Hardware stack levels required when called:    6
  4419 ;; This function calls:
  4420 ;;		_do_update_pwm
  4421 ;; This function is called by:
  4422 ;;		_Toggle_Fan
  4423 ;; This function uses a non-reentrant model
  4424 ;;
  4425                           
  4426                           	psect	text11
  4427  001FE6                     __ptext11:
  4428                           	opt stack 0
  4429  001FE6                     _Turn_On_Fan:
  4430                           	opt stack 23
  4431                           
  4432                           ;Fan_Support.c: 39: FAN = 1;
  4433                           
  4434                           ;incstack = 0
  4435  001FE6  0E01               	movlw	1
  4436  001FE8  6E51               	movwf	_FAN,c
  4437                           
  4438                           ;Fan_Support.c: 40: do_update_pwm(duty_cycle);
  4439  001FEA  505D               	movf	_duty_cycle,w,c
  4440  001FEC  ECD7  F009         	call	_do_update_pwm
  4441                           
  4442                           ;Fan_Support.c: 41: PORTDbits.RD1 = 1;
  4443  001FF0  8283               	bsf	3971,1,c	;volatile
  4444                           
  4445                           ;Fan_Support.c: 42: PORTDbits.RD2 = 1;
  4446  001FF2  8483               	bsf	3971,2,c	;volatile
  4447  001FF4  0012               	return		;funcret
  4448  001FF6                     __end_of_Turn_On_Fan:
  4449                           	opt stack 0
  4450                           tblptru	equ	0xFF8
  4451                           tblptrh	equ	0xFF7
  4452                           tblptrl	equ	0xFF6
  4453                           tablat	equ	0xFF5
  4454                           prodh	equ	0xFF4
  4455                           prodl	equ	0xFF3
  4456                           intcon2	equ	0xFF1
  4457                           postinc0	equ	0xFEE
  4458                           wreg	equ	0xFE8
  4459                           postdec1	equ	0xFE5
  4460                           fsr1l	equ	0xFE1
  4461                           indf2	equ	0xFDF
  4462                           postinc2	equ	0xFDE
  4463                           postdec2	equ	0xFDD
  4464                           fsr2h	equ	0xFDA
  4465                           fsr2l	equ	0xFD9
  4466                           status	equ	0xFD8
  4467                           
  4468 ;; *************** function _Turn_Off_Fan *****************
  4469 ;; Defined at:
  4470 ;;		line 30 in file "../Fan_Support.c"
  4471 ;; Parameters:    Size  Location     Type
  4472 ;;		None
  4473 ;; Auto vars:     Size  Location     Type
  4474 ;;		None
  4475 ;; Return value:  Size  Location     Type
  4476 ;;		None               void
  4477 ;; Registers used:
  4478 ;;		wreg, status,2
  4479 ;; Tracked objects:
  4480 ;;		On entry : 0/0
  4481 ;;		On exit  : 0/0
  4482 ;;		Unchanged: 0/0
  4483 ;; Data sizes:     COMRAM   BANK0   BANK1   BANK2   BANK3   BANK4   BANK5   BANK6   BANK7   BANK8   BANK9  BANK10  BANK1
      +1  BANK12  BANK13  BANK14  BANK15
  4484 ;;      Params:         0       0       0       0       0       0       0       0       0       0       0       0       
      +0       0       0       0       0
  4485 ;;      Locals:         0       0       0       0       0       0       0       0       0       0       0       0       
      +0       0       0       0       0
  4486 ;;      Temps:          0       0       0       0       0       0       0       0       0       0       0       0       
      +0       0       0       0       0
  4487 ;;      Totals:         0       0       0       0       0       0       0       0       0       0       0       0       
      +0       0       0       0       0
  4488 ;;Total ram usage:        0 bytes
  4489 ;; Hardware stack levels used:    1
  4490 ;; Hardware stack levels required when called:    3
  4491 ;; This function calls:
  4492 ;;		Nothing
  4493 ;; This function is called by:
  4494 ;;		_Toggle_Fan
  4495 ;; This function uses a non-reentrant model
  4496 ;;
  4497                           
  4498                           	psect	text12
  4499  00203C                     __ptext12:
  4500                           	opt stack 0
  4501  00203C                     _Turn_Off_Fan:
  4502                           	opt stack 26
  4503                           
  4504                           ;Fan_Support.c: 32: FAN = 0;
  4505                           
  4506                           ;incstack = 0
  4507  00203C  0E00               	movlw	0
  4508  00203E  6E51               	movwf	_FAN,c
  4509                           
  4510                           ;Fan_Support.c: 33: PORTDbits.RD1 = 0;
  4511  002040  9283               	bcf	3971,1,c	;volatile
  4512                           
  4513                           ;Fan_Support.c: 34: PORTDbits.RD2 = 0;
  4514  002042  9483               	bcf	3971,2,c	;volatile
  4515  002044  0012               	return		;funcret
  4516  002046                     __end_of_Turn_Off_Fan:
  4517                           	opt stack 0
  4518                           tblptru	equ	0xFF8
  4519                           tblptrh	equ	0xFF7
  4520                           tblptrl	equ	0xFF6
  4521                           tablat	equ	0xFF5
  4522                           prodh	equ	0xFF4
  4523                           prodl	equ	0xFF3
  4524                           intcon2	equ	0xFF1
  4525                           postinc0	equ	0xFEE
  4526                           wreg	equ	0xFE8
  4527                           postdec1	equ	0xFE5
  4528                           fsr1l	equ	0xFE1
  4529                           indf2	equ	0xFDF
  4530                           postinc2	equ	0xFDE
  4531                           postdec2	equ	0xFDD
  4532                           fsr2h	equ	0xFDA
  4533                           fsr2l	equ	0xFD9
  4534                           status	equ	0xFD8
  4535                           
  4536 ;; *************** function _Set_RPM_RGB *****************
  4537 ;; Defined at:
  4538 ;;		line 98 in file "../Fan_Support.c"
  4539 ;; Parameters:    Size  Location     Type
  4540 ;;  rpm             2   30[COMRAM] int 
  4541 ;; Auto vars:     Size  Location     Type
  4542 ;;  y               1   33[COMRAM] unsigned char 
  4543 ;; Return value:  Size  Location     Type
  4544 ;;		None               void
  4545 ;; Registers used:
  4546 ;;		wreg, status,2, status,0, cstack
  4547 ;; Tracked objects:
  4548 ;;		On entry : 0/0
  4549 ;;		On exit  : 0/0
  4550 ;;		Unchanged: 0/0
  4551 ;; Data sizes:     COMRAM   BANK0   BANK1   BANK2   BANK3   BANK4   BANK5   BANK6   BANK7   BANK8   BANK9  BANK10  BANK1
      +1  BANK12  BANK13  BANK14  BANK15
  4552 ;;      Params:         2       0       0       0       0       0       0       0       0       0       0       0       
      +0       0       0       0       0
  4553 ;;      Locals:         1       0       0       0       0       0       0       0       0       0       0       0       
      +0       0       0       0       0
  4554 ;;      Temps:          1       0       0       0       0       0       0       0       0       0       0       0       
      +0       0       0       0       0
  4555 ;;      Totals:         4       0       0       0       0       0       0       0       0       0       0       0       
      +0       0       0       0       0
  4556 ;;Total ram usage:        4 bytes
  4557 ;; Hardware stack levels used:    1
  4558 ;; Hardware stack levels required when called:    4
  4559 ;; This function calls:
  4560 ;;		___awdiv
  4561 ;; This function is called by:
  4562 ;;		_main
  4563 ;; This function uses a non-reentrant model
  4564 ;;
  4565                           
  4566                           	psect	text13
  4567  001AEE                     __ptext13:
  4568                           	opt stack 0
  4569  001AEE                     _Set_RPM_RGB:
  4570                           	opt stack 26
  4571                           
  4572                           ;Fan_Support.c: 101: char y = (rpm/500) + 1;
  4573                           
  4574                           ;incstack = 0
  4575  001AEE  C01F  F017         	movff	Set_RPM_RGB@rpm,___awdiv@dividend
  4576  001AF2  C020  F018         	movff	Set_RPM_RGB@rpm+1,___awdiv@dividend+1
  4577  001AF6  0E01               	movlw	1
  4578  001AF8  6E1A               	movwf	___awdiv@divisor+1,c
  4579  001AFA  0EF4               	movlw	244
  4580  001AFC  6E19               	movwf	___awdiv@divisor,c
  4581  001AFE  EC8A  F00A         	call	___awdiv	;wreg free
  4582  001B02  2817               	incf	?___awdiv,w,c
  4583  001B04  6E22               	movwf	Set_RPM_RGB@y,c
  4584                           
  4585                           ;Fan_Support.c: 102: if (rpm == 0)
  4586  001B06  501F               	movf	Set_RPM_RGB@rpm,w,c
  4587  001B08  1020               	iorwf	Set_RPM_RGB@rpm+1,w,c
  4588  001B0A  A4D8               	btfss	status,2,c
  4589  001B0C  D003               	goto	l5918
  4590                           
  4591                           ;Fan_Support.c: 103: y = 0;
  4592  001B0E  0E00               	movlw	0
  4593  001B10  6E22               	movwf	Set_RPM_RGB@y,c
  4594  001B12  D000               	goto	l5918
  4595  001B14                     l5918:
  4596                           
  4597                           ;Fan_Support.c: 104: if (y > 7)
  4598  001B14  0E07               	movlw	7
  4599  001B16  6422               	cpfsgt	Set_RPM_RGB@y,c
  4600  001B18  D003               	goto	l5922
  4601                           
  4602                           ;Fan_Support.c: 105: y = 7;
  4603  001B1A  0E07               	movlw	7
  4604  001B1C  6E22               	movwf	Set_RPM_RGB@y,c
  4605  001B1E  D000               	goto	l5922
  4606  001B20                     l5922:
  4607                           
  4608                           ;Fan_Support.c: 106: PORTA = (PORTA & 0xC7) | (y << 3);
  4609  001B20  C022  F021         	movff	Set_RPM_RGB@y,??_Set_RPM_RGB
  4610  001B24  90D8               	bcf	status,0,c
  4611  001B26  3621               	rlcf	??_Set_RPM_RGB,f,c
  4612  001B28  90D8               	bcf	status,0,c
  4613  001B2A  3621               	rlcf	??_Set_RPM_RGB,f,c
  4614  001B2C  90D8               	bcf	status,0,c
  4615  001B2E  3621               	rlcf	??_Set_RPM_RGB,f,c
  4616  001B30  5080               	movf	3968,w,c	;volatile
  4617  001B32  0BC7               	andlw	199
  4618  001B34  1021               	iorwf	??_Set_RPM_RGB,w,c
  4619  001B36  6E80               	movwf	3968,c	;volatile
  4620  001B38  0012               	return		;funcret
  4621  001B3A                     __end_of_Set_RPM_RGB:
  4622                           	opt stack 0
  4623                           tblptru	equ	0xFF8
  4624                           tblptrh	equ	0xFF7
  4625                           tblptrl	equ	0xFF6
  4626                           tablat	equ	0xFF5
  4627                           prodh	equ	0xFF4
  4628                           prodl	equ	0xFF3
  4629                           intcon2	equ	0xFF1
  4630                           postinc0	equ	0xFEE
  4631                           wreg	equ	0xFE8
  4632                           postdec1	equ	0xFE5
  4633                           fsr1l	equ	0xFE1
  4634                           indf2	equ	0xFDF
  4635                           postinc2	equ	0xFDE
  4636                           postdec2	equ	0xFDD
  4637                           fsr2h	equ	0xFDA
  4638                           fsr2l	equ	0xFD9
  4639                           status	equ	0xFD8
  4640                           
  4641 ;; *************** function _Set_DC_RGB *****************
  4642 ;; Defined at:
  4643 ;;		line 89 in file "../Fan_Support.c"
  4644 ;; Parameters:    Size  Location     Type
  4645 ;;  duty_cycle      2   30[COMRAM] int 
  4646 ;; Auto vars:     Size  Location     Type
  4647 ;;  x               2   32[COMRAM] int 
  4648 ;; Return value:  Size  Location     Type
  4649 ;;		None               void
  4650 ;; Registers used:
  4651 ;;		wreg, status,2, status,0, cstack
  4652 ;; Tracked objects:
  4653 ;;		On entry : 0/0
  4654 ;;		On exit  : 0/0
  4655 ;;		Unchanged: 0/0
  4656 ;; Data sizes:     COMRAM   BANK0   BANK1   BANK2   BANK3   BANK4   BANK5   BANK6   BANK7   BANK8   BANK9  BANK10  BANK1
      +1  BANK12  BANK13  BANK14  BANK15
  4657 ;;      Params:         2       0       0       0       0       0       0       0       0       0       0       0       
      +0       0       0       0       0
  4658 ;;      Locals:         2       0       0       0       0       0       0       0       0       0       0       0       
      +0       0       0       0       0
  4659 ;;      Temps:          0       0       0       0       0       0       0       0       0       0       0       0       
      +0       0       0       0       0
  4660 ;;      Totals:         4       0       0       0       0       0       0       0       0       0       0       0       
      +0       0       0       0       0
  4661 ;;Total ram usage:        4 bytes
  4662 ;; Hardware stack levels used:    1
  4663 ;; Hardware stack levels required when called:    4
  4664 ;; This function calls:
  4665 ;;		___awdiv
  4666 ;; This function is called by:
  4667 ;;		_main
  4668 ;; This function uses a non-reentrant model
  4669 ;;
  4670                           
  4671                           	psect	text14
  4672  001BCC                     __ptext14:
  4673                           	opt stack 0
  4674  001BCC                     _Set_DC_RGB:
  4675                           	opt stack 26
  4676                           
  4677                           ;Fan_Support.c: 91: int x = duty_cycle / 10;
  4678                           
  4679                           ;incstack = 0
  4680  001BCC  C01F  F017         	movff	Set_DC_RGB@duty_cycle,___awdiv@dividend
  4681  001BD0  C020  F018         	movff	Set_DC_RGB@duty_cycle+1,___awdiv@dividend+1
  4682  001BD4  0E00               	movlw	0
  4683  001BD6  6E1A               	movwf	___awdiv@divisor+1,c
  4684  001BD8  0E0A               	movlw	10
  4685  001BDA  6E19               	movwf	___awdiv@divisor,c
  4686  001BDC  EC8A  F00A         	call	___awdiv	;wreg free
  4687  001BE0  C017  F021         	movff	?___awdiv,Set_DC_RGB@x
  4688  001BE4  C018  F022         	movff	?___awdiv+1,Set_DC_RGB@x+1
  4689                           
  4690                           ;Fan_Support.c: 92: if (x > 7)
  4691  001BE8  BE22               	btfsc	Set_DC_RGB@x+1,7,c
  4692  001BEA  D00B               	goto	l5910
  4693  001BEC  5022               	movf	Set_DC_RGB@x+1,w,c
  4694  001BEE  E104               	bnz	u4480
  4695  001BF0  0E08               	movlw	8
  4696  001BF2  5C21               	subwf	Set_DC_RGB@x,w,c
  4697  001BF4  A0D8               	btfss	status,0,c
  4698  001BF6  D005               	goto	l5910
  4699  001BF8                     u4480:
  4700                           
  4701                           ;Fan_Support.c: 93: x = 7;
  4702  001BF8  0E00               	movlw	0
  4703  001BFA  6E22               	movwf	Set_DC_RGB@x+1,c
  4704  001BFC  0E07               	movlw	7
  4705  001BFE  6E21               	movwf	Set_DC_RGB@x,c
  4706  001C00  D000               	goto	l5910
  4707  001C02                     l5910:
  4708                           
  4709                           ;Fan_Support.c: 94: PORTA = (PORTA & 0xF8) | x;
  4710  001C02  5080               	movf	3968,w,c	;volatile
  4711  001C04  0BF8               	andlw	248
  4712  001C06  1021               	iorwf	Set_DC_RGB@x,w,c
  4713  001C08  6E80               	movwf	3968,c	;volatile
  4714  001C0A  0012               	return		;funcret
  4715  001C0C                     __end_of_Set_DC_RGB:
  4716                           	opt stack 0
  4717                           tblptru	equ	0xFF8
  4718                           tblptrh	equ	0xFF7
  4719                           tblptrl	equ	0xFF6
  4720                           tablat	equ	0xFF5
  4721                           prodh	equ	0xFF4
  4722                           prodl	equ	0xFF3
  4723                           intcon2	equ	0xFF1
  4724                           postinc0	equ	0xFEE
  4725                           wreg	equ	0xFE8
  4726                           postdec1	equ	0xFE5
  4727                           fsr1l	equ	0xFE1
  4728                           indf2	equ	0xFDF
  4729                           postinc2	equ	0xFDE
  4730                           postdec2	equ	0xFDD
  4731                           fsr2h	equ	0xFDA
  4732                           fsr2l	equ	0xFD9
  4733                           status	equ	0xFD8
  4734                           
  4735 ;; *************** function ___awdiv *****************
  4736 ;; Defined at:
  4737 ;;		line 8 in file "C:\Program Files (x86)\Microchip\xc8\v1.34\sources\common\awdiv.c"
  4738 ;; Parameters:    Size  Location     Type
  4739 ;;  dividend        2   22[COMRAM] int 
  4740 ;;  divisor         2   24[COMRAM] int 
  4741 ;; Auto vars:     Size  Location     Type
  4742 ;;  quotient        2   28[COMRAM] int 
  4743 ;;  sign            1   27[COMRAM] unsigned char 
  4744 ;;  counter         1   26[COMRAM] unsigned char 
  4745 ;; Return value:  Size  Location     Type
  4746 ;;                  2   22[COMRAM] int 
  4747 ;; Registers used:
  4748 ;;		wreg, status,2, status,0
  4749 ;; Tracked objects:
  4750 ;;		On entry : 0/0
  4751 ;;		On exit  : 0/0
  4752 ;;		Unchanged: 0/0
  4753 ;; Data sizes:     COMRAM   BANK0   BANK1   BANK2   BANK3   BANK4   BANK5   BANK6   BANK7   BANK8   BANK9  BANK10  BANK1
      +1  BANK12  BANK13  BANK14  BANK15
  4754 ;;      Params:         4       0       0       0       0       0       0       0       0       0       0       0       
      +0       0       0       0       0
  4755 ;;      Locals:         4       0       0       0       0       0       0       0       0       0       0       0       
      +0       0       0       0       0
  4756 ;;      Temps:          0       0       0       0       0       0       0       0       0       0       0       0       
      +0       0       0       0       0
  4757 ;;      Totals:         8       0       0       0       0       0       0       0       0       0       0       0       
      +0       0       0       0       0
  4758 ;;Total ram usage:        8 bytes
  4759 ;; Hardware stack levels used:    1
  4760 ;; Hardware stack levels required when called:    3
  4761 ;; This function calls:
  4762 ;;		Nothing
  4763 ;; This function is called by:
  4764 ;;		_get_RPM
  4765 ;;		_Set_DC_RGB
  4766 ;;		_Set_RPM_RGB
  4767 ;;		_main
  4768 ;;		_dec_2_bcd
  4769 ;; This function uses a non-reentrant model
  4770 ;;
  4771                           
  4772                           	psect	text15
  4773  001514                     __ptext15:
  4774                           	opt stack 0
  4775  001514                     ___awdiv:
  4776                           	opt stack 26
  4777                           
  4778                           ;incstack = 0
  4779  001514  0E00               	movlw	0
  4780  001516  6E1C               	movwf	___awdiv@sign,c
  4781  001518  AE1A               	btfss	___awdiv@divisor+1,7,c
  4782  00151A  D007               	goto	l5796
  4783  00151C  6C19               	negf	___awdiv@divisor,c
  4784  00151E  1E1A               	comf	___awdiv@divisor+1,f,c
  4785  001520  B0D8               	btfsc	status,0,c
  4786  001522  2A1A               	incf	___awdiv@divisor+1,f,c
  4787  001524  0E01               	movlw	1
  4788  001526  6E1C               	movwf	___awdiv@sign,c
  4789  001528  D000               	goto	l5796
  4790  00152A                     l5796:
  4791  00152A  AE18               	btfss	___awdiv@dividend+1,7,c
  4792  00152C  D007               	goto	l5802
  4793  00152E  6C17               	negf	___awdiv@dividend,c
  4794  001530  1E18               	comf	___awdiv@dividend+1,f,c
  4795  001532  B0D8               	btfsc	status,0,c
  4796  001534  2A18               	incf	___awdiv@dividend+1,f,c
  4797  001536  0E01               	movlw	1
  4798  001538  1A1C               	xorwf	___awdiv@sign,f,c
  4799  00153A  D000               	goto	l5802
  4800  00153C                     l5802:
  4801  00153C  0E00               	movlw	0
  4802  00153E  6E1E               	movwf	___awdiv@quotient+1,c
  4803  001540  0E00               	movlw	0
  4804  001542  6E1D               	movwf	___awdiv@quotient,c
  4805  001544  5019               	movf	___awdiv@divisor,w,c
  4806  001546  101A               	iorwf	___awdiv@divisor+1,w,c
  4807  001548  B4D8               	btfsc	status,2,c
  4808  00154A  D021               	goto	l5824
  4809  00154C  0E01               	movlw	1
  4810  00154E  6E1B               	movwf	___awdiv@counter,c
  4811  001550  D005               	goto	l5810
  4812  001552                     l5808:
  4813  001552  90D8               	bcf	status,0,c
  4814  001554  3619               	rlcf	___awdiv@divisor,f,c
  4815  001556  361A               	rlcf	___awdiv@divisor+1,f,c
  4816  001558  2A1B               	incf	___awdiv@counter,f,c
  4817  00155A  D000               	goto	l5810
  4818  00155C                     l5810:
  4819  00155C  BE1A               	btfsc	___awdiv@divisor+1,7,c
  4820  00155E  D002               	goto	l5812
  4821  001560  D7F8               	goto	l5808
  4822  001562  D000               	goto	l5812
  4823  001564                     l5812:
  4824  001564  90D8               	bcf	status,0,c
  4825  001566  361D               	rlcf	___awdiv@quotient,f,c
  4826  001568  361E               	rlcf	___awdiv@quotient+1,f,c
  4827  00156A  5019               	movf	___awdiv@divisor,w,c
  4828  00156C  5C17               	subwf	___awdiv@dividend,w,c
  4829  00156E  501A               	movf	___awdiv@divisor+1,w,c
  4830  001570  5818               	subwfb	___awdiv@dividend+1,w,c
  4831  001572  A0D8               	btfss	status,0,c
  4832  001574  D006               	goto	l5820
  4833  001576  5019               	movf	___awdiv@divisor,w,c
  4834  001578  5E17               	subwf	___awdiv@dividend,f,c
  4835  00157A  501A               	movf	___awdiv@divisor+1,w,c
  4836  00157C  5A18               	subwfb	___awdiv@dividend+1,f,c
  4837  00157E  801D               	bsf	___awdiv@quotient,0,c
  4838  001580  D000               	goto	l5820
  4839  001582                     l5820:
  4840  001582  90D8               	bcf	status,0,c
  4841  001584  321A               	rrcf	___awdiv@divisor+1,f,c
  4842  001586  3219               	rrcf	___awdiv@divisor,f,c
  4843  001588  2E1B               	decfsz	___awdiv@counter,f,c
  4844  00158A  D7EC               	goto	l5812
  4845  00158C  D000               	goto	l5824
  4846  00158E                     l5824:
  4847  00158E  501C               	movf	___awdiv@sign,w,c
  4848  001590  B4D8               	btfsc	status,2,c
  4849  001592  D005               	goto	l5828
  4850  001594  6C1D               	negf	___awdiv@quotient,c
  4851  001596  1E1E               	comf	___awdiv@quotient+1,f,c
  4852  001598  B0D8               	btfsc	status,0,c
  4853  00159A  2A1E               	incf	___awdiv@quotient+1,f,c
  4854  00159C  D000               	goto	l5828
  4855  00159E                     l5828:
  4856  00159E  C01D  F017         	movff	___awdiv@quotient,?___awdiv
  4857  0015A2  C01E  F018         	movff	___awdiv@quotient+1,?___awdiv+1
  4858  0015A6  D000               	goto	l1071
  4859  0015A8                     l1071:
  4860  0015A8  0012               	return		;funcret
  4861  0015AA                     __end_of___awdiv:
  4862                           	opt stack 0
  4863                           tblptru	equ	0xFF8
  4864                           tblptrh	equ	0xFF7
  4865                           tblptrl	equ	0xFF6
  4866                           tablat	equ	0xFF5
  4867                           prodh	equ	0xFF4
  4868                           prodl	equ	0xFF3
  4869                           intcon2	equ	0xFF1
  4870                           postinc0	equ	0xFEE
  4871                           wreg	equ	0xFE8
  4872                           postdec1	equ	0xFE5
  4873                           fsr1l	equ	0xFE1
  4874                           indf2	equ	0xFDF
  4875                           postinc2	equ	0xFDE
  4876                           postdec2	equ	0xFDD
  4877                           fsr2h	equ	0xFDA
  4878                           fsr2l	equ	0xFD9
  4879                           status	equ	0xFD8
  4880                           
  4881 ;; *************** function _Initialize_LCD_Screen *****************
  4882 ;; Defined at:
  4883 ;;		line 22 in file "../Main_Screen.c"
  4884 ;; Parameters:    Size  Location     Type
  4885 ;;		None
  4886 ;; Auto vars:     Size  Location     Type
  4887 ;;		None
  4888 ;; Return value:  Size  Location     Type
  4889 ;;		None               void
  4890 ;; Registers used:
  4891 ;;		wreg, fsr2l, fsr2h, status,2, status,0, tblptrl, tblptrh, tblptru, prodl, prodh, cstack
  4892 ;; Tracked objects:
  4893 ;;		On entry : 0/0
  4894 ;;		On exit  : 0/0
  4895 ;;		Unchanged: 0/0
  4896 ;; Data sizes:     COMRAM   BANK0   BANK1   BANK2   BANK3   BANK4   BANK5   BANK6   BANK7   BANK8   BANK9  BANK10  BANK1
      +1  BANK12  BANK13  BANK14  BANK15
  4897 ;;      Params:         0       0       0       0       0       0       0       0       0       0       0       0       
      +0       0       0       0       0
  4898 ;;      Locals:         0       0       0       0       0       0       0       0       0       0       0       0       
      +0       0       0       0       0
  4899 ;;      Temps:          0       0       0       0       0       0       0       0       0       0       0       0       
      +0       0       0       0       0
  4900 ;;      Totals:         0       0       0       0       0       0       0       0       0       0       0       0       
      +0       0       0       0       0
  4901 ;;Total ram usage:        0 bytes
  4902 ;; Hardware stack levels used:    1
  4903 ;; Hardware stack levels required when called:   10
  4904 ;; This function calls:
  4905 ;;		_LCD_Reset
  4906 ;;		_TFT_GreenTab_Initialize
  4907 ;;		_drawtext
  4908 ;;		_fillScreen
  4909 ;;		_strcpy
  4910 ;; This function is called by:
  4911 ;;		_main
  4912 ;; This function uses a non-reentrant model
  4913 ;;
  4914                           
  4915                           	psect	text16
  4916  001464                     __ptext16:
  4917                           	opt stack 0
  4918  001464                     _Initialize_LCD_Screen:
  4919                           	opt stack 20
  4920                           
  4921                           ;Main_Screen.c: 24: LCD_Reset();
  4922                           
  4923                           ;incstack = 0
  4924  001464  ECBD  F00F         	call	_LCD_Reset	;wreg free
  4925                           
  4926                           ;Main_Screen.c: 25: TFT_GreenTab_Initialize();
  4927  001468  ECD1  F00E         	call	_TFT_GreenTab_Initialize	;wreg free
  4928                           
  4929                           ;Main_Screen.c: 26: fillScreen(0x0000);
  4930  00146C  0E00               	movlw	0
  4931  00146E  6E25               	movwf	fillScreen@color+1,c
  4932  001470  0E00               	movlw	0
  4933  001472  6E24               	movwf	fillScreen@color,c
  4934  001474  EC60  F00F         	call	_fillScreen	;wreg free
  4935                           
  4936                           ;Main_Screen.c: 29: txt = buffer;
  4937  001478  0E7E               	movlw	low _buffer
  4938  00147A  6E4F               	movwf	_txt,c
  4939  00147C  0E01               	movlw	high _buffer
  4940  00147E  6E50               	movwf	_txt+1,c
  4941                           
  4942                           ;Main_Screen.c: 31: strcpy(txt, "LAB 10 ");
  4943  001480  C04F  F011         	movff	_txt,strcpy@to
  4944  001484  C050  F012         	movff	_txt+1,strcpy@to+1
  4945  001488  0EF6               	movlw	low STR_1
  4946  00148A  6E13               	movwf	strcpy@from,c
  4947  00148C  0EFF               	movlw	high STR_1
  4948  00148E  6E14               	movwf	strcpy@from+1,c
  4949  001490  ECA0  F00E         	call	_strcpy	;wreg free
  4950                           
  4951                           ;Main_Screen.c: 32: drawtext(50, 2, txt, 0xFFFF, 0x0000, 1);
  4952  001494  0E02               	movlw	2
  4953  001496  6E39               	movwf	drawtext@y,c
  4954  001498  C04F  F03A         	movff	_txt,drawtext@_text
  4955  00149C  C050  F03B         	movff	_txt+1,drawtext@_text+1
  4956  0014A0  0EFF               	movlw	255
  4957  0014A2  6E3D               	movwf	drawtext@color+1,c
  4958  0014A4  683C               	setf	drawtext@color,c
  4959  0014A6  0E00               	movlw	0
  4960  0014A8  6E3F               	movwf	drawtext@bg+1,c
  4961  0014AA  0E00               	movlw	0
  4962  0014AC  6E3E               	movwf	drawtext@bg,c
  4963  0014AE  0E01               	movlw	1
  4964  0014B0  6E40               	movwf	drawtext@size,c
  4965  0014B2  0E32               	movlw	50
  4966  0014B4  ECA8  F006         	call	_drawtext
  4967                           
  4968                           ;Main_Screen.c: 34: if (1 == 0)
  4969  0014B8  D005               	goto	l6032
  4970                           
  4971                           ;Main_Screen.c: 35: {
  4972                           ;Main_Screen.c: 36: Timing_Txt[0] = 'S';
  4973  0014BA  0E53               	movlw	83
  4974  0014BC  0100               	movlb	0	; () banked
  4975  0014BE  6FE9               	movwf	_Timing_Txt& (0+255),b
  4976                           
  4977                           ;Main_Screen.c: 37: Timing_Txt[1] = 'P';
  4978  0014C0  0E50               	movlw	80
  4979  0014C2  D004               	goto	L1
  4980  0014C4                     l6032:
  4981                           
  4982                           ;Main_Screen.c: 39: else
  4983                           ;Main_Screen.c: 40: {
  4984                           ;Main_Screen.c: 41: Timing_Txt[0] = 'F';
  4985  0014C4  0E46               	movlw	70
  4986  0014C6  0100               	movlb	0	; () banked
  4987  0014C8  6FE9               	movwf	_Timing_Txt& (0+255),b
  4988                           
  4989                           ;Main_Screen.c: 42: Timing_Txt[1] = 'A';
  4990  0014CA  0E41               	movlw	65
  4991  0014CC                     L1:
  4992  0014CC  0100               	movlb	0	; () banked
  4993  0014CE  6FEA               	movwf	(_Timing_Txt+1)& (0+255),b
  4994                           
  4995                           ; BSR set to: 0
  4996                           ;Main_Screen.c: 43: }
  4997                           ;Main_Screen.c: 44: Timing_Txt[2] = 25/10 + '0';
  4998  0014D0  0E32               	movlw	50
  4999  0014D2  0100               	movlb	0	; () banked
  5000  0014D4  6FEB               	movwf	(_Timing_Txt+2)& (0+255),b
  5001                           
  5002                           ;Main_Screen.c: 45: Timing_Txt[3] = 25%10 + '0';
  5003  0014D6  0E35               	movlw	53
  5004  0014D8  0100               	movlb	0	; () banked
  5005  0014DA  6FEC               	movwf	(_Timing_Txt+3)& (0+255),b
  5006                           
  5007                           ;Main_Screen.c: 46: Timing_Txt[5] = 2%10 + '0';
  5008  0014DC  0E32               	movlw	50
  5009  0014DE  0100               	movlb	0	; () banked
  5010  0014E0  6FEE               	movwf	(_Timing_Txt+5)& (0+255),b
  5011                           
  5012                           ;Main_Screen.c: 47: Timing_Txt[7] = 02/10 + '0';
  5013  0014E2  0E30               	movlw	48
  5014  0014E4  0100               	movlb	0	; () banked
  5015  0014E6  6FF0               	movwf	(_Timing_Txt+7)& (0+255),b
  5016                           
  5017                           ;Main_Screen.c: 48: Timing_Txt[8] = 02%10 + '0';
  5018  0014E8  0E32               	movlw	50
  5019  0014EA  0100               	movlb	0	; () banked
  5020  0014EC  6FF1               	movwf	(_Timing_Txt+8)& (0+255),b
  5021                           
  5022                           ; BSR set to: 0
  5023                           ;Main_Screen.c: 49: drawtext(1, 150, Timing_Txt, 0xFFFF, 0x0000, 1);
  5024  0014EE  0E96               	movlw	150
  5025  0014F0  6E39               	movwf	drawtext@y,c
  5026  0014F2  0EE9               	movlw	low _Timing_Txt
  5027  0014F4  6E3A               	movwf	drawtext@_text,c
  5028  0014F6  0E00               	movlw	high _Timing_Txt
  5029  0014F8  6E3B               	movwf	drawtext@_text+1,c
  5030  0014FA  0EFF               	movlw	255
  5031  0014FC  6E3D               	movwf	drawtext@color+1,c
  5032  0014FE  683C               	setf	drawtext@color,c
  5033  001500  0E00               	movlw	0
  5034  001502  6E3F               	movwf	drawtext@bg+1,c
  5035  001504  0E00               	movlw	0
  5036  001506  6E3E               	movwf	drawtext@bg,c
  5037  001508  0E01               	movlw	1
  5038  00150A  6E40               	movwf	drawtext@size,c
  5039  00150C  0E01               	movlw	1
  5040  00150E  ECA8  F006         	call	_drawtext
  5041  001512  0012               	return		;funcret
  5042  001514                     __end_of_Initialize_LCD_Screen:
  5043                           	opt stack 0
  5044                           tblptru	equ	0xFF8
  5045                           tblptrh	equ	0xFF7
  5046                           tblptrl	equ	0xFF6
  5047                           tablat	equ	0xFF5
  5048                           prodh	equ	0xFF4
  5049                           prodl	equ	0xFF3
  5050                           intcon2	equ	0xFF1
  5051                           postinc0	equ	0xFEE
  5052                           wreg	equ	0xFE8
  5053                           postdec1	equ	0xFE5
  5054                           fsr1l	equ	0xFE1
  5055                           indf2	equ	0xFDF
  5056                           postinc2	equ	0xFDE
  5057                           postdec2	equ	0xFDD
  5058                           fsr2h	equ	0xFDA
  5059                           fsr2l	equ	0xFD9
  5060                           status	equ	0xFD8
  5061                           
  5062 ;; *************** function _strcpy *****************
  5063 ;; Defined at:
  5064 ;;		line 8 in file "C:\Program Files (x86)\Microchip\xc8\v1.34\sources\common\strcpy.c"
  5065 ;; Parameters:    Size  Location     Type
  5066 ;;  to              2   16[COMRAM] PTR unsigned char 
  5067 ;;		 -> NULL(0), buffer(31), 
  5068 ;;  from            2   18[COMRAM] PTR const unsigned char 
  5069 ;;		 -> STR_1(8), 
  5070 ;; Auto vars:     Size  Location     Type
  5071 ;;  cp              2   20[COMRAM] PTR unsigned char 
  5072 ;;		 -> NULL(0), buffer(31), 
  5073 ;; Return value:  Size  Location     Type
  5074 ;;                  2   16[COMRAM] PTR unsigned char 
  5075 ;; Registers used:
  5076 ;;		wreg, fsr2l, fsr2h, status,2, status,0, tblptrl, tblptrh, tblptru
  5077 ;; Tracked objects:
  5078 ;;		On entry : 0/0
  5079 ;;		On exit  : 0/0
  5080 ;;		Unchanged: 0/0
  5081 ;; Data sizes:     COMRAM   BANK0   BANK1   BANK2   BANK3   BANK4   BANK5   BANK6   BANK7   BANK8   BANK9  BANK10  BANK1
      +1  BANK12  BANK13  BANK14  BANK15
  5082 ;;      Params:         4       0       0       0       0       0       0       0       0       0       0       0       
      +0       0       0       0       0
  5083 ;;      Locals:         2       0       0       0       0       0       0       0       0       0       0       0       
      +0       0       0       0       0
  5084 ;;      Temps:          0       0       0       0       0       0       0       0       0       0       0       0       
      +0       0       0       0       0
  5085 ;;      Totals:         6       0       0       0       0       0       0       0       0       0       0       0       
      +0       0       0       0       0
  5086 ;;Total ram usage:        6 bytes
  5087 ;; Hardware stack levels used:    1
  5088 ;; Hardware stack levels required when called:    3
  5089 ;; This function calls:
  5090 ;;		Nothing
  5091 ;; This function is called by:
  5092 ;;		_Initialize_LCD_Screen
  5093 ;; This function uses a non-reentrant model
  5094 ;;
  5095                           
  5096                           	psect	text17
  5097  001D40                     __ptext17:
  5098                           	opt stack 0
  5099  001D40                     _strcpy:
  5100                           	opt stack 26
  5101                           
  5102                           ;incstack = 0
  5103  001D40  C011  F015         	movff	strcpy@to,strcpy@cp
  5104  001D44  C012  F016         	movff	strcpy@to+1,strcpy@cp+1
  5105  001D48  D005               	goto	l5652
  5106  001D4A                     l5650:
  5107  001D4A  4A15               	infsnz	strcpy@cp,f,c
  5108  001D4C  2A16               	incf	strcpy@cp+1,f,c
  5109  001D4E  4A13               	infsnz	strcpy@from,f,c
  5110  001D50  2A14               	incf	strcpy@from+1,f,c
  5111  001D52  D000               	goto	l5652
  5112  001D54                     l5652:
  5113  001D54  C013  FFF6         	movff	strcpy@from,tblptrl
  5114  001D58  C014  FFF7         	movff	strcpy@from+1,tblptrh
  5115  001D5C                     	if	0	;tblptru may be non-zero
  5116  001D5C                     	endif
  5117  001D5C                     	if	0	;tblptru may be non-zero
  5118  001D5C                     	endif
  5119  001D5C  C015  FFD9         	movff	strcpy@cp,fsr2l
  5120  001D60  C016  FFDA         	movff	strcpy@cp+1,fsr2h
  5121  001D64  0008               	tblrd		*
  5122  001D66  CFF5 FFDF          	movff	tablat,indf2
  5123  001D6A  50DF               	movf	indf2,w,c
  5124  001D6C  A4D8               	btfss	status,2,c
  5125  001D6E  D7ED               	goto	l5650
  5126                           
  5127                           ;	Return value of _strcpy is never used
  5128  001D70  0012               	return		;funcret
  5129  001D72                     __end_of_strcpy:
  5130                           	opt stack 0
  5131                           tblptru	equ	0xFF8
  5132                           tblptrh	equ	0xFF7
  5133                           tblptrl	equ	0xFF6
  5134                           tablat	equ	0xFF5
  5135                           prodh	equ	0xFF4
  5136                           prodl	equ	0xFF3
  5137                           intcon2	equ	0xFF1
  5138                           postinc0	equ	0xFEE
  5139                           wreg	equ	0xFE8
  5140                           postdec1	equ	0xFE5
  5141                           fsr1l	equ	0xFE1
  5142                           indf2	equ	0xFDF
  5143                           postinc2	equ	0xFDE
  5144                           postdec2	equ	0xFDD
  5145                           fsr2h	equ	0xFDA
  5146                           fsr2l	equ	0xFD9
  5147                           status	equ	0xFD8
  5148                           
  5149 ;; *************** function _fillScreen *****************
  5150 ;; Defined at:
  5151 ;;		line 566 in file "../ST7735_TFT.c"
  5152 ;; Parameters:    Size  Location     Type
  5153 ;;  color           2   35[COMRAM] unsigned int 
  5154 ;; Auto vars:     Size  Location     Type
  5155 ;;		None
  5156 ;; Return value:  Size  Location     Type
  5157 ;;		None               void
  5158 ;; Registers used:
  5159 ;;		wreg, status,2, status,0, cstack
  5160 ;; Tracked objects:
  5161 ;;		On entry : 0/0
  5162 ;;		On exit  : 0/0
  5163 ;;		Unchanged: 0/0
  5164 ;; Data sizes:     COMRAM   BANK0   BANK1   BANK2   BANK3   BANK4   BANK5   BANK6   BANK7   BANK8   BANK9  BANK10  BANK1
      +1  BANK12  BANK13  BANK14  BANK15
  5165 ;;      Params:         2       0       0       0       0       0       0       0       0       0       0       0       
      +0       0       0       0       0
  5166 ;;      Locals:         0       0       0       0       0       0       0       0       0       0       0       0       
      +0       0       0       0       0
  5167 ;;      Temps:          0       0       0       0       0       0       0       0       0       0       0       0       
      +0       0       0       0       0
  5168 ;;      Totals:         2       0       0       0       0       0       0       0       0       0       0       0       
      +0       0       0       0       0
  5169 ;;Total ram usage:        2 bytes
  5170 ;; Hardware stack levels used:    1
  5171 ;; Hardware stack levels required when called:    7
  5172 ;; This function calls:
  5173 ;;		_fillRectangle
  5174 ;; This function is called by:
  5175 ;;		_Initialize_LCD_Screen
  5176 ;; This function uses a non-reentrant model
  5177 ;;
  5178                           
  5179                           	psect	text18
  5180  001EC0                     __ptext18:
  5181                           	opt stack 0
  5182  001EC0                     _fillScreen:
  5183                           	opt stack 22
  5184                           
  5185                           ;ST7735_TFT.c: 568: fillRectangle(0, 0, 128, 160, color);
  5186                           
  5187                           ;incstack = 0
  5188  001EC0  0E00               	movlw	0
  5189  001EC2  6E18               	movwf	fillRectangle@y,c
  5190  001EC4  0E80               	movlw	128
  5191  001EC6  6E19               	movwf	fillRectangle@w,c
  5192  001EC8  0EA0               	movlw	160
  5193  001ECA  6E1A               	movwf	fillRectangle@h,c
  5194  001ECC  C024  F01B         	movff	fillScreen@color,fillRectangle@color
  5195  001ED0  C025  F01C         	movff	fillScreen@color+1,fillRectangle@color+1
  5196  001ED4  0E00               	movlw	0
  5197  001ED6  EC06  F009         	call	_fillRectangle
  5198  001EDA  0012               	return		;funcret
  5199  001EDC                     __end_of_fillScreen:
  5200                           	opt stack 0
  5201                           tblptru	equ	0xFF8
  5202                           tblptrh	equ	0xFF7
  5203                           tblptrl	equ	0xFF6
  5204                           tablat	equ	0xFF5
  5205                           prodh	equ	0xFF4
  5206                           prodl	equ	0xFF3
  5207                           intcon2	equ	0xFF1
  5208                           postinc0	equ	0xFEE
  5209                           wreg	equ	0xFE8
  5210                           postdec1	equ	0xFE5
  5211                           fsr1l	equ	0xFE1
  5212                           indf2	equ	0xFDF
  5213                           postinc2	equ	0xFDE
  5214                           postdec2	equ	0xFDD
  5215                           fsr2h	equ	0xFDA
  5216                           fsr2l	equ	0xFD9
  5217                           status	equ	0xFD8
  5218                           
  5219 ;; *************** function _fillRectangle *****************
  5220 ;; Defined at:
  5221 ;;		line 450 in file "../ST7735_TFT.c"
  5222 ;; Parameters:    Size  Location     Type
  5223 ;;  x               1    wreg     unsigned char 
  5224 ;;  y               1   23[COMRAM] unsigned char 
  5225 ;;  w               1   24[COMRAM] unsigned char 
  5226 ;;  h               1   25[COMRAM] unsigned char 
  5227 ;;  color           2   26[COMRAM] unsigned int 
  5228 ;; Auto vars:     Size  Location     Type
  5229 ;;  x               1   34[COMRAM] unsigned char 
  5230 ;;  lo              1   33[COMRAM] unsigned char 
  5231 ;;  hi              1   32[COMRAM] unsigned char 
  5232 ;; Return value:  Size  Location     Type
  5233 ;;		None               void
  5234 ;; Registers used:
  5235 ;;		wreg, status,2, status,0, cstack
  5236 ;; Tracked objects:
  5237 ;;		On entry : 0/0
  5238 ;;		On exit  : 0/0
  5239 ;;		Unchanged: 0/0
  5240 ;; Data sizes:     COMRAM   BANK0   BANK1   BANK2   BANK3   BANK4   BANK5   BANK6   BANK7   BANK8   BANK9  BANK10  BANK1
      +1  BANK12  BANK13  BANK14  BANK15
  5241 ;;      Params:         5       0       0       0       0       0       0       0       0       0       0       0       
      +0       0       0       0       0
  5242 ;;      Locals:         3       0       0       0       0       0       0       0       0       0       0       0       
      +0       0       0       0       0
  5243 ;;      Temps:          4       0       0       0       0       0       0       0       0       0       0       0       
      +0       0       0       0       0
  5244 ;;      Totals:        12       0       0       0       0       0       0       0       0       0       0       0       
      +0       0       0       0       0
  5245 ;;Total ram usage:       12 bytes
  5246 ;; Hardware stack levels used:    1
  5247 ;; Hardware stack levels required when called:    6
  5248 ;; This function calls:
  5249 ;;		_setAddrWindow
  5250 ;;		_spiwrite
  5251 ;; This function is called by:
  5252 ;;		_fillScreen
  5253 ;; This function uses a non-reentrant model
  5254 ;;
  5255                           
  5256                           	psect	text19
  5257  00120C                     __ptext19:
  5258                           	opt stack 0
  5259  00120C                     _fillRectangle:
  5260                           	opt stack 22
  5261                           
  5262                           ;incstack = 0
  5263                           ;fillRectangle@x stored from wreg
  5264  00120C  6E23               	movwf	fillRectangle@x,c
  5265                           
  5266                           ;ST7735_TFT.c: 452: unsigned char hi, lo;
  5267                           ;ST7735_TFT.c: 453: if((x >= 128) || (y >= 160))
  5268  00120E  0E80               	movlw	128
  5269  001210  6023               	cpfslt	fillRectangle@x,c
  5270  001212  D069               	goto	l433
  5271  001214  0E9F               	movlw	159
  5272  001216  6418               	cpfsgt	fillRectangle@y,c
  5273  001218  D001               	goto	l5508
  5274                           
  5275                           ;ST7735_TFT.c: 454: return;
  5276  00121A  D065               	goto	l433
  5277  00121C                     l5508:
  5278                           
  5279                           ;ST7735_TFT.c: 455: if((x + w - 1) >= 128)
  5280  00121C  0EFF               	movlw	255
  5281  00121E  6E1D               	movwf	??_fillRectangle& (0+255),c
  5282  001220  0EFF               	movlw	255
  5283  001222  6E1E               	movwf	(??_fillRectangle+1)& (0+255),c
  5284  001224  5019               	movf	fillRectangle@w,w,c
  5285  001226  C023  F01F         	movff	fillRectangle@x,??_fillRectangle+2
  5286  00122A  6A20               	clrf	(??_fillRectangle+3)& (0+255),c
  5287  00122C  261F               	addwf	??_fillRectangle+2,f,c
  5288  00122E  0E00               	movlw	0
  5289  001230  2220               	addwfc	??_fillRectangle+3,f,c
  5290  001232  501D               	movf	??_fillRectangle,w,c
  5291  001234  261F               	addwf	??_fillRectangle+2,f,c
  5292  001236  501E               	movf	??_fillRectangle+1,w,c
  5293  001238  2220               	addwfc	??_fillRectangle+3,f,c
  5294  00123A  BE20               	btfsc	??_fillRectangle+3,7,c
  5295  00123C  D00A               	goto	l434
  5296  00123E  5020               	movf	??_fillRectangle+3,w,c
  5297  001240  E104               	bnz	u3990
  5298  001242  0E80               	movlw	128
  5299  001244  5C1F               	subwf	??_fillRectangle+2,w,c
  5300  001246  A0D8               	btfss	status,0,c
  5301  001248  D004               	goto	l434
  5302  00124A                     u3990:
  5303                           
  5304                           ;ST7735_TFT.c: 456: w = 128 - x;
  5305  00124A  5023               	movf	fillRectangle@x,w,c
  5306  00124C  0800               	sublw	0
  5307  00124E  0F80               	addlw	128
  5308  001250  6E19               	movwf	fillRectangle@w,c
  5309  001252                     l434:
  5310                           
  5311                           ;ST7735_TFT.c: 457: if((y + h - 1) >= 160)
  5312  001252  0EFF               	movlw	255
  5313  001254  6E1D               	movwf	??_fillRectangle& (0+255),c
  5314  001256  0EFF               	movlw	255
  5315  001258  6E1E               	movwf	(??_fillRectangle+1)& (0+255),c
  5316  00125A  501A               	movf	fillRectangle@h,w,c
  5317  00125C  C018  F01F         	movff	fillRectangle@y,??_fillRectangle+2
  5318  001260  6A20               	clrf	(??_fillRectangle+3)& (0+255),c
  5319  001262  261F               	addwf	??_fillRectangle+2,f,c
  5320  001264  0E00               	movlw	0
  5321  001266  2220               	addwfc	??_fillRectangle+3,f,c
  5322  001268  501D               	movf	??_fillRectangle,w,c
  5323  00126A  261F               	addwf	??_fillRectangle+2,f,c
  5324  00126C  501E               	movf	??_fillRectangle+1,w,c
  5325  00126E  2220               	addwfc	??_fillRectangle+3,f,c
  5326  001270  BE20               	btfsc	??_fillRectangle+3,7,c
  5327  001272  D00B               	goto	l5514
  5328  001274  5020               	movf	??_fillRectangle+3,w,c
  5329  001276  E104               	bnz	u4000
  5330  001278  0EA0               	movlw	160
  5331  00127A  5C1F               	subwf	??_fillRectangle+2,w,c
  5332  00127C  A0D8               	btfss	status,0,c
  5333  00127E  D005               	goto	l5514
  5334  001280                     u4000:
  5335                           
  5336                           ;ST7735_TFT.c: 458: h = 160 - y;
  5337  001280  5018               	movf	fillRectangle@y,w,c
  5338  001282  0800               	sublw	0
  5339  001284  0FA0               	addlw	160
  5340  001286  6E1A               	movwf	fillRectangle@h,c
  5341  001288  D000               	goto	l5514
  5342  00128A                     l5514:
  5343                           
  5344                           ;ST7735_TFT.c: 459: setAddrWindow(x, y, x+w-1, y+h-1);
  5345  00128A  C018  F014         	movff	fillRectangle@y,setAddrWindow@y0
  5346  00128E  5023               	movf	fillRectangle@x,w,c
  5347  001290  2419               	addwf	fillRectangle@w,w,c
  5348  001292  6E1D               	movwf	??_fillRectangle& (0+255),c
  5349  001294  041D               	decf	??_fillRectangle,w,c
  5350  001296  6E15               	movwf	setAddrWindow@x1,c
  5351  001298  5018               	movf	fillRectangle@y,w,c
  5352  00129A  241A               	addwf	fillRectangle@h,w,c
  5353  00129C  6E1E               	movwf	(??_fillRectangle+1)& (0+255),c
  5354  00129E  041E               	decf	??_fillRectangle+1,w,c
  5355  0012A0  6E16               	movwf	setAddrWindow@y1,c
  5356  0012A2  5023               	movf	fillRectangle@x,w,c
  5357  0012A4  EC2A  F00D         	call	_setAddrWindow
  5358                           
  5359                           ;ST7735_TFT.c: 460: hi = color >> 8; lo = color;
  5360  0012A8  501C               	movf	fillRectangle@color+1,w,c
  5361  0012AA  6E21               	movwf	fillRectangle@hi,c
  5362  0012AC  C01B  F022         	movff	fillRectangle@color,fillRectangle@lo
  5363                           
  5364                           ;ST7735_TFT.c: 461: PORTDbits.RD3 = 1;
  5365  0012B0  8683               	bsf	3971,3,c	;volatile
  5366                           
  5367                           ;ST7735_TFT.c: 462: PORTDbits.RD4 = 0;
  5368  0012B2  9883               	bcf	3971,4,c	;volatile
  5369                           
  5370                           ;ST7735_TFT.c: 464: for(y=h; y>0; y--) {
  5371  0012B4  C01A  F018         	movff	fillRectangle@h,fillRectangle@y
  5372  0012B8                     l5526:
  5373  0012B8  5018               	movf	fillRectangle@y,w,c
  5374  0012BA  B4D8               	btfsc	status,2,c
  5375  0012BC  D013               	goto	l437
  5376  0012BE  D001               	goto	l436
  5377  0012C0  D011               	goto	l437
  5378  0012C2                     l436:
  5379                           
  5380                           ;ST7735_TFT.c: 465: for(x = w; x > 0; x--) {
  5381  0012C2  C019  F023         	movff	fillRectangle@w,fillRectangle@x
  5382  0012C6                     l5530:
  5383  0012C6  5023               	movf	fillRectangle@x,w,c
  5384  0012C8  B4D8               	btfsc	status,2,c
  5385  0012CA  D00A               	goto	l5540
  5386  0012CC  D001               	goto	l5534
  5387  0012CE  D008               	goto	l5540
  5388  0012D0                     l5534:
  5389                           
  5390                           ;ST7735_TFT.c: 466: spiwrite(hi);
  5391  0012D0  5021               	movf	fillRectangle@hi,w,c
  5392  0012D2  ECA9  F00F         	call	_spiwrite
  5393                           
  5394                           ;ST7735_TFT.c: 467: spiwrite(lo);
  5395  0012D6  5022               	movf	fillRectangle@lo,w,c
  5396  0012D8  ECA9  F00F         	call	_spiwrite
  5397  0012DC  0623               	decf	fillRectangle@x,f,c
  5398  0012DE  D7F3               	goto	l5530
  5399  0012E0                     l5540:
  5400  0012E0  0618               	decf	fillRectangle@y,f,c
  5401  0012E2  D7EA               	goto	l5526
  5402  0012E4                     l437:
  5403                           
  5404                           ;ST7735_TFT.c: 468: }
  5405                           ;ST7735_TFT.c: 469: }
  5406                           ;ST7735_TFT.c: 470: PORTDbits.RD4 = 1;
  5407  0012E4  8883               	bsf	3971,4,c	;volatile
  5408  0012E6                     l433:
  5409  0012E6  0012               	return		;funcret
  5410  0012E8                     __end_of_fillRectangle:
  5411                           	opt stack 0
  5412                           tblptru	equ	0xFF8
  5413                           tblptrh	equ	0xFF7
  5414                           tblptrl	equ	0xFF6
  5415                           tablat	equ	0xFF5
  5416                           prodh	equ	0xFF4
  5417                           prodl	equ	0xFF3
  5418                           intcon2	equ	0xFF1
  5419                           postinc0	equ	0xFEE
  5420                           wreg	equ	0xFE8
  5421                           postdec1	equ	0xFE5
  5422                           fsr1l	equ	0xFE1
  5423                           indf2	equ	0xFDF
  5424                           postinc2	equ	0xFDE
  5425                           postdec2	equ	0xFDD
  5426                           fsr2h	equ	0xFDA
  5427                           fsr2l	equ	0xFD9
  5428                           status	equ	0xFD8
  5429                           
  5430 ;; *************** function _drawtext *****************
  5431 ;; Defined at:
  5432 ;;		line 421 in file "../ST7735_TFT.c"
  5433 ;; Parameters:    Size  Location     Type
  5434 ;;  x               1    wreg     unsigned char 
  5435 ;;  y               1   56[COMRAM] unsigned char 
  5436 ;;  _text           2   57[COMRAM] PTR unsigned char 
  5437 ;;		 -> NULL(0), txt1(84), Timing_Txt(10), buffer(31), 
  5438 ;;  color           2   59[COMRAM] unsigned int 
  5439 ;;  bg              2   61[COMRAM] unsigned int 
  5440 ;;  size            1   63[COMRAM] unsigned char 
  5441 ;; Auto vars:     Size  Location     Type
  5442 ;;  x               1    0[BANK0 ] unsigned char 
  5443 ;;  i               2    3[BANK0 ] unsigned int 
  5444 ;;  textsize        2    1[BANK0 ] unsigned int 
  5445 ;;  cursor_x        1    6[BANK0 ] unsigned char 
  5446 ;;  cursor_y        1    5[BANK0 ] unsigned char 
  5447 ;; Return value:  Size  Location     Type
  5448 ;;		None               void
  5449 ;; Registers used:
  5450 ;;		wreg, fsr2l, fsr2h, status,2, status,0, tblptrl, tblptrh, tblptru, prodl, prodh, cstack
  5451 ;; Tracked objects:
  5452 ;;		On entry : 0/0
  5453 ;;		On exit  : 0/0
  5454 ;;		Unchanged: 0/0
  5455 ;; Data sizes:     COMRAM   BANK0   BANK1   BANK2   BANK3   BANK4   BANK5   BANK6   BANK7   BANK8   BANK9  BANK10  BANK1
      +1  BANK12  BANK13  BANK14  BANK15
  5456 ;;      Params:         8       0       0       0       0       0       0       0       0       0       0       0       
      +0       0       0       0       0
  5457 ;;      Locals:         0       7       0       0       0       0       0       0       0       0       0       0       
      +0       0       0       0       0
  5458 ;;      Temps:          2       0       0       0       0       0       0       0       0       0       0       0       
      +0       0       0       0       0
  5459 ;;      Totals:        10       7       0       0       0       0       0       0       0       0       0       0       
      +0       0       0       0       0
  5460 ;;Total ram usage:       17 bytes
  5461 ;; Hardware stack levels used:    1
  5462 ;; Hardware stack levels required when called:    9
  5463 ;; This function calls:
  5464 ;;		_drawChar
  5465 ;;		_strlen
  5466 ;; This function is called by:
  5467 ;;		_Initialize_LCD_Screen
  5468 ;;		_main
  5469 ;; This function uses a non-reentrant model
  5470 ;;
  5471                           
  5472                           	psect	text20
  5473  000D50                     __ptext20:
  5474                           	opt stack 0
  5475  000D50                     _drawtext:
  5476                           	opt stack 21
  5477                           
  5478                           ;incstack = 0
  5479                           ;drawtext@x stored from wreg
  5480  000D50  0100               	movlb	0	; () banked
  5481  000D52  6FF3               	movwf	drawtext@x& (0+255),b
  5482                           
  5483                           ; BSR set to: 0
  5484                           ;ST7735_TFT.c: 423: unsigned char cursor_x, cursor_y;
  5485                           ;ST7735_TFT.c: 424: unsigned int textsize, i;
  5486                           ;ST7735_TFT.c: 425: cursor_x = x, cursor_y = y;
  5487  000D54  C0F3  F0F9         	movff	drawtext@x,drawtext@cursor_x
  5488                           
  5489                           ; BSR set to: 0
  5490  000D58  C039  F0F8         	movff	drawtext@y,drawtext@cursor_y
  5491                           
  5492                           ; BSR set to: 0
  5493                           ;ST7735_TFT.c: 426: textsize = strlen(_text);
  5494  000D5C  C03A  F011         	movff	drawtext@_text,strlen@s
  5495  000D60  C03B  F012         	movff	drawtext@_text+1,strlen@s+1
  5496  000D64  EC25  F00E         	call	_strlen	;wreg free
  5497  000D68  C011  F0F4         	movff	?_strlen,drawtext@textsize
  5498  000D6C  C012  F0F5         	movff	?_strlen+1,drawtext@textsize+1
  5499                           
  5500                           ;ST7735_TFT.c: 427: for(i = 0; i < textsize; i++){
  5501  000D70  0E00               	movlw	0
  5502  000D72  0100               	movlb	0	; () banked
  5503  000D74  6FF7               	movwf	(drawtext@i+1)& (0+255),b
  5504  000D76  0E00               	movlw	0
  5505  000D78  6FF6               	movwf	drawtext@i& (0+255),b
  5506  000D7A  D064               	goto	l5688
  5507  000D7C                     l5662:
  5508                           
  5509                           ; BSR set to: 0
  5510                           ;ST7735_TFT.c: 428: if(wrap && ((cursor_x + size * 5) > 128)){
  5511  000D7C  506E               	movf	_wrap,w,c
  5512  000D7E  B4D8               	btfsc	status,2,c
  5513  000D80  D034               	goto	l5678
  5514                           
  5515                           ; BSR set to: 0
  5516  000D82  5040               	movf	drawtext@size,w,c
  5517  000D84  0D05               	mullw	5
  5518  000D86  0100               	movlb	0	; () banked
  5519  000D88  51F9               	movf	drawtext@cursor_x& (0+255),w,b
  5520  000D8A  6E41               	movwf	??_drawtext& (0+255),c
  5521  000D8C  6A42               	clrf	(??_drawtext+1)& (0+255),c
  5522  000D8E  50F3               	movf	prodl,w,c
  5523  000D90  2641               	addwf	??_drawtext,f,c
  5524  000D92  50F4               	movf	prodh,w,c
  5525  000D94  2242               	addwfc	??_drawtext+1,f,c
  5526  000D96  BE42               	btfsc	??_drawtext+1,7,c
  5527  000D98  D028               	goto	l5678
  5528  000D9A  5042               	movf	??_drawtext+1,w,c
  5529  000D9C  E104               	bnz	u4110
  5530  000D9E  0E81               	movlw	129
  5531  000DA0  5C41               	subwf	??_drawtext,w,c
  5532  000DA2  A0D8               	btfss	status,0,c
  5533  000DA4  D022               	goto	l5678
  5534  000DA6                     u4110:
  5535                           
  5536                           ; BSR set to: 0
  5537                           ;ST7735_TFT.c: 429: cursor_x = 0;
  5538  000DA6  0E00               	movlw	0
  5539  000DA8  0100               	movlb	0	; () banked
  5540  000DAA  6FF9               	movwf	drawtext@cursor_x& (0+255),b
  5541                           
  5542                           ; BSR set to: 0
  5543                           ;ST7735_TFT.c: 430: cursor_y = cursor_y + size * 7 + 3 ;
  5544  000DAC  5040               	movf	drawtext@size,w,c
  5545  000DAE  0D07               	mullw	7
  5546  000DB0  50F3               	movf	prodl,w,c
  5547  000DB2  0100               	movlb	0	; () banked
  5548  000DB4  25F8               	addwf	drawtext@cursor_y& (0+255),w,b
  5549  000DB6  0F03               	addlw	3
  5550  000DB8  0100               	movlb	0	; () banked
  5551  000DBA  6FF8               	movwf	drawtext@cursor_y& (0+255),b
  5552                           
  5553                           ; BSR set to: 0
  5554                           ;ST7735_TFT.c: 431: if(cursor_y > 160) cursor_y = 160;
  5555  000DBC  0EA0               	movlw	160
  5556  000DBE  0100               	movlb	0	; () banked
  5557  000DC0  65F8               	cpfsgt	drawtext@cursor_y& (0+255),b
  5558  000DC2  D004               	goto	l5674
  5559                           
  5560                           ; BSR set to: 0
  5561  000DC4  0EA0               	movlw	160
  5562  000DC6  0100               	movlb	0	; () banked
  5563  000DC8  6FF8               	movwf	drawtext@cursor_y& (0+255),b
  5564  000DCA  D000               	goto	l5674
  5565  000DCC                     l5674:
  5566                           
  5567                           ; BSR set to: 0
  5568                           ;ST7735_TFT.c: 432: if(_text[i] == 0x20) goto _skip; }
  5569  000DCC  0100               	movlb	0	; () banked
  5570  000DCE  51F6               	movf	drawtext@i& (0+255),w,b
  5571  000DD0  243A               	addwf	drawtext@_text,w,c
  5572  000DD2  6ED9               	movwf	fsr2l,c
  5573  000DD4  0100               	movlb	0	; () banked
  5574  000DD6  51F7               	movf	(drawtext@i+1)& (0+255),w,b
  5575  000DD8  203B               	addwfc	drawtext@_text+1,w,c
  5576  000DDA  6EDA               	movwf	fsr2h,c
  5577  000DDC  0E20               	movlw	32
  5578  000DDE  18DE               	xorwf	postinc2,w,c
  5579  000DE0  B4D8               	btfsc	status,2,c
  5580  000DE2  D02C               	goto	l5686
  5581  000DE4  D002               	goto	l5678
  5582                           
  5583                           ; BSR set to: 0
  5584  000DE6  D02A               	goto	l5686
  5585                           
  5586                           ; BSR set to: 0
  5587  000DE8  D000               	goto	l5678
  5588  000DEA                     l5678:
  5589                           
  5590                           ; BSR set to: 0
  5591                           ;ST7735_TFT.c: 433: drawChar(cursor_x, cursor_y, _text[i], color, bg, size);
  5592  000DEA  C0F8  F02E         	movff	drawtext@cursor_y,drawChar@y
  5593  000DEE  0100               	movlb	0	; () banked
  5594  000DF0  51F6               	movf	drawtext@i& (0+255),w,b
  5595  000DF2  243A               	addwf	drawtext@_text,w,c
  5596  000DF4  6ED9               	movwf	fsr2l,c
  5597  000DF6  0100               	movlb	0	; () banked
  5598  000DF8  51F7               	movf	(drawtext@i+1)& (0+255),w,b
  5599  000DFA  203B               	addwfc	drawtext@_text+1,w,c
  5600  000DFC  6EDA               	movwf	fsr2h,c
  5601  000DFE  50DF               	movf	indf2,w,c
  5602  000E00  6E2F               	movwf	drawChar@c,c
  5603  000E02  C03C  F030         	movff	drawtext@color,drawChar@color
  5604  000E06  C03D  F031         	movff	drawtext@color+1,drawChar@color+1
  5605  000E0A  C03E  F032         	movff	drawtext@bg,drawChar@bg
  5606  000E0E  C03F  F033         	movff	drawtext@bg+1,drawChar@bg+1
  5607  000E12  C040  F034         	movff	drawtext@size,drawChar@size
  5608  000E16  0100               	movlb	0	; () banked
  5609  000E18  51F9               	movf	drawtext@cursor_x& (0+255),w,b
  5610  000E1A  ECD9  F004         	call	_drawChar
  5611                           
  5612                           ;ST7735_TFT.c: 434: cursor_x = cursor_x + size * 6;
  5613  000E1E  5040               	movf	drawtext@size,w,c
  5614  000E20  0D06               	mullw	6
  5615  000E22  50F3               	movf	prodl,w,c
  5616  000E24  0100               	movlb	0	; () banked
  5617  000E26  25F9               	addwf	drawtext@cursor_x& (0+255),w,b
  5618  000E28  0100               	movlb	0	; () banked
  5619  000E2A  6FF9               	movwf	drawtext@cursor_x& (0+255),b
  5620                           
  5621                           ; BSR set to: 0
  5622                           ;ST7735_TFT.c: 435: if(cursor_x > 128) cursor_x = 128;
  5623  000E2C  0E80               	movlw	128
  5624  000E2E  0100               	movlb	0	; () banked
  5625  000E30  65F9               	cpfsgt	drawtext@cursor_x& (0+255),b
  5626  000E32  D004               	goto	l5686
  5627                           
  5628                           ; BSR set to: 0
  5629  000E34  0E80               	movlw	128
  5630  000E36  0100               	movlb	0	; () banked
  5631  000E38  6FF9               	movwf	drawtext@cursor_x& (0+255),b
  5632                           
  5633                           ; BSR set to: 0
  5634  000E3A  D000               	goto	l5686
  5635  000E3C                     l5686:
  5636                           
  5637                           ; BSR set to: 0
  5638  000E3C  0100               	movlb	0	; () banked
  5639  000E3E  4BF6               	infsnz	drawtext@i& (0+255),f,b
  5640  000E40  2BF7               	incf	(drawtext@i+1)& (0+255),f,b
  5641  000E42  D000               	goto	l5688
  5642  000E44                     l5688:
  5643                           
  5644                           ; BSR set to: 0
  5645  000E44  0100               	movlb	0	; () banked
  5646  000E46  51F4               	movf	drawtext@textsize& (0+255),w,b
  5647  000E48  0100               	movlb	0	; () banked
  5648  000E4A  5DF6               	subwf	drawtext@i& (0+255),w,b
  5649  000E4C  0100               	movlb	0	; () banked
  5650  000E4E  51F5               	movf	(drawtext@textsize+1)& (0+255),w,b
  5651  000E50  0100               	movlb	0	; () banked
  5652  000E52  59F7               	subwfb	(drawtext@i+1)& (0+255),w,b
  5653  000E54  A0D8               	btfss	status,0,c
  5654  000E56  D792               	goto	l5662
  5655                           
  5656                           ; BSR set to: 0
  5657                           
  5658                           ; BSR set to: 0
  5659  000E58  0012               	return		;funcret
  5660  000E5A                     __end_of_drawtext:
  5661                           	opt stack 0
  5662                           tblptru	equ	0xFF8
  5663                           tblptrh	equ	0xFF7
  5664                           tblptrl	equ	0xFF6
  5665                           tablat	equ	0xFF5
  5666                           prodh	equ	0xFF4
  5667                           prodl	equ	0xFF3
  5668                           intcon2	equ	0xFF1
  5669                           postinc0	equ	0xFEE
  5670                           wreg	equ	0xFE8
  5671                           postdec1	equ	0xFE5
  5672                           fsr1l	equ	0xFE1
  5673                           indf2	equ	0xFDF
  5674                           postinc2	equ	0xFDE
  5675                           postdec2	equ	0xFDD
  5676                           fsr2h	equ	0xFDA
  5677                           fsr2l	equ	0xFD9
  5678                           status	equ	0xFD8
  5679                           
  5680 ;; *************** function _strlen *****************
  5681 ;; Defined at:
  5682 ;;		line 4 in file "C:\Program Files (x86)\Microchip\xc8\v1.34\sources\common\strlen.c"
  5683 ;; Parameters:    Size  Location     Type
  5684 ;;  s               2   16[COMRAM] PTR const unsigned char 
  5685 ;;		 -> NULL(0), txt1(84), Timing_Txt(10), buffer(31), 
  5686 ;; Auto vars:     Size  Location     Type
  5687 ;;  cp              2   20[COMRAM] PTR const unsigned char 
  5688 ;;		 -> NULL(0), txt1(84), Timing_Txt(10), buffer(31), 
  5689 ;; Return value:  Size  Location     Type
  5690 ;;                  2   16[COMRAM] unsigned int 
  5691 ;; Registers used:
  5692 ;;		wreg, fsr2l, fsr2h, status,2, status,0
  5693 ;; Tracked objects:
  5694 ;;		On entry : 0/0
  5695 ;;		On exit  : 0/0
  5696 ;;		Unchanged: 0/0
  5697 ;; Data sizes:     COMRAM   BANK0   BANK1   BANK2   BANK3   BANK4   BANK5   BANK6   BANK7   BANK8   BANK9  BANK10  BANK1
      +1  BANK12  BANK13  BANK14  BANK15
  5698 ;;      Params:         2       0       0       0       0       0       0       0       0       0       0       0       
      +0       0       0       0       0
  5699 ;;      Locals:         2       0       0       0       0       0       0       0       0       0       0       0       
      +0       0       0       0       0
  5700 ;;      Temps:          2       0       0       0       0       0       0       0       0       0       0       0       
      +0       0       0       0       0
  5701 ;;      Totals:         6       0       0       0       0       0       0       0       0       0       0       0       
      +0       0       0       0       0
  5702 ;;Total ram usage:        6 bytes
  5703 ;; Hardware stack levels used:    1
  5704 ;; Hardware stack levels required when called:    3
  5705 ;; This function calls:
  5706 ;;		Nothing
  5707 ;; This function is called by:
  5708 ;;		_drawtext
  5709 ;; This function uses a non-reentrant model
  5710 ;;
  5711                           
  5712                           	psect	text21
  5713  001C4A                     __ptext21:
  5714                           	opt stack 0
  5715  001C4A                     _strlen:
  5716                           	opt stack 26
  5717                           
  5718                           ; BSR set to: 0
  5719                           ;incstack = 0
  5720  001C4A  C011  F015         	movff	strlen@s,strlen@cp
  5721  001C4E  C012  F016         	movff	strlen@s+1,strlen@cp+1
  5722  001C52  D003               	goto	l5498
  5723  001C54                     l5496:
  5724  001C54  4A15               	infsnz	strlen@cp,f,c
  5725  001C56  2A16               	incf	strlen@cp+1,f,c
  5726  001C58  D000               	goto	l5498
  5727  001C5A                     l5498:
  5728  001C5A  C015  FFD9         	movff	strlen@cp,fsr2l
  5729  001C5E  C016  FFDA         	movff	strlen@cp+1,fsr2h
  5730  001C62  50DF               	movf	indf2,w,c
  5731  001C64  A4D8               	btfss	status,2,c
  5732  001C66  D7F6               	goto	l5496
  5733  001C68  C011  F013         	movff	strlen@s,??_strlen
  5734  001C6C  C012  F014         	movff	strlen@s+1,??_strlen+1
  5735  001C70  1E13               	comf	??_strlen,f,c
  5736  001C72  1E14               	comf	??_strlen+1,f,c
  5737  001C74  4A13               	infsnz	??_strlen,f,c
  5738  001C76  2A14               	incf	??_strlen+1,f,c
  5739  001C78  5015               	movf	strlen@cp,w,c
  5740  001C7A  2413               	addwf	??_strlen,w,c
  5741  001C7C  6E11               	movwf	?_strlen,c
  5742  001C7E  5016               	movf	strlen@cp+1,w,c
  5743  001C80  2014               	addwfc	??_strlen+1,w,c
  5744  001C82  6E12               	movwf	?_strlen+1,c
  5745  001C84  D000               	goto	l1440
  5746  001C86                     l1440:
  5747  001C86  0012               	return		;funcret
  5748  001C88                     __end_of_strlen:
  5749                           	opt stack 0
  5750                           tblptru	equ	0xFF8
  5751                           tblptrh	equ	0xFF7
  5752                           tblptrl	equ	0xFF6
  5753                           tablat	equ	0xFF5
  5754                           prodh	equ	0xFF4
  5755                           prodl	equ	0xFF3
  5756                           intcon2	equ	0xFF1
  5757                           postinc0	equ	0xFEE
  5758                           wreg	equ	0xFE8
  5759                           postdec1	equ	0xFE5
  5760                           fsr1l	equ	0xFE1
  5761                           indf2	equ	0xFDF
  5762                           postinc2	equ	0xFDE
  5763                           postdec2	equ	0xFDD
  5764                           fsr2h	equ	0xFDA
  5765                           fsr2l	equ	0xFD9
  5766                           status	equ	0xFD8
  5767                           
  5768 ;; *************** function _drawChar *****************
  5769 ;; Defined at:
  5770 ;;		line 394 in file "../ST7735_TFT.c"
  5771 ;; Parameters:    Size  Location     Type
  5772 ;;  x               1    wreg     unsigned char 
  5773 ;;  y               1   45[COMRAM] unsigned char 
  5774 ;;  c               1   46[COMRAM] unsigned char 
  5775 ;;  color           2   47[COMRAM] unsigned int 
  5776 ;;  bg              2   49[COMRAM] unsigned int 
  5777 ;;  size            1   51[COMRAM] unsigned char 
  5778 ;; Auto vars:     Size  Location     Type
  5779 ;;  x               1   53[COMRAM] unsigned char 
  5780 ;;  line            1   52[COMRAM] unsigned char 
  5781 ;;  i               1   55[COMRAM] unsigned char 
  5782 ;;  j               1   54[COMRAM] unsigned char 
  5783 ;; Return value:  Size  Location     Type
  5784 ;;		None               void
  5785 ;; Registers used:
  5786 ;;		wreg, status,2, status,0, tblptrl, tblptrh, tblptru, prodl, prodh, cstack
  5787 ;; Tracked objects:
  5788 ;;		On entry : 0/0
  5789 ;;		On exit  : 0/0
  5790 ;;		Unchanged: 0/0
  5791 ;; Data sizes:     COMRAM   BANK0   BANK1   BANK2   BANK3   BANK4   BANK5   BANK6   BANK7   BANK8   BANK9  BANK10  BANK1
      +1  BANK12  BANK13  BANK14  BANK15
  5792 ;;      Params:         7       0       0       0       0       0       0       0       0       0       0       0       
      +0       0       0       0       0
  5793 ;;      Locals:         4       0       0       0       0       0       0       0       0       0       0       0       
      +0       0       0       0       0
  5794 ;;      Temps:          0       0       0       0       0       0       0       0       0       0       0       0       
      +0       0       0       0       0
  5795 ;;      Totals:        11       0       0       0       0       0       0       0       0       0       0       0       
      +0       0       0       0       0
  5796 ;;Total ram usage:       11 bytes
  5797 ;; Hardware stack levels used:    1
  5798 ;; Hardware stack levels required when called:    8
  5799 ;; This function calls:
  5800 ;;		___wmul
  5801 ;;		_drawPixel
  5802 ;;		_fillRect
  5803 ;; This function is called by:
  5804 ;;		_drawtext
  5805 ;; This function uses a non-reentrant model
  5806 ;;
  5807                           
  5808                           	psect	text22
  5809  0009B2                     __ptext22:
  5810                           	opt stack 0
  5811  0009B2                     _drawChar:
  5812                           	opt stack 21
  5813                           
  5814                           ;incstack = 0
  5815                           ;drawChar@x stored from wreg
  5816  0009B2  6E36               	movwf	drawChar@x,c
  5817                           
  5818                           ;ST7735_TFT.c: 396: char i, j;
  5819                           ;ST7735_TFT.c: 397: if((x >= 128) || (y >= 160))
  5820  0009B4  0E80               	movlw	128
  5821  0009B6  6036               	cpfslt	drawChar@x,c
  5822  0009B8  D0A6               	goto	l396
  5823  0009BA  0E9F               	movlw	159
  5824  0009BC  642E               	cpfsgt	drawChar@y,c
  5825  0009BE  D001               	goto	l5444
  5826                           
  5827                           ;ST7735_TFT.c: 398: return;
  5828  0009C0  D0A2               	goto	l396
  5829  0009C2                     l5444:
  5830                           
  5831                           ;ST7735_TFT.c: 399: if(size < 1) size = 1;
  5832  0009C2  5034               	movf	drawChar@size,w,c
  5833  0009C4  A4D8               	btfss	status,2,c
  5834  0009C6  D003               	goto	l5448
  5835  0009C8  0E01               	movlw	1
  5836  0009CA  6E34               	movwf	drawChar@size,c
  5837  0009CC  D000               	goto	l5448
  5838  0009CE                     l5448:
  5839                           
  5840                           ;ST7735_TFT.c: 400: if((c < ' ') || (c > '~'))
  5841  0009CE  0E1F               	movlw	31
  5842  0009D0  642F               	cpfsgt	drawChar@c,c
  5843  0009D2  D004               	goto	l5452
  5844  0009D4  0E7E               	movlw	126
  5845  0009D6  642F               	cpfsgt	drawChar@c,c
  5846  0009D8  D003               	goto	l398
  5847  0009DA  D000               	goto	l5452
  5848  0009DC                     l5452:
  5849                           
  5850                           ;ST7735_TFT.c: 401: c = '?';
  5851  0009DC  0E3F               	movlw	63
  5852  0009DE  6E2F               	movwf	drawChar@c,c
  5853  0009E0                     l398:
  5854                           
  5855                           ;ST7735_TFT.c: 402: for(i=0; i<5; i++ ) {
  5856  0009E0  0E00               	movlw	0
  5857  0009E2  6E38               	movwf	drawChar@i,c
  5858  0009E4                     l5454:
  5859  0009E4  0E04               	movlw	4
  5860  0009E6  6438               	cpfsgt	drawChar@i,c
  5861  0009E8  D001               	goto	l5458
  5862  0009EA  D08D               	goto	l396
  5863  0009EC                     l5458:
  5864                           
  5865                           ;ST7735_TFT.c: 403: unsigned char line;
  5866                           ;ST7735_TFT.c: 404: if(c < 'S')
  5867  0009EC  0E53               	movlw	83
  5868  0009EE  602F               	cpfslt	drawChar@c,c
  5869  0009F0  D015               	goto	l5462
  5870                           
  5871                           ;ST7735_TFT.c: 405: line = font[(c - 32)*5 + i];
  5872  0009F2  0EE0               	movlw	224
  5873  0009F4  242F               	addwf	drawChar@c,w,c
  5874  0009F6  6E11               	movwf	___wmul@multiplier,c
  5875  0009F8  6A12               	clrf	___wmul@multiplier+1,c
  5876  0009FA  0EFF               	movlw	255
  5877  0009FC  2212               	addwfc	___wmul@multiplier+1,f,c
  5878  0009FE  0E00               	movlw	0
  5879  000A00  6E14               	movwf	___wmul@multiplicand+1,c
  5880  000A02  0E05               	movlw	5
  5881  000A04  6E13               	movwf	___wmul@multiplicand,c
  5882  000A06  ECE6  F00E         	call	___wmul	;wreg free
  5883  000A0A  5038               	movf	drawChar@i,w,c
  5884  000A0C  2611               	addwf	?___wmul,f,c
  5885  000A0E  0E00               	movlw	0
  5886  000A10  2212               	addwfc	?___wmul+1,f,c
  5887  000A12  0E73               	movlw	low _font
  5888  000A14  2411               	addwf	?___wmul,w,c
  5889  000A16  6EF6               	movwf	tblptrl,c
  5890  000A18  0EFD               	movlw	high _font
  5891  000A1A  D014               	goto	L2
  5892  000A1C                     l5462:
  5893                           
  5894                           ;ST7735_TFT.c: 406: else
  5895                           ;ST7735_TFT.c: 407: line = font2[(c - 'S')*5 + i];
  5896  000A1C  0EAD               	movlw	173
  5897  000A1E  242F               	addwf	drawChar@c,w,c
  5898  000A20  6E11               	movwf	___wmul@multiplier,c
  5899  000A22  6A12               	clrf	___wmul@multiplier+1,c
  5900  000A24  0EFF               	movlw	255
  5901  000A26  2212               	addwfc	___wmul@multiplier+1,f,c
  5902  000A28  0E00               	movlw	0
  5903  000A2A  6E14               	movwf	___wmul@multiplicand+1,c
  5904  000A2C  0E05               	movlw	5
  5905  000A2E  6E13               	movwf	___wmul@multiplicand,c
  5906  000A30  ECE6  F00E         	call	___wmul	;wreg free
  5907  000A34  5038               	movf	drawChar@i,w,c
  5908  000A36  2611               	addwf	?___wmul,f,c
  5909  000A38  0E00               	movlw	0
  5910  000A3A  2212               	addwfc	?___wmul+1,f,c
  5911  000A3C  0E72               	movlw	low _font2
  5912  000A3E  2411               	addwf	?___wmul,w,c
  5913  000A40  6EF6               	movwf	tblptrl,c
  5914  000A42  0EFE               	movlw	high _font2
  5915  000A44                     L2:
  5916  000A44  2012               	addwfc	?___wmul+1,w,c
  5917  000A46  6EF7               	movwf	tblptrh,c
  5918  000A48                     	if	0	;There are less than 3 active tblptr bytes
  5919  000A48                     	endif
  5920  000A48  0008               	tblrd		*
  5921  000A4A  CFF5 F035          	movff	tablat,drawChar@line
  5922  000A4E  D000               	goto	l5464
  5923  000A50                     l5464:
  5924                           
  5925                           ;ST7735_TFT.c: 408: for(j=0; j<7; j++, line >>= 1) {
  5926  000A50  0E00               	movlw	0
  5927  000A52  6E37               	movwf	drawChar@j,c
  5928  000A54                     l5466:
  5929  000A54  0E06               	movlw	6
  5930  000A56  6437               	cpfsgt	drawChar@j,c
  5931  000A58  D001               	goto	l405
  5932  000A5A  D053               	goto	l5490
  5933  000A5C                     l405:
  5934                           
  5935                           ;ST7735_TFT.c: 409: if(line & 0x01) {
  5936  000A5C  A035               	btfss	drawChar@line,0,c
  5937  000A5E  D023               	goto	l5476
  5938                           
  5939                           ;ST7735_TFT.c: 410: if(size == 1) drawPixel(x+i, y+j, color);
  5940  000A60  0434               	decf	drawChar@size,w,c
  5941  000A62  A4D8               	btfss	status,2,c
  5942  000A64  D00C               	goto	l5474
  5943  000A66  502E               	movf	drawChar@y,w,c
  5944  000A68  2437               	addwf	drawChar@j,w,c
  5945  000A6A  6E18               	movwf	drawPixel@y,c
  5946  000A6C  C030  F019         	movff	drawChar@color,drawPixel@color
  5947  000A70  C031  F01A         	movff	drawChar@color+1,drawPixel@color+1
  5948  000A74  5036               	movf	drawChar@x,w,c
  5949  000A76  2438               	addwf	drawChar@i,w,c
  5950  000A78  ECB9  F00E         	call	_drawPixel
  5951  000A7C  D03E               	goto	l5484
  5952  000A7E                     l5474:
  5953                           
  5954                           ;ST7735_TFT.c: 411: else fillRect(x+(i*size), y+(j*size), size, size, color);
  5955  000A7E  5037               	movf	drawChar@j,w,c
  5956  000A80  0234               	mulwf	drawChar@size,c
  5957  000A82  50F3               	movf	prodl,w,c
  5958  000A84  242E               	addwf	drawChar@y,w,c
  5959  000A86  6E23               	movwf	fillRect@y,c
  5960  000A88  C034  F024         	movff	drawChar@size,fillRect@w
  5961  000A8C  C034  F025         	movff	drawChar@size,fillRect@h
  5962  000A90  C030  F026         	movff	drawChar@color,fillRect@color
  5963  000A94  C031  F027         	movff	drawChar@color+1,fillRect@color+1
  5964  000A98  5038               	movf	drawChar@i,w,c
  5965  000A9A  0234               	mulwf	drawChar@size,c
  5966  000A9C  50F3               	movf	prodl,w,c
  5967  000A9E  2436               	addwf	drawChar@x,w,c
  5968  000AA0  EC9D  F00D         	call	_fillRect
  5969                           
  5970                           ;ST7735_TFT.c: 412: }
  5971  000AA4  D02A               	goto	l5484
  5972  000AA6                     l5476:
  5973                           
  5974                           ;ST7735_TFT.c: 413: else if(bg != color) {
  5975  000AA6  5030               	movf	drawChar@color,w,c
  5976  000AA8  1832               	xorwf	drawChar@bg,w,c
  5977  000AAA  E104               	bnz	u3920
  5978  000AAC  5031               	movf	drawChar@color+1,w,c
  5979  000AAE  1833               	xorwf	drawChar@bg+1,w,c
  5980  000AB0  B4D8               	btfsc	status,2,c
  5981  000AB2  D023               	goto	l5484
  5982  000AB4                     u3920:
  5983                           
  5984                           ;ST7735_TFT.c: 414: if(size == 1) drawPixel(x+i, y+j, bg);
  5985  000AB4  0434               	decf	drawChar@size,w,c
  5986  000AB6  A4D8               	btfss	status,2,c
  5987  000AB8  D00C               	goto	l5482
  5988  000ABA  502E               	movf	drawChar@y,w,c
  5989  000ABC  2437               	addwf	drawChar@j,w,c
  5990  000ABE  6E18               	movwf	drawPixel@y,c
  5991  000AC0  C032  F019         	movff	drawChar@bg,drawPixel@color
  5992  000AC4  C033  F01A         	movff	drawChar@bg+1,drawPixel@color+1
  5993  000AC8  5036               	movf	drawChar@x,w,c
  5994  000ACA  2438               	addwf	drawChar@i,w,c
  5995  000ACC  ECB9  F00E         	call	_drawPixel
  5996  000AD0  D014               	goto	l5484
  5997  000AD2                     l5482:
  5998                           
  5999                           ;ST7735_TFT.c: 415: else fillRect(x+i*size, y+j*size, size, size, bg);
  6000  000AD2  5037               	movf	drawChar@j,w,c
  6001  000AD4  0234               	mulwf	drawChar@size,c
  6002  000AD6  50F3               	movf	prodl,w,c
  6003  000AD8  242E               	addwf	drawChar@y,w,c
  6004  000ADA  6E23               	movwf	fillRect@y,c
  6005  000ADC  C034  F024         	movff	drawChar@size,fillRect@w
  6006  000AE0  C034  F025         	movff	drawChar@size,fillRect@h
  6007  000AE4  C032  F026         	movff	drawChar@bg,fillRect@color
  6008  000AE8  C033  F027         	movff	drawChar@bg+1,fillRect@color+1
  6009  000AEC  5038               	movf	drawChar@i,w,c
  6010  000AEE  0234               	mulwf	drawChar@size,c
  6011  000AF0  50F3               	movf	prodl,w,c
  6012  000AF2  2436               	addwf	drawChar@x,w,c
  6013  000AF4  EC9D  F00D         	call	_fillRect
  6014  000AF8  D000               	goto	l5484
  6015  000AFA                     l5484:
  6016  000AFA  2A37               	incf	drawChar@j,f,c
  6017  000AFC  90D8               	bcf	status,0,c
  6018  000AFE  3235               	rrcf	drawChar@line,f,c
  6019  000B00  D7A9               	goto	l5466
  6020  000B02                     l5490:
  6021  000B02  2A38               	incf	drawChar@i,f,c
  6022  000B04  D76F               	goto	l5454
  6023  000B06                     l396:
  6024  000B06  0012               	return		;funcret
  6025  000B08                     __end_of_drawChar:
  6026                           	opt stack 0
  6027                           tblptru	equ	0xFF8
  6028                           tblptrh	equ	0xFF7
  6029                           tblptrl	equ	0xFF6
  6030                           tablat	equ	0xFF5
  6031                           prodh	equ	0xFF4
  6032                           prodl	equ	0xFF3
  6033                           intcon2	equ	0xFF1
  6034                           postinc0	equ	0xFEE
  6035                           wreg	equ	0xFE8
  6036                           postdec1	equ	0xFE5
  6037                           fsr1l	equ	0xFE1
  6038                           indf2	equ	0xFDF
  6039                           postinc2	equ	0xFDE
  6040                           postdec2	equ	0xFDD
  6041                           fsr2h	equ	0xFDA
  6042                           fsr2l	equ	0xFD9
  6043                           status	equ	0xFD8
  6044                           
  6045 ;; *************** function _fillRect *****************
  6046 ;; Defined at:
  6047 ;;		line 384 in file "../ST7735_TFT.c"
  6048 ;; Parameters:    Size  Location     Type
  6049 ;;  x               1    wreg     unsigned char 
  6050 ;;  y               1   34[COMRAM] unsigned char 
  6051 ;;  w               1   35[COMRAM] unsigned char 
  6052 ;;  h               1   36[COMRAM] unsigned char 
  6053 ;;  color           2   37[COMRAM] unsigned int 
  6054 ;; Auto vars:     Size  Location     Type
  6055 ;;  x               1   42[COMRAM] unsigned char 
  6056 ;;  i               2   43[COMRAM] int 
  6057 ;; Return value:  Size  Location     Type
  6058 ;;		None               void
  6059 ;; Registers used:
  6060 ;;		wreg, status,2, status,0, cstack
  6061 ;; Tracked objects:
  6062 ;;		On entry : 0/0
  6063 ;;		On exit  : 0/0
  6064 ;;		Unchanged: 0/0
  6065 ;; Data sizes:     COMRAM   BANK0   BANK1   BANK2   BANK3   BANK4   BANK5   BANK6   BANK7   BANK8   BANK9  BANK10  BANK1
      +1  BANK12  BANK13  BANK14  BANK15
  6066 ;;      Params:         5       0       0       0       0       0       0       0       0       0       0       0       
      +0       0       0       0       0
  6067 ;;      Locals:         3       0       0       0       0       0       0       0       0       0       0       0       
      +0       0       0       0       0
  6068 ;;      Temps:          3       0       0       0       0       0       0       0       0       0       0       0       
      +0       0       0       0       0
  6069 ;;      Totals:        11       0       0       0       0       0       0       0       0       0       0       0       
      +0       0       0       0       0
  6070 ;;Total ram usage:       11 bytes
  6071 ;; Hardware stack levels used:    1
  6072 ;; Hardware stack levels required when called:    7
  6073 ;; This function calls:
  6074 ;;		_drawFastVLine
  6075 ;; This function is called by:
  6076 ;;		_drawChar
  6077 ;; This function uses a non-reentrant model
  6078 ;;
  6079                           
  6080                           	psect	text23
  6081  001B3A                     __ptext23:
  6082                           	opt stack 0
  6083  001B3A                     _fillRect:
  6084                           	opt stack 21
  6085                           
  6086                           ;incstack = 0
  6087                           ;fillRect@x stored from wreg
  6088  001B3A  6E2B               	movwf	fillRect@x,c
  6089                           
  6090                           ;ST7735_TFT.c: 386: signed int i;
  6091                           ;ST7735_TFT.c: 388: for (i = x; i < x + w; i++)
  6092  001B3C  C02B  F02C         	movff	fillRect@x,fillRect@i
  6093  001B40  6A2D               	clrf	fillRect@i+1,c
  6094  001B42  D00E               	goto	l5130
  6095  001B44                     l5126:
  6096                           
  6097                           ;ST7735_TFT.c: 389: {
  6098                           ;ST7735_TFT.c: 390: drawFastVLine(i, y, h, color);
  6099  001B44  C023  F018         	movff	fillRect@y,drawFastVLine@y
  6100  001B48  C025  F019         	movff	fillRect@h,drawFastVLine@h
  6101  001B4C  C026  F01A         	movff	fillRect@color,drawFastVLine@color
  6102  001B50  C027  F01B         	movff	fillRect@color+1,drawFastVLine@color+1
  6103  001B54  502C               	movf	fillRect@i,w,c
  6104  001B56  ECD5  F00A         	call	_drawFastVLine
  6105  001B5A  4A2C               	infsnz	fillRect@i,f,c
  6106  001B5C  2A2D               	incf	fillRect@i+1,f,c
  6107  001B5E  D000               	goto	l5130
  6108  001B60                     l5130:
  6109  001B60  5024               	movf	fillRect@w,w,c
  6110  001B62  C02B  F028         	movff	fillRect@x,??_fillRect
  6111  001B66  6A29               	clrf	(??_fillRect+1)& (0+255),c
  6112  001B68  2628               	addwf	??_fillRect,f,c
  6113  001B6A  0E00               	movlw	0
  6114  001B6C  2229               	addwfc	??_fillRect+1,f,c
  6115  001B6E  5028               	movf	??_fillRect,w,c
  6116  001B70  5C2C               	subwf	fillRect@i,w,c
  6117  001B72  502D               	movf	fillRect@i+1,w,c
  6118  001B74  0A80               	xorlw	128
  6119  001B76  6E2A               	movwf	(??_fillRect+2)& (0+255),c
  6120  001B78  5029               	movf	??_fillRect+1,w,c
  6121  001B7A  0A80               	xorlw	128
  6122  001B7C  582A               	subwfb	(??_fillRect+2)& (0+255),w,c
  6123  001B7E  A0D8               	btfss	status,0,c
  6124  001B80  D7E1               	goto	l5126
  6125  001B82  0012               	return		;funcret
  6126  001B84                     __end_of_fillRect:
  6127                           	opt stack 0
  6128                           tblptru	equ	0xFF8
  6129                           tblptrh	equ	0xFF7
  6130                           tblptrl	equ	0xFF6
  6131                           tablat	equ	0xFF5
  6132                           prodh	equ	0xFF4
  6133                           prodl	equ	0xFF3
  6134                           intcon2	equ	0xFF1
  6135                           postinc0	equ	0xFEE
  6136                           wreg	equ	0xFE8
  6137                           postdec1	equ	0xFE5
  6138                           fsr1l	equ	0xFE1
  6139                           indf2	equ	0xFDF
  6140                           postinc2	equ	0xFDE
  6141                           postdec2	equ	0xFDD
  6142                           fsr2h	equ	0xFDA
  6143                           fsr2l	equ	0xFD9
  6144                           status	equ	0xFD8
  6145                           
  6146 ;; *************** function _drawFastVLine *****************
  6147 ;; Defined at:
  6148 ;;		line 363 in file "../ST7735_TFT.c"
  6149 ;; Parameters:    Size  Location     Type
  6150 ;;  x               1    wreg     unsigned char 
  6151 ;;  y               1   23[COMRAM] unsigned char 
  6152 ;;  h               1   24[COMRAM] unsigned char 
  6153 ;;  color           2   25[COMRAM] unsigned int 
  6154 ;; Auto vars:     Size  Location     Type
  6155 ;;  x               1   33[COMRAM] unsigned char 
  6156 ;;  lo              1   32[COMRAM] unsigned char 
  6157 ;;  hi              1   31[COMRAM] unsigned char 
  6158 ;; Return value:  Size  Location     Type
  6159 ;;		None               void
  6160 ;; Registers used:
  6161 ;;		wreg, status,2, status,0, cstack
  6162 ;; Tracked objects:
  6163 ;;		On entry : 0/0
  6164 ;;		On exit  : 0/0
  6165 ;;		Unchanged: 0/0
  6166 ;; Data sizes:     COMRAM   BANK0   BANK1   BANK2   BANK3   BANK4   BANK5   BANK6   BANK7   BANK8   BANK9  BANK10  BANK1
      +1  BANK12  BANK13  BANK14  BANK15
  6167 ;;      Params:         4       0       0       0       0       0       0       0       0       0       0       0       
      +0       0       0       0       0
  6168 ;;      Locals:         3       0       0       0       0       0       0       0       0       0       0       0       
      +0       0       0       0       0
  6169 ;;      Temps:          4       0       0       0       0       0       0       0       0       0       0       0       
      +0       0       0       0       0
  6170 ;;      Totals:        11       0       0       0       0       0       0       0       0       0       0       0       
      +0       0       0       0       0
  6171 ;;Total ram usage:       11 bytes
  6172 ;; Hardware stack levels used:    1
  6173 ;; Hardware stack levels required when called:    6
  6174 ;; This function calls:
  6175 ;;		_setAddrWindow
  6176 ;;		_spiwrite
  6177 ;; This function is called by:
  6178 ;;		_fillRect
  6179 ;;		_fillCircleHelper
  6180 ;;		_fillCircle
  6181 ;;		_drawRect
  6182 ;; This function uses a non-reentrant model
  6183 ;;
  6184                           
  6185                           	psect	text24
  6186  0015AA                     __ptext24:
  6187                           	opt stack 0
  6188  0015AA                     _drawFastVLine:
  6189                           	opt stack 22
  6190                           
  6191                           ;incstack = 0
  6192                           ;drawFastVLine@x stored from wreg
  6193  0015AA  6E22               	movwf	drawFastVLine@x,c
  6194                           
  6195                           ;ST7735_TFT.c: 365: unsigned char hi, lo;
  6196                           ;ST7735_TFT.c: 366: if((x >= 128) || (y >= 160))
  6197  0015AC  0E80               	movlw	128
  6198  0015AE  6022               	cpfslt	drawFastVLine@x,c
  6199  0015B0  D03F               	goto	l380
  6200  0015B2  0E9F               	movlw	159
  6201  0015B4  6418               	cpfsgt	drawFastVLine@y,c
  6202  0015B6  D001               	goto	l5030
  6203                           
  6204                           ;ST7735_TFT.c: 367: return;
  6205  0015B8  D03B               	goto	l380
  6206  0015BA                     l5030:
  6207                           
  6208                           ;ST7735_TFT.c: 368: if((y + h - 1) >= 160)
  6209  0015BA  0EFF               	movlw	255
  6210  0015BC  6E1C               	movwf	??_drawFastVLine& (0+255),c
  6211  0015BE  0EFF               	movlw	255
  6212  0015C0  6E1D               	movwf	(??_drawFastVLine+1)& (0+255),c
  6213  0015C2  5019               	movf	drawFastVLine@h,w,c
  6214  0015C4  C018  F01E         	movff	drawFastVLine@y,??_drawFastVLine+2
  6215  0015C8  6A1F               	clrf	(??_drawFastVLine+3)& (0+255),c
  6216  0015CA  261E               	addwf	??_drawFastVLine+2,f,c
  6217  0015CC  0E00               	movlw	0
  6218  0015CE  221F               	addwfc	??_drawFastVLine+3,f,c
  6219  0015D0  501C               	movf	??_drawFastVLine,w,c
  6220  0015D2  261E               	addwf	??_drawFastVLine+2,f,c
  6221  0015D4  501D               	movf	??_drawFastVLine+1,w,c
  6222  0015D6  221F               	addwfc	??_drawFastVLine+3,f,c
  6223  0015D8  BE1F               	btfsc	??_drawFastVLine+3,7,c
  6224  0015DA  D00B               	goto	l5034
  6225  0015DC  501F               	movf	??_drawFastVLine+3,w,c
  6226  0015DE  E104               	bnz	u3440
  6227  0015E0  0EA0               	movlw	160
  6228  0015E2  5C1E               	subwf	??_drawFastVLine+2,w,c
  6229  0015E4  A0D8               	btfss	status,0,c
  6230  0015E6  D005               	goto	l5034
  6231  0015E8                     u3440:
  6232                           
  6233                           ;ST7735_TFT.c: 369: h = 160 - y;
  6234  0015E8  5018               	movf	drawFastVLine@y,w,c
  6235  0015EA  0800               	sublw	0
  6236  0015EC  0FA0               	addlw	160
  6237  0015EE  6E19               	movwf	drawFastVLine@h,c
  6238  0015F0  D000               	goto	l5034
  6239  0015F2                     l5034:
  6240                           
  6241                           ;ST7735_TFT.c: 370: hi = color >> 8; lo = color;
  6242  0015F2  501B               	movf	drawFastVLine@color+1,w,c
  6243  0015F4  6E20               	movwf	drawFastVLine@hi,c
  6244  0015F6  C01A  F021         	movff	drawFastVLine@color,drawFastVLine@lo
  6245                           
  6246                           ;ST7735_TFT.c: 371: setAddrWindow(x, y, x, y + h - 1);
  6247  0015FA  C018  F014         	movff	drawFastVLine@y,setAddrWindow@y0
  6248  0015FE  C022  F015         	movff	drawFastVLine@x,setAddrWindow@x1
  6249  001602  5018               	movf	drawFastVLine@y,w,c
  6250  001604  2419               	addwf	drawFastVLine@h,w,c
  6251  001606  6E1C               	movwf	??_drawFastVLine& (0+255),c
  6252  001608  041C               	decf	??_drawFastVLine,w,c
  6253  00160A  6E16               	movwf	setAddrWindow@y1,c
  6254  00160C  5022               	movf	drawFastVLine@x,w,c
  6255  00160E  EC2A  F00D         	call	_setAddrWindow
  6256                           
  6257                           ;ST7735_TFT.c: 372: PORTDbits.RD3 = 1;
  6258  001612  8683               	bsf	3971,3,c	;volatile
  6259                           
  6260                           ;ST7735_TFT.c: 373: PORTDbits.RD4 = 0;
  6261  001614  9883               	bcf	3971,4,c	;volatile
  6262                           
  6263                           ;ST7735_TFT.c: 375: while (h--) {
  6264  001616  D007               	goto	l5046
  6265  001618                     l5044:
  6266                           
  6267                           ;ST7735_TFT.c: 376: spiwrite(hi);
  6268  001618  5020               	movf	drawFastVLine@hi,w,c
  6269  00161A  ECA9  F00F         	call	_spiwrite
  6270                           
  6271                           ;ST7735_TFT.c: 377: spiwrite(lo);
  6272  00161E  5021               	movf	drawFastVLine@lo,w,c
  6273  001620  ECA9  F00F         	call	_spiwrite
  6274  001624  D000               	goto	l5046
  6275  001626                     l5046:
  6276  001626  0619               	decf	drawFastVLine@h,f,c
  6277  001628  2819               	incf	drawFastVLine@h,w,c
  6278  00162A  A4D8               	btfss	status,2,c
  6279  00162C  D7F5               	goto	l5044
  6280                           
  6281                           ;ST7735_TFT.c: 378: }
  6282                           ;ST7735_TFT.c: 379: PORTDbits.RD4 = 1;
  6283  00162E  8883               	bsf	3971,4,c	;volatile
  6284  001630                     l380:
  6285  001630  0012               	return		;funcret
  6286  001632                     __end_of_drawFastVLine:
  6287                           	opt stack 0
  6288                           tblptru	equ	0xFF8
  6289                           tblptrh	equ	0xFF7
  6290                           tblptrl	equ	0xFF6
  6291                           tablat	equ	0xFF5
  6292                           prodh	equ	0xFF4
  6293                           prodl	equ	0xFF3
  6294                           intcon2	equ	0xFF1
  6295                           postinc0	equ	0xFEE
  6296                           wreg	equ	0xFE8
  6297                           postdec1	equ	0xFE5
  6298                           fsr1l	equ	0xFE1
  6299                           indf2	equ	0xFDF
  6300                           postinc2	equ	0xFDE
  6301                           postdec2	equ	0xFDD
  6302                           fsr2h	equ	0xFDA
  6303                           fsr2l	equ	0xFD9
  6304                           status	equ	0xFD8
  6305                           
  6306 ;; *************** function _drawPixel *****************
  6307 ;; Defined at:
  6308 ;;		line 354 in file "../ST7735_TFT.c"
  6309 ;; Parameters:    Size  Location     Type
  6310 ;;  x               1    wreg     unsigned char 
  6311 ;;  y               1   23[COMRAM] unsigned char 
  6312 ;;  color           2   24[COMRAM] unsigned int 
  6313 ;; Auto vars:     Size  Location     Type
  6314 ;;  x               1   26[COMRAM] unsigned char 
  6315 ;; Return value:  Size  Location     Type
  6316 ;;		None               void
  6317 ;; Registers used:
  6318 ;;		wreg, status,2, status,0, cstack
  6319 ;; Tracked objects:
  6320 ;;		On entry : 0/0
  6321 ;;		On exit  : 0/0
  6322 ;;		Unchanged: 0/0
  6323 ;; Data sizes:     COMRAM   BANK0   BANK1   BANK2   BANK3   BANK4   BANK5   BANK6   BANK7   BANK8   BANK9  BANK10  BANK1
      +1  BANK12  BANK13  BANK14  BANK15
  6324 ;;      Params:         3       0       0       0       0       0       0       0       0       0       0       0       
      +0       0       0       0       0
  6325 ;;      Locals:         1       0       0       0       0       0       0       0       0       0       0       0       
      +0       0       0       0       0
  6326 ;;      Temps:          0       0       0       0       0       0       0       0       0       0       0       0       
      +0       0       0       0       0
  6327 ;;      Totals:         4       0       0       0       0       0       0       0       0       0       0       0       
      +0       0       0       0       0
  6328 ;;Total ram usage:        4 bytes
  6329 ;; Hardware stack levels used:    1
  6330 ;; Hardware stack levels required when called:    6
  6331 ;; This function calls:
  6332 ;;		_setAddrWindow
  6333 ;;		_write_data
  6334 ;; This function is called by:
  6335 ;;		_drawChar
  6336 ;;		_drawCircle
  6337 ;;		_drawCircleHelper
  6338 ;; This function uses a non-reentrant model
  6339 ;;
  6340                           
  6341                           	psect	text25
  6342  001D72                     __ptext25:
  6343                           	opt stack 0
  6344  001D72                     _drawPixel:
  6345                           	opt stack 22
  6346                           
  6347                           ;incstack = 0
  6348                           ;drawPixel@x stored from wreg
  6349  001D72  6E1B               	movwf	drawPixel@x,c
  6350                           
  6351                           ;ST7735_TFT.c: 356: if((x >= 128) || (y >= 160))
  6352  001D74  0E80               	movlw	128
  6353  001D76  601B               	cpfslt	drawPixel@x,c
  6354  001D78  D013               	goto	l374
  6355  001D7A  0E9F               	movlw	159
  6356  001D7C  6418               	cpfsgt	drawPixel@y,c
  6357  001D7E  D001               	goto	l5118
  6358                           
  6359                           ;ST7735_TFT.c: 357: return;
  6360  001D80  D00F               	goto	l374
  6361  001D82                     l5118:
  6362                           
  6363                           ;ST7735_TFT.c: 358: setAddrWindow(x,y,x+1,y+1);
  6364  001D82  C018  F014         	movff	drawPixel@y,setAddrWindow@y0
  6365  001D86  281B               	incf	drawPixel@x,w,c
  6366  001D88  6E15               	movwf	setAddrWindow@x1,c
  6367  001D8A  2818               	incf	drawPixel@y,w,c
  6368  001D8C  6E16               	movwf	setAddrWindow@y1,c
  6369  001D8E  501B               	movf	drawPixel@x,w,c
  6370  001D90  EC2A  F00D         	call	_setAddrWindow
  6371                           
  6372                           ;ST7735_TFT.c: 359: write_data(color >> 8);
  6373  001D94  501A               	movf	drawPixel@color+1,w,c
  6374  001D96  ECFB  F00F         	call	_write_data
  6375                           
  6376                           ;ST7735_TFT.c: 360: write_data(color & 0xFF);
  6377  001D9A  5019               	movf	drawPixel@color,w,c
  6378  001D9C  ECFB  F00F         	call	_write_data
  6379  001DA0                     l374:
  6380  001DA0  0012               	return		;funcret
  6381  001DA2                     __end_of_drawPixel:
  6382                           	opt stack 0
  6383                           tblptru	equ	0xFF8
  6384                           tblptrh	equ	0xFF7
  6385                           tblptrl	equ	0xFF6
  6386                           tablat	equ	0xFF5
  6387                           prodh	equ	0xFF4
  6388                           prodl	equ	0xFF3
  6389                           intcon2	equ	0xFF1
  6390                           postinc0	equ	0xFEE
  6391                           wreg	equ	0xFE8
  6392                           postdec1	equ	0xFE5
  6393                           fsr1l	equ	0xFE1
  6394                           indf2	equ	0xFDF
  6395                           postinc2	equ	0xFDE
  6396                           postdec2	equ	0xFDD
  6397                           fsr2h	equ	0xFDA
  6398                           fsr2l	equ	0xFD9
  6399                           status	equ	0xFD8
  6400                           
  6401 ;; *************** function _setAddrWindow *****************
  6402 ;; Defined at:
  6403 ;;		line 339 in file "../ST7735_TFT.c"
  6404 ;; Parameters:    Size  Location     Type
  6405 ;;  x0              1    wreg     unsigned char 
  6406 ;;  y0              1   19[COMRAM] unsigned char 
  6407 ;;  x1              1   20[COMRAM] unsigned char 
  6408 ;;  y1              1   21[COMRAM] unsigned char 
  6409 ;; Auto vars:     Size  Location     Type
  6410 ;;  x0              1   22[COMRAM] unsigned char 
  6411 ;; Return value:  Size  Location     Type
  6412 ;;		None               void
  6413 ;; Registers used:
  6414 ;;		wreg, status,2, status,0, cstack
  6415 ;; Tracked objects:
  6416 ;;		On entry : 0/0
  6417 ;;		On exit  : 0/0
  6418 ;;		Unchanged: 0/0
  6419 ;; Data sizes:     COMRAM   BANK0   BANK1   BANK2   BANK3   BANK4   BANK5   BANK6   BANK7   BANK8   BANK9  BANK10  BANK1
      +1  BANK12  BANK13  BANK14  BANK15
  6420 ;;      Params:         3       0       0       0       0       0       0       0       0       0       0       0       
      +0       0       0       0       0
  6421 ;;      Locals:         1       0       0       0       0       0       0       0       0       0       0       0       
      +0       0       0       0       0
  6422 ;;      Temps:          0       0       0       0       0       0       0       0       0       0       0       0       
      +0       0       0       0       0
  6423 ;;      Totals:         4       0       0       0       0       0       0       0       0       0       0       0       
      +0       0       0       0       0
  6424 ;;Total ram usage:        4 bytes
  6425 ;; Hardware stack levels used:    1
  6426 ;; Hardware stack levels required when called:    5
  6427 ;; This function calls:
  6428 ;;		_write_command
  6429 ;;		_write_data
  6430 ;; This function is called by:
  6431 ;;		_drawPixel
  6432 ;;		_drawFastVLine
  6433 ;;		_fillRectangle
  6434 ;;		_drawFastHLine
  6435 ;; This function uses a non-reentrant model
  6436 ;;
  6437                           
  6438                           	psect	text26
  6439  001A54                     __ptext26:
  6440                           	opt stack 0
  6441  001A54                     _setAddrWindow:
  6442                           	opt stack 22
  6443                           
  6444                           ;incstack = 0
  6445                           ;setAddrWindow@x0 stored from wreg
  6446  001A54  6E17               	movwf	setAddrWindow@x0,c
  6447                           
  6448                           ;ST7735_TFT.c: 341: write_command(0x2A);
  6449  001A56  0E2A               	movlw	42
  6450  001A58  EC03  F010         	call	_write_command
  6451                           
  6452                           ;ST7735_TFT.c: 342: write_data(0);
  6453  001A5C  0E00               	movlw	0
  6454  001A5E  ECFB  F00F         	call	_write_data
  6455                           
  6456                           ;ST7735_TFT.c: 343: write_data(x0 + colstart);
  6457  001A62  5017               	movf	setAddrWindow@x0,w,c
  6458  001A64  245A               	addwf	_colstart,w,c
  6459  001A66  ECFB  F00F         	call	_write_data
  6460                           
  6461                           ;ST7735_TFT.c: 344: write_data(0);
  6462  001A6A  0E00               	movlw	0
  6463  001A6C  ECFB  F00F         	call	_write_data
  6464                           
  6465                           ;ST7735_TFT.c: 345: write_data(x1 + colstart);
  6466  001A70  5015               	movf	setAddrWindow@x1,w,c
  6467  001A72  245A               	addwf	_colstart,w,c
  6468  001A74  ECFB  F00F         	call	_write_data
  6469                           
  6470                           ;ST7735_TFT.c: 346: write_command(0x2B);
  6471  001A78  0E2B               	movlw	43
  6472  001A7A  EC03  F010         	call	_write_command
  6473                           
  6474                           ;ST7735_TFT.c: 347: write_data(0);
  6475  001A7E  0E00               	movlw	0
  6476  001A80  ECFB  F00F         	call	_write_data
  6477                           
  6478                           ;ST7735_TFT.c: 348: write_data(y0 + rowstart);
  6479  001A84  5014               	movf	setAddrWindow@y0,w,c
  6480  001A86  2461               	addwf	_rowstart,w,c
  6481  001A88  ECFB  F00F         	call	_write_data
  6482                           
  6483                           ;ST7735_TFT.c: 349: write_data(0);
  6484  001A8C  0E00               	movlw	0
  6485  001A8E  ECFB  F00F         	call	_write_data
  6486                           
  6487                           ;ST7735_TFT.c: 350: write_data(y1 + rowstart);
  6488  001A92  5016               	movf	setAddrWindow@y1,w,c
  6489  001A94  2461               	addwf	_rowstart,w,c
  6490  001A96  ECFB  F00F         	call	_write_data
  6491                           
  6492                           ;ST7735_TFT.c: 351: write_command(0x2C);
  6493  001A9A  0E2C               	movlw	44
  6494  001A9C  EC03  F010         	call	_write_command
  6495  001AA0  0012               	return		;funcret
  6496  001AA2                     __end_of_setAddrWindow:
  6497                           	opt stack 0
  6498                           tblptru	equ	0xFF8
  6499                           tblptrh	equ	0xFF7
  6500                           tblptrl	equ	0xFF6
  6501                           tablat	equ	0xFF5
  6502                           prodh	equ	0xFF4
  6503                           prodl	equ	0xFF3
  6504                           intcon2	equ	0xFF1
  6505                           postinc0	equ	0xFEE
  6506                           wreg	equ	0xFE8
  6507                           postdec1	equ	0xFE5
  6508                           fsr1l	equ	0xFE1
  6509                           indf2	equ	0xFDF
  6510                           postinc2	equ	0xFDE
  6511                           postdec2	equ	0xFDD
  6512                           fsr2h	equ	0xFDA
  6513                           fsr2l	equ	0xFD9
  6514                           status	equ	0xFD8
  6515                           
  6516 ;; *************** function _TFT_GreenTab_Initialize *****************
  6517 ;; Defined at:
  6518 ;;		line 591 in file "../ST7735_TFT.c"
  6519 ;; Parameters:    Size  Location     Type
  6520 ;;		None
  6521 ;; Auto vars:     Size  Location     Type
  6522 ;;		None
  6523 ;; Return value:  Size  Location     Type
  6524 ;;		None               void
  6525 ;; Registers used:
  6526 ;;		wreg, status,2, status,0, prodl, prodh, cstack
  6527 ;; Tracked objects:
  6528 ;;		On entry : 0/0
  6529 ;;		On exit  : 0/0
  6530 ;;		Unchanged: 0/0
  6531 ;; Data sizes:     COMRAM   BANK0   BANK1   BANK2   BANK3   BANK4   BANK5   BANK6   BANK7   BANK8   BANK9  BANK10  BANK1
      +1  BANK12  BANK13  BANK14  BANK15
  6532 ;;      Params:         0       0       0       0       0       0       0       0       0       0       0       0       
      +0       0       0       0       0
  6533 ;;      Locals:         0       0       0       0       0       0       0       0       0       0       0       0       
      +0       0       0       0       0
  6534 ;;      Temps:          0       0       0       0       0       0       0       0       0       0       0       0       
      +0       0       0       0       0
  6535 ;;      Totals:         0       0       0       0       0       0       0       0       0       0       0       0       
      +0       0       0       0       0
  6536 ;;Total ram usage:        0 bytes
  6537 ;; Hardware stack levels used:    1
  6538 ;; Hardware stack levels required when called:    6
  6539 ;; This function calls:
  6540 ;;		_Rcmd1
  6541 ;;		_Rcmd2red
  6542 ;;		_Rcmd3
  6543 ;;		_write_command
  6544 ;;		_write_data
  6545 ;; This function is called by:
  6546 ;;		_Initialize_LCD_Screen
  6547 ;; This function uses a non-reentrant model
  6548 ;;
  6549                           
  6550                           	psect	text27
  6551  001DA2                     __ptext27:
  6552                           	opt stack 0
  6553  001DA2                     _TFT_GreenTab_Initialize:
  6554                           	opt stack 23
  6555                           
  6556                           ;ST7735_TFT.c: 593: PORTDbits.RD4 = 1;
  6557                           
  6558                           ;incstack = 0
  6559  001DA2  8883               	bsf	3971,4,c	;volatile
  6560                           
  6561                           ;ST7735_TFT.c: 594: PORTDbits.RD3 = 0;
  6562  001DA4  9683               	bcf	3971,3,c	;volatile
  6563                           
  6564                           ;ST7735_TFT.c: 596: SSPSTAT=0x80;
  6565  001DA6  0E80               	movlw	128
  6566  001DA8  6EC7               	movwf	4039,c	;volatile
  6567                           
  6568                           ;ST7735_TFT.c: 597: SSPCON1=0x30;
  6569  001DAA  0E30               	movlw	48
  6570  001DAC  6EC6               	movwf	4038,c	;volatile
  6571                           
  6572                           ;ST7735_TFT.c: 600: Rcmd1();
  6573  001DAE  EC20  F006         	call	_Rcmd1	;wreg free
  6574                           
  6575                           ;ST7735_TFT.c: 601: Rcmd2red();
  6576  001DB2  EC44  F00E         	call	_Rcmd2red	;wreg free
  6577                           
  6578                           ;ST7735_TFT.c: 602: Rcmd3();
  6579  001DB6  ECA9  F007         	call	_Rcmd3	;wreg free
  6580                           
  6581                           ;ST7735_TFT.c: 603: write_command(0x36);
  6582  001DBA  0E36               	movlw	54
  6583  001DBC  EC03  F010         	call	_write_command
  6584                           
  6585                           ;ST7735_TFT.c: 604: write_data(0xC0);
  6586  001DC0  0EC0               	movlw	192
  6587  001DC2  ECFB  F00F         	call	_write_data
  6588                           
  6589                           ;ST7735_TFT.c: 605: _tft_type = 1;
  6590  001DC6  0E01               	movlw	1
  6591  001DC8  6E54               	movwf	__tft_type,c
  6592  001DCA  0012               	return		;funcret
  6593  001DCC                     __end_of_TFT_GreenTab_Initialize:
  6594                           	opt stack 0
  6595                           tblptru	equ	0xFF8
  6596                           tblptrh	equ	0xFF7
  6597                           tblptrl	equ	0xFF6
  6598                           tablat	equ	0xFF5
  6599                           prodh	equ	0xFF4
  6600                           prodl	equ	0xFF3
  6601                           intcon2	equ	0xFF1
  6602                           postinc0	equ	0xFEE
  6603                           wreg	equ	0xFE8
  6604                           postdec1	equ	0xFE5
  6605                           fsr1l	equ	0xFE1
  6606                           indf2	equ	0xFDF
  6607                           postinc2	equ	0xFDE
  6608                           postdec2	equ	0xFDD
  6609                           fsr2h	equ	0xFDA
  6610                           fsr2l	equ	0xFD9
  6611                           status	equ	0xFD8
  6612                           
  6613 ;; *************** function _Rcmd3 *****************
  6614 ;; Defined at:
  6615 ;;		line 285 in file "../ST7735_TFT.c"
  6616 ;; Parameters:    Size  Location     Type
  6617 ;;		None
  6618 ;; Auto vars:     Size  Location     Type
  6619 ;;		None
  6620 ;; Return value:  Size  Location     Type
  6621 ;;		None               void
  6622 ;; Registers used:
  6623 ;;		wreg, status,2, status,0, prodl, prodh, cstack
  6624 ;; Tracked objects:
  6625 ;;		On entry : 0/0
  6626 ;;		On exit  : 0/0
  6627 ;;		Unchanged: 0/0
  6628 ;; Data sizes:     COMRAM   BANK0   BANK1   BANK2   BANK3   BANK4   BANK5   BANK6   BANK7   BANK8   BANK9  BANK10  BANK1
      +1  BANK12  BANK13  BANK14  BANK15
  6629 ;;      Params:         0       0       0       0       0       0       0       0       0       0       0       0       
      +0       0       0       0       0
  6630 ;;      Locals:         0       0       0       0       0       0       0       0       0       0       0       0       
      +0       0       0       0       0
  6631 ;;      Temps:          0       0       0       0       0       0       0       0       0       0       0       0       
      +0       0       0       0       0
  6632 ;;      Totals:         0       0       0       0       0       0       0       0       0       0       0       0       
      +0       0       0       0       0
  6633 ;;Total ram usage:        0 bytes
  6634 ;; Hardware stack levels used:    1
  6635 ;; Hardware stack levels required when called:    5
  6636 ;; This function calls:
  6637 ;;		_delay_ms
  6638 ;;		_write_command
  6639 ;;		_write_data
  6640 ;; This function is called by:
  6641 ;;		_TFT_GreenTab_Initialize
  6642 ;;		_TFT_BlackTab_Initialize
  6643 ;; This function uses a non-reentrant model
  6644 ;;
  6645                           
  6646                           	psect	text28
  6647  000F52                     __ptext28:
  6648                           	opt stack 0
  6649  000F52                     _Rcmd3:
  6650                           	opt stack 23
  6651                           
  6652                           ;ST7735_TFT.c: 287: write_command(0xE0);
  6653                           
  6654                           ;incstack = 0
  6655  000F52  0EE0               	movlw	224
  6656  000F54  EC03  F010         	call	_write_command
  6657                           
  6658                           ;ST7735_TFT.c: 288: write_data(0x02); write_data(0x1C); write_data(0x07); write_data(0x1
      +                          2);
  6659  000F58  0E02               	movlw	2
  6660  000F5A  ECFB  F00F         	call	_write_data
  6661  000F5E  0E1C               	movlw	28
  6662  000F60  ECFB  F00F         	call	_write_data
  6663  000F64  0E07               	movlw	7
  6664  000F66  ECFB  F00F         	call	_write_data
  6665  000F6A  0E12               	movlw	18
  6666  000F6C  ECFB  F00F         	call	_write_data
  6667                           
  6668                           ;ST7735_TFT.c: 289: write_data(0x37); write_data(0x32); write_data(0x29); write_data(0x2
      +                          D);
  6669  000F70  0E37               	movlw	55
  6670  000F72  ECFB  F00F         	call	_write_data
  6671  000F76  0E32               	movlw	50
  6672  000F78  ECFB  F00F         	call	_write_data
  6673  000F7C  0E29               	movlw	41
  6674  000F7E  ECFB  F00F         	call	_write_data
  6675  000F82  0E2D               	movlw	45
  6676  000F84  ECFB  F00F         	call	_write_data
  6677                           
  6678                           ;ST7735_TFT.c: 290: write_data(0x29); write_data(0x25); write_data(0x2B); write_data(0x3
      +                          9);
  6679  000F88  0E29               	movlw	41
  6680  000F8A  ECFB  F00F         	call	_write_data
  6681  000F8E  0E25               	movlw	37
  6682  000F90  ECFB  F00F         	call	_write_data
  6683  000F94  0E2B               	movlw	43
  6684  000F96  ECFB  F00F         	call	_write_data
  6685  000F9A  0E39               	movlw	57
  6686  000F9C  ECFB  F00F         	call	_write_data
  6687                           
  6688                           ;ST7735_TFT.c: 291: write_data(0x00); write_data(0x01); write_data(0x03); write_data(0x1
      +                          0);
  6689  000FA0  0E00               	movlw	0
  6690  000FA2  ECFB  F00F         	call	_write_data
  6691  000FA6  0E01               	movlw	1
  6692  000FA8  ECFB  F00F         	call	_write_data
  6693  000FAC  0E03               	movlw	3
  6694  000FAE  ECFB  F00F         	call	_write_data
  6695  000FB2  0E10               	movlw	16
  6696  000FB4  ECFB  F00F         	call	_write_data
  6697                           
  6698                           ;ST7735_TFT.c: 292: write_command(0xE1);
  6699  000FB8  0EE1               	movlw	225
  6700  000FBA  EC03  F010         	call	_write_command
  6701                           
  6702                           ;ST7735_TFT.c: 293: write_data(0x03); write_data(0x1D); write_data(0x07); write_data(0x0
      +                          6);
  6703  000FBE  0E03               	movlw	3
  6704  000FC0  ECFB  F00F         	call	_write_data
  6705  000FC4  0E1D               	movlw	29
  6706  000FC6  ECFB  F00F         	call	_write_data
  6707  000FCA  0E07               	movlw	7
  6708  000FCC  ECFB  F00F         	call	_write_data
  6709  000FD0  0E06               	movlw	6
  6710  000FD2  ECFB  F00F         	call	_write_data
  6711                           
  6712                           ;ST7735_TFT.c: 294: write_data(0x2E); write_data(0x2C); write_data(0x29); write_data(0x2
      +                          D);
  6713  000FD6  0E2E               	movlw	46
  6714  000FD8  ECFB  F00F         	call	_write_data
  6715  000FDC  0E2C               	movlw	44
  6716  000FDE  ECFB  F00F         	call	_write_data
  6717  000FE2  0E29               	movlw	41
  6718  000FE4  ECFB  F00F         	call	_write_data
  6719  000FE8  0E2D               	movlw	45
  6720  000FEA  ECFB  F00F         	call	_write_data
  6721                           
  6722                           ;ST7735_TFT.c: 295: write_data(0x2E); write_data(0x2E); write_data(0x37); write_data(0x3
      +                          F);
  6723  000FEE  0E2E               	movlw	46
  6724  000FF0  ECFB  F00F         	call	_write_data
  6725  000FF4  0E2E               	movlw	46
  6726  000FF6  ECFB  F00F         	call	_write_data
  6727  000FFA  0E37               	movlw	55
  6728  000FFC  ECFB  F00F         	call	_write_data
  6729  001000  0E3F               	movlw	63
  6730  001002  ECFB  F00F         	call	_write_data
  6731                           
  6732                           ;ST7735_TFT.c: 296: write_data(0x00); write_data(0x00); write_data(0x02); write_data(0x1
      +                          0);
  6733  001006  0E00               	movlw	0
  6734  001008  ECFB  F00F         	call	_write_data
  6735  00100C  0E00               	movlw	0
  6736  00100E  ECFB  F00F         	call	_write_data
  6737  001012  0E02               	movlw	2
  6738  001014  ECFB  F00F         	call	_write_data
  6739  001018  0E10               	movlw	16
  6740  00101A  ECFB  F00F         	call	_write_data
  6741                           
  6742                           ;ST7735_TFT.c: 297: write_command(0x13);
  6743  00101E  0E13               	movlw	19
  6744  001020  EC03  F010         	call	_write_command
  6745                           
  6746                           ;ST7735_TFT.c: 298: delay_ms(10);
  6747  001024  0E00               	movlw	0
  6748  001026  6E18               	movwf	delay_ms@ms+1,c
  6749  001028  0E0A               	movlw	10
  6750  00102A  6E17               	movwf	delay_ms@ms,c
  6751  00102C  EC01  F00D         	call	_delay_ms	;wreg free
  6752                           
  6753                           ;ST7735_TFT.c: 299: write_command(0x29);
  6754  001030  0E29               	movlw	41
  6755  001032  EC03  F010         	call	_write_command
  6756                           
  6757                           ;ST7735_TFT.c: 300: delay_ms(100);
  6758  001036  0E00               	movlw	0
  6759  001038  6E18               	movwf	delay_ms@ms+1,c
  6760  00103A  0E64               	movlw	100
  6761  00103C  6E17               	movwf	delay_ms@ms,c
  6762  00103E  EC01  F00D         	call	_delay_ms	;wreg free
  6763  001042  0012               	return		;funcret
  6764  001044                     __end_of_Rcmd3:
  6765                           	opt stack 0
  6766                           tblptru	equ	0xFF8
  6767                           tblptrh	equ	0xFF7
  6768                           tblptrl	equ	0xFF6
  6769                           tablat	equ	0xFF5
  6770                           prodh	equ	0xFF4
  6771                           prodl	equ	0xFF3
  6772                           intcon2	equ	0xFF1
  6773                           postinc0	equ	0xFEE
  6774                           wreg	equ	0xFE8
  6775                           postdec1	equ	0xFE5
  6776                           fsr1l	equ	0xFE1
  6777                           indf2	equ	0xFDF
  6778                           postinc2	equ	0xFDE
  6779                           postdec2	equ	0xFDD
  6780                           fsr2h	equ	0xFDA
  6781                           fsr2l	equ	0xFD9
  6782                           status	equ	0xFD8
  6783                           
  6784 ;; *************** function _Rcmd2red *****************
  6785 ;; Defined at:
  6786 ;;		line 275 in file "../ST7735_TFT.c"
  6787 ;; Parameters:    Size  Location     Type
  6788 ;;		None
  6789 ;; Auto vars:     Size  Location     Type
  6790 ;;		None
  6791 ;; Return value:  Size  Location     Type
  6792 ;;		None               void
  6793 ;; Registers used:
  6794 ;;		wreg, status,2, cstack
  6795 ;; Tracked objects:
  6796 ;;		On entry : 0/0
  6797 ;;		On exit  : 0/0
  6798 ;;		Unchanged: 0/0
  6799 ;; Data sizes:     COMRAM   BANK0   BANK1   BANK2   BANK3   BANK4   BANK5   BANK6   BANK7   BANK8   BANK9  BANK10  BANK1
      +1  BANK12  BANK13  BANK14  BANK15
  6800 ;;      Params:         0       0       0       0       0       0       0       0       0       0       0       0       
      +0       0       0       0       0
  6801 ;;      Locals:         0       0       0       0       0       0       0       0       0       0       0       0       
      +0       0       0       0       0
  6802 ;;      Temps:          0       0       0       0       0       0       0       0       0       0       0       0       
      +0       0       0       0       0
  6803 ;;      Totals:         0       0       0       0       0       0       0       0       0       0       0       0       
      +0       0       0       0       0
  6804 ;;Total ram usage:        0 bytes
  6805 ;; Hardware stack levels used:    1
  6806 ;; Hardware stack levels required when called:    5
  6807 ;; This function calls:
  6808 ;;		_write_command
  6809 ;;		_write_data
  6810 ;; This function is called by:
  6811 ;;		_TFT_GreenTab_Initialize
  6812 ;; This function uses a non-reentrant model
  6813 ;;
  6814                           
  6815                           	psect	text29
  6816  001C88                     __ptext29:
  6817                           	opt stack 0
  6818  001C88                     _Rcmd2red:
  6819                           	opt stack 23
  6820                           
  6821                           ;ST7735_TFT.c: 277: write_command(0x2A);
  6822                           
  6823                           ;incstack = 0
  6824  001C88  0E2A               	movlw	42
  6825  001C8A  EC03  F010         	call	_write_command
  6826                           
  6827                           ;ST7735_TFT.c: 278: write_data(0x00); write_data(0x00);
  6828  001C8E  0E00               	movlw	0
  6829  001C90  ECFB  F00F         	call	_write_data
  6830  001C94  0E00               	movlw	0
  6831  001C96  ECFB  F00F         	call	_write_data
  6832                           
  6833                           ;ST7735_TFT.c: 279: write_data(0x00); write_data(0x7F);
  6834  001C9A  0E00               	movlw	0
  6835  001C9C  ECFB  F00F         	call	_write_data
  6836  001CA0  0E7F               	movlw	127
  6837  001CA2  ECFB  F00F         	call	_write_data
  6838                           
  6839                           ;ST7735_TFT.c: 280: write_command(0x2B);
  6840  001CA6  0E2B               	movlw	43
  6841  001CA8  EC03  F010         	call	_write_command
  6842                           
  6843                           ;ST7735_TFT.c: 281: write_data(0x00); write_data(0x00);
  6844  001CAC  0E00               	movlw	0
  6845  001CAE  ECFB  F00F         	call	_write_data
  6846  001CB2  0E00               	movlw	0
  6847  001CB4  ECFB  F00F         	call	_write_data
  6848                           
  6849                           ;ST7735_TFT.c: 282: write_data(0x00); write_data(0x9F);
  6850  001CB8  0E00               	movlw	0
  6851  001CBA  ECFB  F00F         	call	_write_data
  6852  001CBE  0E9F               	movlw	159
  6853  001CC0  ECFB  F00F         	call	_write_data
  6854  001CC4  0012               	return		;funcret
  6855  001CC6                     __end_of_Rcmd2red:
  6856                           	opt stack 0
  6857                           tblptru	equ	0xFF8
  6858                           tblptrh	equ	0xFF7
  6859                           tblptrl	equ	0xFF6
  6860                           tablat	equ	0xFF5
  6861                           prodh	equ	0xFF4
  6862                           prodl	equ	0xFF3
  6863                           intcon2	equ	0xFF1
  6864                           postinc0	equ	0xFEE
  6865                           wreg	equ	0xFE8
  6866                           postdec1	equ	0xFE5
  6867                           fsr1l	equ	0xFE1
  6868                           indf2	equ	0xFDF
  6869                           postinc2	equ	0xFDE
  6870                           postdec2	equ	0xFDD
  6871                           fsr2h	equ	0xFDA
  6872                           fsr2l	equ	0xFD9
  6873                           status	equ	0xFD8
  6874                           
  6875 ;; *************** function _Rcmd1 *****************
  6876 ;; Defined at:
  6877 ;;		line 228 in file "../ST7735_TFT.c"
  6878 ;; Parameters:    Size  Location     Type
  6879 ;;		None
  6880 ;; Auto vars:     Size  Location     Type
  6881 ;;		None
  6882 ;; Return value:  Size  Location     Type
  6883 ;;		None               void
  6884 ;; Registers used:
  6885 ;;		wreg, status,2, status,0, prodl, prodh, cstack
  6886 ;; Tracked objects:
  6887 ;;		On entry : 0/0
  6888 ;;		On exit  : 0/0
  6889 ;;		Unchanged: 0/0
  6890 ;; Data sizes:     COMRAM   BANK0   BANK1   BANK2   BANK3   BANK4   BANK5   BANK6   BANK7   BANK8   BANK9  BANK10  BANK1
      +1  BANK12  BANK13  BANK14  BANK15
  6891 ;;      Params:         0       0       0       0       0       0       0       0       0       0       0       0       
      +0       0       0       0       0
  6892 ;;      Locals:         0       0       0       0       0       0       0       0       0       0       0       0       
      +0       0       0       0       0
  6893 ;;      Temps:          0       0       0       0       0       0       0       0       0       0       0       0       
      +0       0       0       0       0
  6894 ;;      Totals:         0       0       0       0       0       0       0       0       0       0       0       0       
      +0       0       0       0       0
  6895 ;;Total ram usage:        0 bytes
  6896 ;; Hardware stack levels used:    1
  6897 ;; Hardware stack levels required when called:    5
  6898 ;; This function calls:
  6899 ;;		_delay_ms
  6900 ;;		_write_command
  6901 ;;		_write_data
  6902 ;; This function is called by:
  6903 ;;		_TFT_GreenTab_Initialize
  6904 ;;		_TFT_BlackTab_Initialize
  6905 ;; This function uses a non-reentrant model
  6906 ;;
  6907                           
  6908                           	psect	text30
  6909  000C40                     __ptext30:
  6910                           	opt stack 0
  6911  000C40                     _Rcmd1:
  6912                           	opt stack 23
  6913                           
  6914                           ;ST7735_TFT.c: 230: write_command(0x01);
  6915                           
  6916                           ;incstack = 0
  6917  000C40  0E01               	movlw	1
  6918  000C42  EC03  F010         	call	_write_command
  6919                           
  6920                           ;ST7735_TFT.c: 231: delay_ms(150);
  6921  000C46  0E00               	movlw	0
  6922  000C48  6E18               	movwf	delay_ms@ms+1,c
  6923  000C4A  0E96               	movlw	150
  6924  000C4C  6E17               	movwf	delay_ms@ms,c
  6925  000C4E  EC01  F00D         	call	_delay_ms	;wreg free
  6926                           
  6927                           ;ST7735_TFT.c: 232: write_command(0x11);
  6928  000C52  0E11               	movlw	17
  6929  000C54  EC03  F010         	call	_write_command
  6930                           
  6931                           ;ST7735_TFT.c: 233: delay_ms(500);
  6932  000C58  0E01               	movlw	1
  6933  000C5A  6E18               	movwf	delay_ms@ms+1,c
  6934  000C5C  0EF4               	movlw	244
  6935  000C5E  6E17               	movwf	delay_ms@ms,c
  6936  000C60  EC01  F00D         	call	_delay_ms	;wreg free
  6937                           
  6938                           ;ST7735_TFT.c: 234: write_command(0xB1);
  6939  000C64  0EB1               	movlw	177
  6940  000C66  EC03  F010         	call	_write_command
  6941                           
  6942                           ;ST7735_TFT.c: 235: write_data(0x01);
  6943  000C6A  0E01               	movlw	1
  6944  000C6C  ECFB  F00F         	call	_write_data
  6945                           
  6946                           ;ST7735_TFT.c: 236: write_data(0x2C);
  6947  000C70  0E2C               	movlw	44
  6948  000C72  ECFB  F00F         	call	_write_data
  6949                           
  6950                           ;ST7735_TFT.c: 237: write_data(0x2D);
  6951  000C76  0E2D               	movlw	45
  6952  000C78  ECFB  F00F         	call	_write_data
  6953                           
  6954                           ;ST7735_TFT.c: 238: write_command(0xB2);
  6955  000C7C  0EB2               	movlw	178
  6956  000C7E  EC03  F010         	call	_write_command
  6957                           
  6958                           ;ST7735_TFT.c: 239: write_data(0x01);
  6959  000C82  0E01               	movlw	1
  6960  000C84  ECFB  F00F         	call	_write_data
  6961                           
  6962                           ;ST7735_TFT.c: 240: write_data(0x2C);
  6963  000C88  0E2C               	movlw	44
  6964  000C8A  ECFB  F00F         	call	_write_data
  6965                           
  6966                           ;ST7735_TFT.c: 241: write_data(0x2D);
  6967  000C8E  0E2D               	movlw	45
  6968  000C90  ECFB  F00F         	call	_write_data
  6969                           
  6970                           ;ST7735_TFT.c: 242: write_command(0xB3);
  6971  000C94  0EB3               	movlw	179
  6972  000C96  EC03  F010         	call	_write_command
  6973                           
  6974                           ;ST7735_TFT.c: 243: write_data(0x01);
  6975  000C9A  0E01               	movlw	1
  6976  000C9C  ECFB  F00F         	call	_write_data
  6977                           
  6978                           ;ST7735_TFT.c: 244: write_data(0x2C);
  6979  000CA0  0E2C               	movlw	44
  6980  000CA2  ECFB  F00F         	call	_write_data
  6981                           
  6982                           ;ST7735_TFT.c: 245: write_data(0x2D);
  6983  000CA6  0E2D               	movlw	45
  6984  000CA8  ECFB  F00F         	call	_write_data
  6985                           
  6986                           ;ST7735_TFT.c: 246: write_data(0x01);
  6987  000CAC  0E01               	movlw	1
  6988  000CAE  ECFB  F00F         	call	_write_data
  6989                           
  6990                           ;ST7735_TFT.c: 247: write_data(0x2C);
  6991  000CB2  0E2C               	movlw	44
  6992  000CB4  ECFB  F00F         	call	_write_data
  6993                           
  6994                           ;ST7735_TFT.c: 248: write_data(0x2D);
  6995  000CB8  0E2D               	movlw	45
  6996  000CBA  ECFB  F00F         	call	_write_data
  6997                           
  6998                           ;ST7735_TFT.c: 249: write_command(0xB4);
  6999  000CBE  0EB4               	movlw	180
  7000  000CC0  EC03  F010         	call	_write_command
  7001                           
  7002                           ;ST7735_TFT.c: 250: write_data(0x07);
  7003  000CC4  0E07               	movlw	7
  7004  000CC6  ECFB  F00F         	call	_write_data
  7005                           
  7006                           ;ST7735_TFT.c: 251: write_command(0xC0);
  7007  000CCA  0EC0               	movlw	192
  7008  000CCC  EC03  F010         	call	_write_command
  7009                           
  7010                           ;ST7735_TFT.c: 252: write_data(0xA2);
  7011  000CD0  0EA2               	movlw	162
  7012  000CD2  ECFB  F00F         	call	_write_data
  7013                           
  7014                           ;ST7735_TFT.c: 253: write_data(0x02);
  7015  000CD6  0E02               	movlw	2
  7016  000CD8  ECFB  F00F         	call	_write_data
  7017                           
  7018                           ;ST7735_TFT.c: 254: write_data(0x84);
  7019  000CDC  0E84               	movlw	132
  7020  000CDE  ECFB  F00F         	call	_write_data
  7021                           
  7022                           ;ST7735_TFT.c: 255: write_command(0xC1);
  7023  000CE2  0EC1               	movlw	193
  7024  000CE4  EC03  F010         	call	_write_command
  7025                           
  7026                           ;ST7735_TFT.c: 256: write_data(0xC5);
  7027  000CE8  0EC5               	movlw	197
  7028  000CEA  ECFB  F00F         	call	_write_data
  7029                           
  7030                           ;ST7735_TFT.c: 257: write_command(0xC2);
  7031  000CEE  0EC2               	movlw	194
  7032  000CF0  EC03  F010         	call	_write_command
  7033                           
  7034                           ;ST7735_TFT.c: 258: write_data(0x0A);
  7035  000CF4  0E0A               	movlw	10
  7036  000CF6  ECFB  F00F         	call	_write_data
  7037                           
  7038                           ;ST7735_TFT.c: 259: write_data(0x00);
  7039  000CFA  0E00               	movlw	0
  7040  000CFC  ECFB  F00F         	call	_write_data
  7041                           
  7042                           ;ST7735_TFT.c: 260: write_command(0xC3);
  7043  000D00  0EC3               	movlw	195
  7044  000D02  EC03  F010         	call	_write_command
  7045                           
  7046                           ;ST7735_TFT.c: 261: write_data(0x8A);
  7047  000D06  0E8A               	movlw	138
  7048  000D08  ECFB  F00F         	call	_write_data
  7049                           
  7050                           ;ST7735_TFT.c: 262: write_data(0x2A);
  7051  000D0C  0E2A               	movlw	42
  7052  000D0E  ECFB  F00F         	call	_write_data
  7053                           
  7054                           ;ST7735_TFT.c: 263: write_command(0xC4);
  7055  000D12  0EC4               	movlw	196
  7056  000D14  EC03  F010         	call	_write_command
  7057                           
  7058                           ;ST7735_TFT.c: 264: write_data(0x8A);
  7059  000D18  0E8A               	movlw	138
  7060  000D1A  ECFB  F00F         	call	_write_data
  7061                           
  7062                           ;ST7735_TFT.c: 265: write_data(0xEE);
  7063  000D1E  0EEE               	movlw	238
  7064  000D20  ECFB  F00F         	call	_write_data
  7065                           
  7066                           ;ST7735_TFT.c: 266: write_command(0xC5);
  7067  000D24  0EC5               	movlw	197
  7068  000D26  EC03  F010         	call	_write_command
  7069                           
  7070                           ;ST7735_TFT.c: 267: write_data(0x0E);
  7071  000D2A  0E0E               	movlw	14
  7072  000D2C  ECFB  F00F         	call	_write_data
  7073                           
  7074                           ;ST7735_TFT.c: 268: write_command(0x20);
  7075  000D30  0E20               	movlw	32
  7076  000D32  EC03  F010         	call	_write_command
  7077                           
  7078                           ;ST7735_TFT.c: 269: write_command(0x36);
  7079  000D36  0E36               	movlw	54
  7080  000D38  EC03  F010         	call	_write_command
  7081                           
  7082                           ;ST7735_TFT.c: 270: write_data(0xC8);
  7083  000D3C  0EC8               	movlw	200
  7084  000D3E  ECFB  F00F         	call	_write_data
  7085                           
  7086                           ;ST7735_TFT.c: 271: write_command(0x3A);
  7087  000D42  0E3A               	movlw	58
  7088  000D44  EC03  F010         	call	_write_command
  7089                           
  7090                           ;ST7735_TFT.c: 272: write_data(0x05);
  7091  000D48  0E05               	movlw	5
  7092  000D4A  ECFB  F00F         	call	_write_data
  7093  000D4E  0012               	return		;funcret
  7094  000D50                     __end_of_Rcmd1:
  7095                           	opt stack 0
  7096                           tblptru	equ	0xFF8
  7097                           tblptrh	equ	0xFF7
  7098                           tblptrl	equ	0xFF6
  7099                           tablat	equ	0xFF5
  7100                           prodh	equ	0xFF4
  7101                           prodl	equ	0xFF3
  7102                           intcon2	equ	0xFF1
  7103                           postinc0	equ	0xFEE
  7104                           wreg	equ	0xFE8
  7105                           postdec1	equ	0xFE5
  7106                           fsr1l	equ	0xFE1
  7107                           indf2	equ	0xFDF
  7108                           postinc2	equ	0xFDE
  7109                           postdec2	equ	0xFDD
  7110                           fsr2h	equ	0xFDA
  7111                           fsr2l	equ	0xFD9
  7112                           status	equ	0xFD8
  7113                           
  7114 ;; *************** function _write_data *****************
  7115 ;; Defined at:
  7116 ;;		line 156 in file "../ST7735_TFT.c"
  7117 ;; Parameters:    Size  Location     Type
  7118 ;;  data_           1    wreg     unsigned char 
  7119 ;; Auto vars:     Size  Location     Type
  7120 ;;  data_           1   18[COMRAM] unsigned char 
  7121 ;; Return value:  Size  Location     Type
  7122 ;;		None               void
  7123 ;; Registers used:
  7124 ;;		wreg, status,2, cstack
  7125 ;; Tracked objects:
  7126 ;;		On entry : 0/0
  7127 ;;		On exit  : 0/0
  7128 ;;		Unchanged: 0/0
  7129 ;; Data sizes:     COMRAM   BANK0   BANK1   BANK2   BANK3   BANK4   BANK5   BANK6   BANK7   BANK8   BANK9  BANK10  BANK1
      +1  BANK12  BANK13  BANK14  BANK15
  7130 ;;      Params:         0       0       0       0       0       0       0       0       0       0       0       0       
      +0       0       0       0       0
  7131 ;;      Locals:         1       0       0       0       0       0       0       0       0       0       0       0       
      +0       0       0       0       0
  7132 ;;      Temps:          0       0       0       0       0       0       0       0       0       0       0       0       
      +0       0       0       0       0
  7133 ;;      Totals:         1       0       0       0       0       0       0       0       0       0       0       0       
      +0       0       0       0       0
  7134 ;;Total ram usage:        1 bytes
  7135 ;; Hardware stack levels used:    1
  7136 ;; Hardware stack levels required when called:    4
  7137 ;; This function calls:
  7138 ;;		_spiwrite
  7139 ;; This function is called by:
  7140 ;;		_Rcmd1
  7141 ;;		_Rcmd2red
  7142 ;;		_Rcmd3
  7143 ;;		_setAddrWindow
  7144 ;;		_drawPixel
  7145 ;;		_TFT_GreenTab_Initialize
  7146 ;;		_Bcmd
  7147 ;;		_setScrollDefinition
  7148 ;;		_Rcmd2green
  7149 ;;		_VerticalScroll
  7150 ;; This function uses a non-reentrant model
  7151 ;;
  7152                           
  7153                           	psect	text31
  7154  001FF6                     __ptext31:
  7155                           	opt stack 0
  7156  001FF6                     _write_data:
  7157                           	opt stack 22
  7158                           
  7159                           ;incstack = 0
  7160                           ;write_data@data_ stored from wreg
  7161  001FF6  6E13               	movwf	write_data@data_,c
  7162                           
  7163                           ;ST7735_TFT.c: 158: PORTDbits.RD4 = 0;
  7164  001FF8  9883               	bcf	3971,4,c	;volatile
  7165                           
  7166                           ;ST7735_TFT.c: 159: PORTDbits.RD3 = 1;
  7167  001FFA  8683               	bsf	3971,3,c	;volatile
  7168                           
  7169                           ;ST7735_TFT.c: 160: spiwrite(data_);
  7170  001FFC  5013               	movf	write_data@data_,w,c
  7171  001FFE  ECA9  F00F         	call	_spiwrite
  7172                           
  7173                           ;ST7735_TFT.c: 161: PORTDbits.RD4 = 1;
  7174  002002  8883               	bsf	3971,4,c	;volatile
  7175  002004  0012               	return		;funcret
  7176  002006                     __end_of_write_data:
  7177                           	opt stack 0
  7178                           tblptru	equ	0xFF8
  7179                           tblptrh	equ	0xFF7
  7180                           tblptrl	equ	0xFF6
  7181                           tablat	equ	0xFF5
  7182                           prodh	equ	0xFF4
  7183                           prodl	equ	0xFF3
  7184                           intcon2	equ	0xFF1
  7185                           postinc0	equ	0xFEE
  7186                           wreg	equ	0xFE8
  7187                           postdec1	equ	0xFE5
  7188                           fsr1l	equ	0xFE1
  7189                           indf2	equ	0xFDF
  7190                           postinc2	equ	0xFDE
  7191                           postdec2	equ	0xFDD
  7192                           fsr2h	equ	0xFDA
  7193                           fsr2l	equ	0xFD9
  7194                           status	equ	0xFD8
  7195                           
  7196 ;; *************** function _write_command *****************
  7197 ;; Defined at:
  7198 ;;		line 145 in file "../ST7735_TFT.c"
  7199 ;; Parameters:    Size  Location     Type
  7200 ;;  cmd_            1    wreg     unsigned char 
  7201 ;; Auto vars:     Size  Location     Type
  7202 ;;  cmd_            1   18[COMRAM] unsigned char 
  7203 ;; Return value:  Size  Location     Type
  7204 ;;		None               void
  7205 ;; Registers used:
  7206 ;;		wreg, status,2, cstack
  7207 ;; Tracked objects:
  7208 ;;		On entry : 0/0
  7209 ;;		On exit  : 0/0
  7210 ;;		Unchanged: 0/0
  7211 ;; Data sizes:     COMRAM   BANK0   BANK1   BANK2   BANK3   BANK4   BANK5   BANK6   BANK7   BANK8   BANK9  BANK10  BANK1
      +1  BANK12  BANK13  BANK14  BANK15
  7212 ;;      Params:         0       0       0       0       0       0       0       0       0       0       0       0       
      +0       0       0       0       0
  7213 ;;      Locals:         1       0       0       0       0       0       0       0       0       0       0       0       
      +0       0       0       0       0
  7214 ;;      Temps:          0       0       0       0       0       0       0       0       0       0       0       0       
      +0       0       0       0       0
  7215 ;;      Totals:         1       0       0       0       0       0       0       0       0       0       0       0       
      +0       0       0       0       0
  7216 ;;Total ram usage:        1 bytes
  7217 ;; Hardware stack levels used:    1
  7218 ;; Hardware stack levels required when called:    4
  7219 ;; This function calls:
  7220 ;;		_spiwrite
  7221 ;; This function is called by:
  7222 ;;		_Rcmd1
  7223 ;;		_Rcmd2red
  7224 ;;		_Rcmd3
  7225 ;;		_setAddrWindow
  7226 ;;		_TFT_GreenTab_Initialize
  7227 ;;		_Bcmd
  7228 ;;		_setScrollDefinition
  7229 ;;		_Rcmd2green
  7230 ;;		_VerticalScroll
  7231 ;; This function uses a non-reentrant model
  7232 ;;
  7233                           
  7234                           	psect	text32
  7235  002006                     __ptext32:
  7236                           	opt stack 0
  7237  002006                     _write_command:
  7238                           	opt stack 22
  7239                           
  7240                           ;incstack = 0
  7241                           ;write_command@cmd_ stored from wreg
  7242  002006  6E13               	movwf	write_command@cmd_,c
  7243                           
  7244                           ;ST7735_TFT.c: 147: PORTDbits.RD4 = 0;
  7245  002008  9883               	bcf	3971,4,c	;volatile
  7246                           
  7247                           ;ST7735_TFT.c: 149: PORTDbits.RD3 = 0;
  7248  00200A  9683               	bcf	3971,3,c	;volatile
  7249                           
  7250                           ;ST7735_TFT.c: 150: spiwrite(cmd_);
  7251  00200C  5013               	movf	write_command@cmd_,w,c
  7252  00200E  ECA9  F00F         	call	_spiwrite
  7253                           
  7254                           ;ST7735_TFT.c: 152: PORTDbits.RD4 = 1;
  7255  002012  8883               	bsf	3971,4,c	;volatile
  7256  002014  0012               	return		;funcret
  7257  002016                     __end_of_write_command:
  7258                           	opt stack 0
  7259                           tblptru	equ	0xFF8
  7260                           tblptrh	equ	0xFF7
  7261                           tblptrl	equ	0xFF6
  7262                           tablat	equ	0xFF5
  7263                           prodh	equ	0xFF4
  7264                           prodl	equ	0xFF3
  7265                           intcon2	equ	0xFF1
  7266                           postinc0	equ	0xFEE
  7267                           wreg	equ	0xFE8
  7268                           postdec1	equ	0xFE5
  7269                           fsr1l	equ	0xFE1
  7270                           indf2	equ	0xFDF
  7271                           postinc2	equ	0xFDE
  7272                           postdec2	equ	0xFDD
  7273                           fsr2h	equ	0xFDA
  7274                           fsr2l	equ	0xFD9
  7275                           status	equ	0xFD8
  7276                           
  7277 ;; *************** function _spiwrite *****************
  7278 ;; Defined at:
  7279 ;;		line 136 in file "../ST7735_TFT.c"
  7280 ;; Parameters:    Size  Location     Type
  7281 ;;  spidata         1    wreg     unsigned char 
  7282 ;; Auto vars:     Size  Location     Type
  7283 ;;  spidata         1   17[COMRAM] unsigned char 
  7284 ;;  x               1   16[COMRAM] unsigned char 
  7285 ;; Return value:  Size  Location     Type
  7286 ;;		None               void
  7287 ;; Registers used:
  7288 ;;		wreg
  7289 ;; Tracked objects:
  7290 ;;		On entry : 0/0
  7291 ;;		On exit  : 0/0
  7292 ;;		Unchanged: 0/0
  7293 ;; Data sizes:     COMRAM   BANK0   BANK1   BANK2   BANK3   BANK4   BANK5   BANK6   BANK7   BANK8   BANK9  BANK10  BANK1
      +1  BANK12  BANK13  BANK14  BANK15
  7294 ;;      Params:         0       0       0       0       0       0       0       0       0       0       0       0       
      +0       0       0       0       0
  7295 ;;      Locals:         2       0       0       0       0       0       0       0       0       0       0       0       
      +0       0       0       0       0
  7296 ;;      Temps:          0       0       0       0       0       0       0       0       0       0       0       0       
      +0       0       0       0       0
  7297 ;;      Totals:         2       0       0       0       0       0       0       0       0       0       0       0       
      +0       0       0       0       0
  7298 ;;Total ram usage:        2 bytes
  7299 ;; Hardware stack levels used:    1
  7300 ;; Hardware stack levels required when called:    3
  7301 ;; This function calls:
  7302 ;;		Nothing
  7303 ;; This function is called by:
  7304 ;;		_write_command
  7305 ;;		_write_data
  7306 ;;		_drawFastVLine
  7307 ;;		_fillRectangle
  7308 ;;		_drawFastHLine
  7309 ;; This function uses a non-reentrant model
  7310 ;;
  7311                           
  7312                           	psect	text33
  7313  001F52                     __ptext33:
  7314                           	opt stack 0
  7315  001F52                     _spiwrite:
  7316                           	opt stack 24
  7317                           
  7318                           ;incstack = 0
  7319                           ;spiwrite@spidata stored from wreg
  7320  001F52  6E12               	movwf	spiwrite@spidata,c
  7321                           
  7322                           ;ST7735_TFT.c: 138: char x;
  7323                           ;ST7735_TFT.c: 139: PIR1bits.SSPIF = 0;
  7324  001F54  969E               	bcf	3998,3,c	;volatile
  7325                           
  7326                           ;ST7735_TFT.c: 140: x = SSPBUF;
  7327  001F56  CFC9 F011          	movff	4041,spiwrite@x	;volatile
  7328                           
  7329                           ;ST7735_TFT.c: 141: SSPBUF = spidata;
  7330  001F5A  C012  FFC9         	movff	spiwrite@spidata,4041	;volatile
  7331                           
  7332                           ;ST7735_TFT.c: 142: while (!SSPSTATbits.BF);
  7333  001F5E  D000               	goto	l330
  7334  001F60                     l330:
  7335  001F60  A0C7               	btfss	4039,0,c	;volatile
  7336  001F62  D7FE               	goto	l330
  7337  001F64  0012               	return		;funcret
  7338  001F66                     __end_of_spiwrite:
  7339                           	opt stack 0
  7340                           tblptru	equ	0xFF8
  7341                           tblptrh	equ	0xFF7
  7342                           tblptrl	equ	0xFF6
  7343                           tablat	equ	0xFF5
  7344                           prodh	equ	0xFF4
  7345                           prodl	equ	0xFF3
  7346                           intcon2	equ	0xFF1
  7347                           postinc0	equ	0xFEE
  7348                           wreg	equ	0xFE8
  7349                           postdec1	equ	0xFE5
  7350                           fsr1l	equ	0xFE1
  7351                           indf2	equ	0xFDF
  7352                           postinc2	equ	0xFDE
  7353                           postdec2	equ	0xFDD
  7354                           fsr2h	equ	0xFDA
  7355                           fsr2l	equ	0xFD9
  7356                           status	equ	0xFD8
  7357                           
  7358 ;; *************** function _LCD_Reset *****************
  7359 ;; Defined at:
  7360 ;;		line 164 in file "../ST7735_TFT.c"
  7361 ;; Parameters:    Size  Location     Type
  7362 ;;		None
  7363 ;; Auto vars:     Size  Location     Type
  7364 ;;		None
  7365 ;; Return value:  Size  Location     Type
  7366 ;;		None               void
  7367 ;; Registers used:
  7368 ;;		wreg, status,2, status,0, prodl, prodh, cstack
  7369 ;; Tracked objects:
  7370 ;;		On entry : 0/0
  7371 ;;		On exit  : 0/0
  7372 ;;		Unchanged: 0/0
  7373 ;; Data sizes:     COMRAM   BANK0   BANK1   BANK2   BANK3   BANK4   BANK5   BANK6   BANK7   BANK8   BANK9  BANK10  BANK1
      +1  BANK12  BANK13  BANK14  BANK15
  7374 ;;      Params:         0       0       0       0       0       0       0       0       0       0       0       0       
      +0       0       0       0       0
  7375 ;;      Locals:         0       0       0       0       0       0       0       0       0       0       0       0       
      +0       0       0       0       0
  7376 ;;      Temps:          0       0       0       0       0       0       0       0       0       0       0       0       
      +0       0       0       0       0
  7377 ;;      Totals:         0       0       0       0       0       0       0       0       0       0       0       0       
      +0       0       0       0       0
  7378 ;;Total ram usage:        0 bytes
  7379 ;; Hardware stack levels used:    1
  7380 ;; Hardware stack levels required when called:    5
  7381 ;; This function calls:
  7382 ;;		_delay_ms
  7383 ;; This function is called by:
  7384 ;;		_Initialize_LCD_Screen
  7385 ;; This function uses a non-reentrant model
  7386 ;;
  7387                           
  7388                           	psect	text34
  7389  001F7A                     __ptext34:
  7390                           	opt stack 0
  7391  001F7A                     _LCD_Reset:
  7392                           	opt stack 24
  7393                           
  7394                           ;ST7735_TFT.c: 166: PORTDbits.RD5 = 0;
  7395                           
  7396                           ;incstack = 0
  7397  001F7A  9A83               	bcf	3971,5,c	;volatile
  7398                           
  7399                           ;ST7735_TFT.c: 167: delay_ms(100);
  7400  001F7C  0E00               	movlw	0
  7401  001F7E  6E18               	movwf	delay_ms@ms+1,c
  7402  001F80  0E64               	movlw	100
  7403  001F82  6E17               	movwf	delay_ms@ms,c
  7404  001F84  EC01  F00D         	call	_delay_ms	;wreg free
  7405                           
  7406                           ;ST7735_TFT.c: 168: PORTDbits.RD5 = 1;
  7407  001F88  8A83               	bsf	3971,5,c	;volatile
  7408  001F8A  0012               	return		;funcret
  7409  001F8C                     __end_of_LCD_Reset:
  7410                           	opt stack 0
  7411                           tblptru	equ	0xFF8
  7412                           tblptrh	equ	0xFF7
  7413                           tblptrl	equ	0xFF6
  7414                           tablat	equ	0xFF5
  7415                           prodh	equ	0xFF4
  7416                           prodl	equ	0xFF3
  7417                           intcon2	equ	0xFF1
  7418                           postinc0	equ	0xFEE
  7419                           wreg	equ	0xFE8
  7420                           postdec1	equ	0xFE5
  7421                           fsr1l	equ	0xFE1
  7422                           indf2	equ	0xFDF
  7423                           postinc2	equ	0xFDE
  7424                           postdec2	equ	0xFDD
  7425                           fsr2h	equ	0xFDA
  7426                           fsr2l	equ	0xFD9
  7427                           status	equ	0xFD8
  7428                           
  7429 ;; *************** function _delay_ms *****************
  7430 ;; Defined at:
  7431 ;;		line 11 in file "../ST7735_TFT.c"
  7432 ;; Parameters:    Size  Location     Type
  7433 ;;  ms              2   22[COMRAM] int 
  7434 ;; Auto vars:     Size  Location     Type
  7435 ;;  count           2   26[COMRAM] int 
  7436 ;; Return value:  Size  Location     Type
  7437 ;;		None               void
  7438 ;; Registers used:
  7439 ;;		wreg, status,2, status,0, prodl, prodh, cstack
  7440 ;; Tracked objects:
  7441 ;;		On entry : 0/0
  7442 ;;		On exit  : 0/0
  7443 ;;		Unchanged: 0/0
  7444 ;; Data sizes:     COMRAM   BANK0   BANK1   BANK2   BANK3   BANK4   BANK5   BANK6   BANK7   BANK8   BANK9  BANK10  BANK1
      +1  BANK12  BANK13  BANK14  BANK15
  7445 ;;      Params:         2       0       0       0       0       0       0       0       0       0       0       0       
      +0       0       0       0       0
  7446 ;;      Locals:         2       0       0       0       0       0       0       0       0       0       0       0       
      +0       0       0       0       0
  7447 ;;      Temps:          2       0       0       0       0       0       0       0       0       0       0       0       
      +0       0       0       0       0
  7448 ;;      Totals:         6       0       0       0       0       0       0       0       0       0       0       0       
      +0       0       0       0       0
  7449 ;;Total ram usage:        6 bytes
  7450 ;; Hardware stack levels used:    1
  7451 ;; Hardware stack levels required when called:    4
  7452 ;; This function calls:
  7453 ;;		___wmul
  7454 ;; This function is called by:
  7455 ;;		_LCD_Reset
  7456 ;;		_Rcmd1
  7457 ;;		_Rcmd3
  7458 ;;		_Bcmd
  7459 ;; This function uses a non-reentrant model
  7460 ;;
  7461                           
  7462                           	psect	text35
  7463  001A02                     __ptext35:
  7464                           	opt stack 0
  7465  001A02                     _delay_ms:
  7466                           	opt stack 23
  7467                           
  7468                           ;ST7735_TFT.c: 17: int count;
  7469                           ;ST7735_TFT.c: 18: count = 8000000/4000/8 * ms;
  7470                           
  7471                           ;incstack = 0
  7472  001A02  C017  F011         	movff	delay_ms@ms,___wmul@multiplier
  7473  001A06  C018  F012         	movff	delay_ms@ms+1,___wmul@multiplier+1
  7474  001A0A  0E00               	movlw	0
  7475  001A0C  6E14               	movwf	___wmul@multiplicand+1,c
  7476  001A0E  0EFA               	movlw	250
  7477  001A10  6E13               	movwf	___wmul@multiplicand,c
  7478  001A12  ECE6  F00E         	call	___wmul	;wreg free
  7479  001A16  C011  F01B         	movff	?___wmul,delay_ms@count
  7480  001A1A  C012  F01C         	movff	?___wmul+1,delay_ms@count+1
  7481                           
  7482                           ;ST7735_TFT.c: 19: count = (0xffff - count);
  7483  001A1E  C01B  F019         	movff	delay_ms@count,??_delay_ms
  7484  001A22  C01C  F01A         	movff	delay_ms@count+1,??_delay_ms+1
  7485  001A26  1E19               	comf	??_delay_ms,f,c
  7486  001A28  1E1A               	comf	??_delay_ms+1,f,c
  7487  001A2A  4A19               	infsnz	??_delay_ms,f,c
  7488  001A2C  2A1A               	incf	??_delay_ms+1,f,c
  7489  001A2E  0EFF               	movlw	255
  7490  001A30  2419               	addwf	??_delay_ms,w,c
  7491  001A32  6E1B               	movwf	delay_ms@count,c
  7492  001A34  0EFF               	movlw	255
  7493  001A36  201A               	addwfc	??_delay_ms+1,w,c
  7494  001A38  6E1C               	movwf	delay_ms@count+1,c
  7495                           
  7496                           ;ST7735_TFT.c: 21: T3CON = 0xb8;
  7497  001A3A  0EB8               	movlw	184
  7498  001A3C  6EB1               	movwf	4017,c	;volatile
  7499                           
  7500                           ;ST7735_TFT.c: 23: TMR0L = count & 0x00ff;
  7501  001A3E  C01B  FFD6         	movff	delay_ms@count,4054	;volatile
  7502                           
  7503                           ;ST7735_TFT.c: 24: TMR0H = count >> 8;
  7504  001A42  501C               	movf	delay_ms@count+1,w,c
  7505  001A44  6ED7               	movwf	4055,c	;volatile
  7506                           
  7507                           ;ST7735_TFT.c: 26: PIR2bits.TMR3IF = 0;
  7508  001A46  92A1               	bcf	4001,1,c	;volatile
  7509                           
  7510                           ;ST7735_TFT.c: 27: T3CONbits.TMR3ON = 1;
  7511  001A48  80B1               	bsf	4017,0,c	;volatile
  7512                           
  7513                           ;ST7735_TFT.c: 29: while (PIR2bits.TMR3IF == 0);
  7514  001A4A  D000               	goto	l320
  7515  001A4C                     l320:
  7516  001A4C  A2A1               	btfss	4001,1,c	;volatile
  7517  001A4E  D7FE               	goto	l320
  7518                           
  7519                           ;ST7735_TFT.c: 30: T3CONbits.TMR3ON = 0;
  7520  001A50  90B1               	bcf	4017,0,c	;volatile
  7521  001A52  0012               	return		;funcret
  7522  001A54                     __end_of_delay_ms:
  7523                           	opt stack 0
  7524                           tblptru	equ	0xFF8
  7525                           tblptrh	equ	0xFF7
  7526                           tblptrl	equ	0xFF6
  7527                           tablat	equ	0xFF5
  7528                           prodh	equ	0xFF4
  7529                           prodl	equ	0xFF3
  7530                           intcon2	equ	0xFF1
  7531                           postinc0	equ	0xFEE
  7532                           wreg	equ	0xFE8
  7533                           postdec1	equ	0xFE5
  7534                           fsr1l	equ	0xFE1
  7535                           indf2	equ	0xFDF
  7536                           postinc2	equ	0xFDE
  7537                           postdec2	equ	0xFDD
  7538                           fsr2h	equ	0xFDA
  7539                           fsr2l	equ	0xFD9
  7540                           status	equ	0xFD8
  7541                           
  7542 ;; *************** function ___wmul *****************
  7543 ;; Defined at:
  7544 ;;		line 15 in file "C:\Program Files (x86)\Microchip\xc8\v1.34\sources\common\Umul16.c"
  7545 ;; Parameters:    Size  Location     Type
  7546 ;;  multiplier      2   16[COMRAM] unsigned int 
  7547 ;;  multiplicand    2   18[COMRAM] unsigned int 
  7548 ;; Auto vars:     Size  Location     Type
  7549 ;;  product         2   20[COMRAM] unsigned int 
  7550 ;; Return value:  Size  Location     Type
  7551 ;;                  2   16[COMRAM] unsigned int 
  7552 ;; Registers used:
  7553 ;;		wreg, status,2, status,0, prodl, prodh
  7554 ;; Tracked objects:
  7555 ;;		On entry : 0/0
  7556 ;;		On exit  : 0/0
  7557 ;;		Unchanged: 0/0
  7558 ;; Data sizes:     COMRAM   BANK0   BANK1   BANK2   BANK3   BANK4   BANK5   BANK6   BANK7   BANK8   BANK9  BANK10  BANK1
      +1  BANK12  BANK13  BANK14  BANK15
  7559 ;;      Params:         4       0       0       0       0       0       0       0       0       0       0       0       
      +0       0       0       0       0
  7560 ;;      Locals:         2       0       0       0       0       0       0       0       0       0       0       0       
      +0       0       0       0       0
  7561 ;;      Temps:          0       0       0       0       0       0       0       0       0       0       0       0       
      +0       0       0       0       0
  7562 ;;      Totals:         6       0       0       0       0       0       0       0       0       0       0       0       
      +0       0       0       0       0
  7563 ;;Total ram usage:        6 bytes
  7564 ;; Hardware stack levels used:    1
  7565 ;; Hardware stack levels required when called:    3
  7566 ;; This function calls:
  7567 ;;		Nothing
  7568 ;; This function is called by:
  7569 ;;		_get_RPM
  7570 ;;		_delay_ms
  7571 ;;		_drawChar
  7572 ;;		_main
  7573 ;;		_printf
  7574 ;;		_Read_Volt
  7575 ;; This function uses a non-reentrant model
  7576 ;;
  7577                           
  7578                           	psect	text36
  7579  001DCC                     __ptext36:
  7580                           	opt stack 0
  7581  001DCC                     ___wmul:
  7582                           	opt stack 26
  7583                           
  7584                           ;incstack = 0
  7585  001DCC  5011               	movf	___wmul@multiplier,w,c
  7586  001DCE  0213               	mulwf	___wmul@multiplicand,c
  7587  001DD0  CFF3 F015          	movff	prodl,___wmul@product
  7588  001DD4  CFF4 F016          	movff	prodh,___wmul@product+1
  7589  001DD8  5011               	movf	___wmul@multiplier,w,c
  7590  001DDA  0214               	mulwf	___wmul@multiplicand+1,c
  7591  001DDC  50F3               	movf	prodl,w,c
  7592  001DDE  2616               	addwf	___wmul@product+1,f,c
  7593  001DE0  5012               	movf	___wmul@multiplier+1,w,c
  7594  001DE2  0213               	mulwf	___wmul@multiplicand,c
  7595  001DE4  50F3               	movf	prodl,w,c
  7596  001DE6  2616               	addwf	___wmul@product+1,f,c
  7597  001DE8  C015  F011         	movff	___wmul@product,?___wmul
  7598  001DEC  C016  F012         	movff	___wmul@product+1,?___wmul+1
  7599  001DF0  D000               	goto	l878
  7600  001DF2                     l878:
  7601  001DF2  0012               	return		;funcret
  7602  001DF4                     __end_of___wmul:
  7603                           	opt stack 0
  7604                           tblptru	equ	0xFF8
  7605                           tblptrh	equ	0xFF7
  7606                           tblptrl	equ	0xFF6
  7607                           tablat	equ	0xFF5
  7608                           prodh	equ	0xFF4
  7609                           prodl	equ	0xFF3
  7610                           intcon2	equ	0xFF1
  7611                           postinc0	equ	0xFEE
  7612                           wreg	equ	0xFE8
  7613                           postdec1	equ	0xFE5
  7614                           fsr1l	equ	0xFE1
  7615                           indf2	equ	0xFDF
  7616                           postinc2	equ	0xFDE
  7617                           postdec2	equ	0xFDD
  7618                           fsr2h	equ	0xFDA
  7619                           fsr2l	equ	0xFD9
  7620                           status	equ	0xFD8
  7621                           
  7622 ;; *************** function _Init_UART *****************
  7623 ;; Defined at:
  7624 ;;		line 25 in file "../utils.c"
  7625 ;; Parameters:    Size  Location     Type
  7626 ;;		None
  7627 ;; Auto vars:     Size  Location     Type
  7628 ;;		None
  7629 ;; Return value:  Size  Location     Type
  7630 ;;		None               void
  7631 ;; Registers used:
  7632 ;;		wreg, status,2, cstack
  7633 ;; Tracked objects:
  7634 ;;		On entry : 0/0
  7635 ;;		On exit  : 0/0
  7636 ;;		Unchanged: 0/0
  7637 ;; Data sizes:     COMRAM   BANK0   BANK1   BANK2   BANK3   BANK4   BANK5   BANK6   BANK7   BANK8   BANK9  BANK10  BANK1
      +1  BANK12  BANK13  BANK14  BANK15
  7638 ;;      Params:         0       0       0       0       0       0       0       0       0       0       0       0       
      +0       0       0       0       0
  7639 ;;      Locals:         0       0       0       0       0       0       0       0       0       0       0       0       
      +0       0       0       0       0
  7640 ;;      Temps:          0       0       0       0       0       0       0       0       0       0       0       0       
      +0       0       0       0       0
  7641 ;;      Totals:         0       0       0       0       0       0       0       0       0       0       0       0       
      +0       0       0       0       0
  7642 ;;Total ram usage:        0 bytes
  7643 ;; Hardware stack levels used:    1
  7644 ;; Hardware stack levels required when called:    4
  7645 ;; This function calls:
  7646 ;;		_OpenUSART
  7647 ;; This function is called by:
  7648 ;;		_main
  7649 ;; This function uses a non-reentrant model
  7650 ;;
  7651                           
  7652                           	psect	text37
  7653  001F66                     __ptext37:
  7654                           	opt stack 0
  7655  001F66                     _Init_UART:
  7656                           	opt stack 26
  7657                           
  7658                           ;utils.c: 27: OpenUSART (0b01111111 & 0b10111111 &
  7659                           ;utils.c: 28: 0b11111110 & 0b11111101 & 0b11111111 &
  7660                           ;utils.c: 29: 0b11111111, 25);
  7661                           
  7662                           ;incstack = 0
  7663  001F66  0E00               	movlw	0
  7664  001F68  6E12               	movwf	OpenUSART@spbrg+1,c
  7665  001F6A  0E19               	movlw	25
  7666  001F6C  6E11               	movwf	OpenUSART@spbrg,c
  7667  001F6E  0E3C               	movlw	60
  7668  001F70  EC0D  F00C         	call	_OpenUSART
  7669                           
  7670                           ;utils.c: 30: OSCCON = 0x70;
  7671  001F74  0E70               	movlw	112
  7672  001F76  6ED3               	movwf	4051,c	;volatile
  7673  001F78  0012               	return		;funcret
  7674  001F7A                     __end_of_Init_UART:
  7675                           	opt stack 0
  7676                           tblptru	equ	0xFF8
  7677                           tblptrh	equ	0xFF7
  7678                           tblptrl	equ	0xFF6
  7679                           tablat	equ	0xFF5
  7680                           prodh	equ	0xFF4
  7681                           prodl	equ	0xFF3
  7682                           intcon2	equ	0xFF1
  7683                           postinc0	equ	0xFEE
  7684                           wreg	equ	0xFE8
  7685                           postdec1	equ	0xFE5
  7686                           fsr1l	equ	0xFE1
  7687                           indf2	equ	0xFDF
  7688                           postinc2	equ	0xFDE
  7689                           postdec2	equ	0xFDD
  7690                           fsr2h	equ	0xFDA
  7691                           fsr2l	equ	0xFD9
  7692                           status	equ	0xFD8
  7693                           
  7694 ;; *************** function _OpenUSART *****************
  7695 ;; Defined at:
  7696 ;;		line 73 in file "C:\Program Files (x86)\Microchip\xc8\v1.34\sources\pic18\plib\USART\uopen.c"
  7697 ;; Parameters:    Size  Location     Type
  7698 ;;  config          1    wreg     unsigned char 
  7699 ;;  spbrg           2   16[COMRAM] unsigned int 
  7700 ;; Auto vars:     Size  Location     Type
  7701 ;;  config          1   18[COMRAM] unsigned char 
  7702 ;; Return value:  Size  Location     Type
  7703 ;;		None               void
  7704 ;; Registers used:
  7705 ;;		wreg, status,2
  7706 ;; Tracked objects:
  7707 ;;		On entry : 0/0
  7708 ;;		On exit  : 0/0
  7709 ;;		Unchanged: 0/0
  7710 ;; Data sizes:     COMRAM   BANK0   BANK1   BANK2   BANK3   BANK4   BANK5   BANK6   BANK7   BANK8   BANK9  BANK10  BANK1
      +1  BANK12  BANK13  BANK14  BANK15
  7711 ;;      Params:         2       0       0       0       0       0       0       0       0       0       0       0       
      +0       0       0       0       0
  7712 ;;      Locals:         1       0       0       0       0       0       0       0       0       0       0       0       
      +0       0       0       0       0
  7713 ;;      Temps:          0       0       0       0       0       0       0       0       0       0       0       0       
      +0       0       0       0       0
  7714 ;;      Totals:         3       0       0       0       0       0       0       0       0       0       0       0       
      +0       0       0       0       0
  7715 ;;Total ram usage:        3 bytes
  7716 ;; Hardware stack levels used:    1
  7717 ;; Hardware stack levels required when called:    3
  7718 ;; This function calls:
  7719 ;;		Nothing
  7720 ;; This function is called by:
  7721 ;;		_Init_UART
  7722 ;; This function uses a non-reentrant model
  7723 ;;
  7724                           
  7725                           	psect	text38
  7726  00181A                     __ptext38:
  7727                           	opt stack 0
  7728  00181A                     _OpenUSART:
  7729                           	opt stack 26
  7730                           
  7731                           ;incstack = 0
  7732                           ;OpenUSART@config stored from wreg
  7733  00181A  6E13               	movwf	OpenUSART@config,c
  7734  00181C  0E00               	movlw	0
  7735  00181E  6EAC               	movwf	4012,c	;volatile
  7736  001820  0E00               	movlw	0
  7737  001822  6EAB               	movwf	4011,c	;volatile
  7738  001824  A013               	btfss	OpenUSART@config,0,c
  7739  001826  D002               	goto	l5728
  7740  001828  88AC               	bsf	4012,4,c	;volatile
  7741  00182A  D000               	goto	l5728
  7742  00182C                     l5728:
  7743  00182C  A213               	btfss	OpenUSART@config,1,c
  7744  00182E  D003               	goto	l5732
  7745  001830  8CAC               	bsf	4012,6,c	;volatile
  7746  001832  8CAB               	bsf	4011,6,c	;volatile
  7747  001834  D000               	goto	l5732
  7748  001836                     l5732:
  7749  001836  A413               	btfss	OpenUSART@config,2,c
  7750  001838  D002               	goto	l5736
  7751  00183A  8EAC               	bsf	4012,7,c	;volatile
  7752  00183C  D000               	goto	l5736
  7753  00183E                     l5736:
  7754  00183E  A613               	btfss	OpenUSART@config,3,c
  7755  001840  D002               	goto	l866
  7756  001842  88AB               	bsf	4011,4,c	;volatile
  7757  001844  D002               	goto	l5740
  7758  001846                     l866:
  7759  001846  8AAB               	bsf	4011,5,c	;volatile
  7760  001848  D000               	goto	l5740
  7761  00184A                     l5740:
  7762  00184A  B813               	btfsc	OpenUSART@config,4,c
  7763  00184C  84AC               	bsf	4012,2,c	;volatile
  7764  00184E  989E               	bcf	3998,4,c	;volatile
  7765  001850  AA13               	btfss	OpenUSART@config,5,c
  7766  001852  D002               	goto	l5748
  7767  001854  86AB               	bsf	4011,3,c	;volatile
  7768  001856  D000               	goto	l5748
  7769  001858                     l5748:
  7770  001858  AC13               	btfss	OpenUSART@config,6,c
  7771  00185A  D002               	goto	l870
  7772  00185C  8A9D               	bsf	3997,5,c	;volatile
  7773  00185E  D001               	goto	l871
  7774  001860                     l870:
  7775  001860  9A9D               	bcf	3997,5,c	;volatile
  7776  001862                     l871:
  7777  001862  9A9E               	bcf	3998,5,c	;volatile
  7778  001864  AE13               	btfss	OpenUSART@config,7,c
  7779  001866  D002               	goto	l872
  7780  001868  889D               	bsf	3997,4,c	;volatile
  7781  00186A  D001               	goto	l873
  7782  00186C                     l872:
  7783  00186C  989D               	bcf	3997,4,c	;volatile
  7784  00186E                     l873:
  7785  00186E  C011  FFAF         	movff	OpenUSART@spbrg,4015	;volatile
  7786  001872  5012               	movf	OpenUSART@spbrg+1,w,c
  7787  001874  6EB0               	movwf	4016,c	;volatile
  7788  001876  8AAC               	bsf	4012,5,c	;volatile
  7789  001878  8EAB               	bsf	4011,7,c	;volatile
  7790  00187A  9C94               	bcf	3988,6,c	;volatile
  7791  00187C  8E94               	bsf	3988,7,c	;volatile
  7792  00187E  B8AC               	btfsc	4012,4,c	;volatile
  7793  001880  BEAC               	btfsc	4012,7,c	;volatile
  7794  001882  D002               	goto	l875
  7795  001884  8C94               	bsf	3988,6,c	;volatile
  7796  001886  D000               	goto	l875
  7797  001888                     l875:
  7798  001888  0012               	return		;funcret
  7799  00188A                     __end_of_OpenUSART:
  7800                           	opt stack 0
  7801                           tblptru	equ	0xFF8
  7802                           tblptrh	equ	0xFF7
  7803                           tblptrl	equ	0xFF6
  7804                           tablat	equ	0xFF5
  7805                           prodh	equ	0xFF4
  7806                           prodl	equ	0xFF3
  7807                           intcon2	equ	0xFF1
  7808                           postinc0	equ	0xFEE
  7809                           wreg	equ	0xFE8
  7810                           postdec1	equ	0xFE5
  7811                           fsr1l	equ	0xFE1
  7812                           indf2	equ	0xFDF
  7813                           postinc2	equ	0xFDE
  7814                           postdec2	equ	0xFDD
  7815                           fsr2h	equ	0xFDA
  7816                           fsr2l	equ	0xFD9
  7817                           status	equ	0xFD8
  7818                           
  7819 ;; *************** function _Init_Interrupt *****************
  7820 ;; Defined at:
  7821 ;;		line 16 in file "../Interrupt.c"
  7822 ;; Parameters:    Size  Location     Type
  7823 ;;		None
  7824 ;; Auto vars:     Size  Location     Type
  7825 ;;		None
  7826 ;; Return value:  Size  Location     Type
  7827 ;;		None               void
  7828 ;; Registers used:
  7829 ;;		wreg, status,2
  7830 ;; Tracked objects:
  7831 ;;		On entry : 0/0
  7832 ;;		On exit  : 0/0
  7833 ;;		Unchanged: 0/0
  7834 ;; Data sizes:     COMRAM   BANK0   BANK1   BANK2   BANK3   BANK4   BANK5   BANK6   BANK7   BANK8   BANK9  BANK10  BANK1
      +1  BANK12  BANK13  BANK14  BANK15
  7835 ;;      Params:         0       0       0       0       0       0       0       0       0       0       0       0       
      +0       0       0       0       0
  7836 ;;      Locals:         0       0       0       0       0       0       0       0       0       0       0       0       
      +0       0       0       0       0
  7837 ;;      Temps:          0       0       0       0       0       0       0       0       0       0       0       0       
      +0       0       0       0       0
  7838 ;;      Totals:         0       0       0       0       0       0       0       0       0       0       0       0       
      +0       0       0       0       0
  7839 ;;Total ram usage:        0 bytes
  7840 ;; Hardware stack levels used:    1
  7841 ;; Hardware stack levels required when called:    3
  7842 ;; This function calls:
  7843 ;;		Nothing
  7844 ;; This function is called by:
  7845 ;;		_main
  7846 ;; This function uses a non-reentrant model
  7847 ;;
  7848                           
  7849                           	psect	text39
  7850  001F10                     __ptext39:
  7851                           	opt stack 0
  7852  001F10                     _Init_Interrupt:
  7853                           	opt stack 27
  7854                           
  7855                           ;Interrupt.c: 18: INTCONbits.INT0IF = 0;
  7856                           
  7857                           ;incstack = 0
  7858  001F10  92F2               	bcf	intcon,1,c	;volatile
  7859                           
  7860                           ;Interrupt.c: 19: INTCON2bits.INTEDG0 = 0;
  7861  001F12  9CF1               	bcf	intcon2,6,c	;volatile
  7862                           
  7863                           ;Interrupt.c: 20: INTCONbits.INT0IE = 1;
  7864  001F14  88F2               	bsf	intcon,4,c	;volatile
  7865                           
  7866                           ;Interrupt.c: 22: TMR1H = 0;
  7867  001F16  0E00               	movlw	0
  7868  001F18  6ECF               	movwf	4047,c	;volatile
  7869                           
  7870                           ;Interrupt.c: 23: TMR1L = 0;
  7871  001F1A  0E00               	movlw	0
  7872  001F1C  6ECE               	movwf	4046,c	;volatile
  7873                           
  7874                           ;Interrupt.c: 24: PIR1bits.TMR1IF = 0;
  7875  001F1E  909E               	bcf	3998,0,c	;volatile
  7876                           
  7877                           ;Interrupt.c: 25: PIE1bits.TMR1IE = 1;
  7878  001F20  809D               	bsf	3997,0,c	;volatile
  7879                           
  7880                           ;Interrupt.c: 26: INTCONbits.PEIE = 1;
  7881  001F22  8CF2               	bsf	intcon,6,c	;volatile
  7882                           
  7883                           ;Interrupt.c: 27: INTCONbits.GIE = 1;
  7884  001F24  8EF2               	bsf	intcon,7,c	;volatile
  7885  001F26  0012               	return		;funcret
  7886  001F28                     __end_of_Init_Interrupt:
  7887                           	opt stack 0
  7888                           tblptru	equ	0xFF8
  7889                           tblptrh	equ	0xFF7
  7890                           tblptrl	equ	0xFF6
  7891                           tablat	equ	0xFF5
  7892                           prodh	equ	0xFF4
  7893                           prodl	equ	0xFF3
  7894                           intcon	equ	0xFF2
  7895                           intcon2	equ	0xFF1
  7896                           postinc0	equ	0xFEE
  7897                           wreg	equ	0xFE8
  7898                           postdec1	equ	0xFE5
  7899                           fsr1l	equ	0xFE1
  7900                           indf2	equ	0xFDF
  7901                           postinc2	equ	0xFDE
  7902                           postdec2	equ	0xFDD
  7903                           fsr2h	equ	0xFDA
  7904                           fsr2l	equ	0xFD9
  7905                           status	equ	0xFD8
  7906                           
  7907 ;; *************** function _Increase_Speed *****************
  7908 ;; Defined at:
  7909 ;;		line 45 in file "../Fan_Support.c"
  7910 ;; Parameters:    Size  Location     Type
  7911 ;;		None
  7912 ;; Auto vars:     Size  Location     Type
  7913 ;;		None
  7914 ;; Return value:  Size  Location     Type
  7915 ;;		None               void
  7916 ;; Registers used:
  7917 ;;		wreg, status,2, status,0, cstack
  7918 ;; Tracked objects:
  7919 ;;		On entry : 0/0
  7920 ;;		On exit  : 0/0
  7921 ;;		Unchanged: 0/0
  7922 ;; Data sizes:     COMRAM   BANK0   BANK1   BANK2   BANK3   BANK4   BANK5   BANK6   BANK7   BANK8   BANK9  BANK10  BANK1
      +1  BANK12  BANK13  BANK14  BANK15
  7923 ;;      Params:         0       0       0       0       0       0       0       0       0       0       0       0       
      +0       0       0       0       0
  7924 ;;      Locals:         0       0       0       0       0       0       0       0       0       0       0       0       
      +0       0       0       0       0
  7925 ;;      Temps:          0       0       0       0       0       0       0       0       0       0       0       0       
      +0       0       0       0       0
  7926 ;;      Totals:         0       0       0       0       0       0       0       0       0       0       0       0       
      +0       0       0       0       0
  7927 ;;Total ram usage:        0 bytes
  7928 ;; Hardware stack levels used:    1
  7929 ;; Hardware stack levels required when called:    6
  7930 ;; This function calls:
  7931 ;;		_Do_Beep
  7932 ;;		_do_update_pwm
  7933 ;; This function is called by:
  7934 ;;		_main
  7935 ;; This function uses a non-reentrant model
  7936 ;;
  7937                           
  7938                           	psect	text40
  7939  001E1A                     __ptext40:
  7940                           	opt stack 0
  7941  001E1A                     _Increase_Speed:
  7942                           	opt stack 24
  7943                           
  7944                           ;Fan_Support.c: 47: if(duty_cycle == 100)
  7945                           
  7946                           ;incstack = 0
  7947  001E1A  0E64               	movlw	100
  7948  001E1C  185D               	xorwf	_duty_cycle,w,c
  7949  001E1E  A4D8               	btfss	status,2,c
  7950  001E20  D006               	goto	l5890
  7951                           
  7952                           ;Fan_Support.c: 48: {
  7953                           ;Fan_Support.c: 49: Do_Beep();
  7954  001E22  ECC6  F00F         	call	_Do_Beep	;wreg free
  7955                           
  7956                           ;Fan_Support.c: 50: do_update_pwm(duty_cycle);
  7957  001E26  505D               	movf	_duty_cycle,w,c
  7958  001E28  ECD7  F009         	call	_do_update_pwm
  7959                           
  7960                           ;Fan_Support.c: 51: }
  7961  001E2C  D007               	goto	l45
  7962  001E2E                     l5890:
  7963                           
  7964                           ;Fan_Support.c: 52: else
  7965                           ;Fan_Support.c: 53: {
  7966                           ;Fan_Support.c: 54: duty_cycle = duty_cycle + 5;
  7967  001E2E  505D               	movf	_duty_cycle,w,c
  7968  001E30  0F05               	addlw	5
  7969  001E32  6E5D               	movwf	_duty_cycle,c
  7970                           
  7971                           ;Fan_Support.c: 55: do_update_pwm(duty_cycle);
  7972  001E34  505D               	movf	_duty_cycle,w,c
  7973  001E36  ECD7  F009         	call	_do_update_pwm
  7974  001E3A  D000               	goto	l45
  7975  001E3C                     l45:
  7976  001E3C  0012               	return		;funcret
  7977  001E3E                     __end_of_Increase_Speed:
  7978                           	opt stack 0
  7979                           tblptru	equ	0xFF8
  7980                           tblptrh	equ	0xFF7
  7981                           tblptrl	equ	0xFF6
  7982                           tablat	equ	0xFF5
  7983                           prodh	equ	0xFF4
  7984                           prodl	equ	0xFF3
  7985                           intcon	equ	0xFF2
  7986                           intcon2	equ	0xFF1
  7987                           postinc0	equ	0xFEE
  7988                           wreg	equ	0xFE8
  7989                           postdec1	equ	0xFE5
  7990                           fsr1l	equ	0xFE1
  7991                           indf2	equ	0xFDF
  7992                           postinc2	equ	0xFDE
  7993                           postdec2	equ	0xFDD
  7994                           fsr2h	equ	0xFDA
  7995                           fsr2l	equ	0xFD9
  7996                           status	equ	0xFD8
  7997                           
  7998 ;; *************** function _I2C_Init *****************
  7999 ;; Defined at:
  8000 ;;		line 10 in file "../I2C_Soft.c"
  8001 ;; Parameters:    Size  Location     Type
  8002 ;;  c               4   16[COMRAM] unsigned long 
  8003 ;; Auto vars:     Size  Location     Type
  8004 ;;		None
  8005 ;; Return value:  Size  Location     Type
  8006 ;;		None               void
  8007 ;; Registers used:
  8008 ;;		wreg, cstack
  8009 ;; Tracked objects:
  8010 ;;		On entry : 0/0
  8011 ;;		On exit  : 0/0
  8012 ;;		Unchanged: 0/0
  8013 ;; Data sizes:     COMRAM   BANK0   BANK1   BANK2   BANK3   BANK4   BANK5   BANK6   BANK7   BANK8   BANK9  BANK10  BANK1
      +1  BANK12  BANK13  BANK14  BANK15
  8014 ;;      Params:         4       0       0       0       0       0       0       0       0       0       0       0       
      +0       0       0       0       0
  8015 ;;      Locals:         0       0       0       0       0       0       0       0       0       0       0       0       
      +0       0       0       0       0
  8016 ;;      Temps:          0       0       0       0       0       0       0       0       0       0       0       0       
      +0       0       0       0       0
  8017 ;;      Totals:         4       0       0       0       0       0       0       0       0       0       0       0       
      +0       0       0       0       0
  8018 ;;Total ram usage:        4 bytes
  8019 ;; Hardware stack levels used:    1
  8020 ;; Hardware stack levels required when called:    4
  8021 ;; This function calls:
  8022 ;;		_i2cHighScl
  8023 ;;		_i2cHighSda
  8024 ;; This function is called by:
  8025 ;;		_main
  8026 ;; This function uses a non-reentrant model
  8027 ;;
  8028                           
  8029                           	psect	text41
  8030  002046                     __ptext41:
  8031                           	opt stack 0
  8032  002046                     _I2C_Init:
  8033                           	opt stack 26
  8034                           
  8035                           ;I2C_Soft.c: 12: i2cHighScl();
  8036                           
  8037                           ;incstack = 0
  8038  002046  EC12  F010         	call	_i2cHighScl	;wreg free
  8039                           
  8040                           ;I2C_Soft.c: 13: i2cHighSda();
  8041  00204A  EC3F  F010         	call	_i2cHighSda	;wreg free
  8042  00204E  0012               	return		;funcret
  8043  002050                     __end_of_I2C_Init:
  8044                           	opt stack 0
  8045                           tblptru	equ	0xFF8
  8046                           tblptrh	equ	0xFF7
  8047                           tblptrl	equ	0xFF6
  8048                           tablat	equ	0xFF5
  8049                           prodh	equ	0xFF4
  8050                           prodl	equ	0xFF3
  8051                           intcon	equ	0xFF2
  8052                           intcon2	equ	0xFF1
  8053                           postinc0	equ	0xFEE
  8054                           wreg	equ	0xFE8
  8055                           postdec1	equ	0xFE5
  8056                           fsr1l	equ	0xFE1
  8057                           indf2	equ	0xFDF
  8058                           postinc2	equ	0xFDE
  8059                           postdec2	equ	0xFDD
  8060                           fsr2h	equ	0xFDA
  8061                           fsr2l	equ	0xFD9
  8062                           status	equ	0xFD8
  8063                           
  8064 ;; *************** function _Enable_INT_Interrupt *****************
  8065 ;; Defined at:
  8066 ;;		line 30 in file "../Interrupt.c"
  8067 ;; Parameters:    Size  Location     Type
  8068 ;;		None
  8069 ;; Auto vars:     Size  Location     Type
  8070 ;;		None
  8071 ;; Return value:  Size  Location     Type
  8072 ;;		None               void
  8073 ;; Registers used:
  8074 ;;		None
  8075 ;; Tracked objects:
  8076 ;;		On entry : 0/0
  8077 ;;		On exit  : 0/0
  8078 ;;		Unchanged: 0/0
  8079 ;; Data sizes:     COMRAM   BANK0   BANK1   BANK2   BANK3   BANK4   BANK5   BANK6   BANK7   BANK8   BANK9  BANK10  BANK1
      +1  BANK12  BANK13  BANK14  BANK15
  8080 ;;      Params:         0       0       0       0       0       0       0       0       0       0       0       0       
      +0       0       0       0       0
  8081 ;;      Locals:         0       0       0       0       0       0       0       0       0       0       0       0       
      +0       0       0       0       0
  8082 ;;      Temps:          0       0       0       0       0       0       0       0       0       0       0       0       
      +0       0       0       0       0
  8083 ;;      Totals:         0       0       0       0       0       0       0       0       0       0       0       0       
      +0       0       0       0       0
  8084 ;;Total ram usage:        0 bytes
  8085 ;; Hardware stack levels used:    1
  8086 ;; Hardware stack levels required when called:    3
  8087 ;; This function calls:
  8088 ;;		Nothing
  8089 ;; This function is called by:
  8090 ;;		_main
  8091 ;; This function uses a non-reentrant model
  8092 ;;
  8093                           
  8094                           	psect	text42
  8095  00208E                     __ptext42:
  8096                           	opt stack 0
  8097  00208E                     _Enable_INT_Interrupt:
  8098                           	opt stack 27
  8099                           
  8100                           ;Interrupt.c: 32: INTCONbits.INT0IE = 1;
  8101                           
  8102                           ;incstack = 0
  8103  00208E  88F2               	bsf	intcon,4,c	;volatile
  8104                           
  8105                           ;Interrupt.c: 33: INTCON2bits.INTEDG0 = 0;
  8106  002090  9CF1               	bcf	intcon2,6,c	;volatile
  8107  002092  0012               	return		;funcret
  8108  002094                     __end_of_Enable_INT_Interrupt:
  8109                           	opt stack 0
  8110                           tblptru	equ	0xFF8
  8111                           tblptrh	equ	0xFF7
  8112                           tblptrl	equ	0xFF6
  8113                           tablat	equ	0xFF5
  8114                           prodh	equ	0xFF4
  8115                           prodl	equ	0xFF3
  8116                           intcon	equ	0xFF2
  8117                           intcon2	equ	0xFF1
  8118                           postinc0	equ	0xFEE
  8119                           wreg	equ	0xFE8
  8120                           postdec1	equ	0xFE5
  8121                           fsr1l	equ	0xFE1
  8122                           indf2	equ	0xFDF
  8123                           postinc2	equ	0xFDE
  8124                           postdec2	equ	0xFDD
  8125                           fsr2h	equ	0xFDA
  8126                           fsr2l	equ	0xFD9
  8127                           status	equ	0xFD8
  8128                           
  8129 ;; *************** function _Decrease_Speed *****************
  8130 ;; Defined at:
  8131 ;;		line 60 in file "../Fan_Support.c"
  8132 ;; Parameters:    Size  Location     Type
  8133 ;;		None
  8134 ;; Auto vars:     Size  Location     Type
  8135 ;;		None
  8136 ;; Return value:  Size  Location     Type
  8137 ;;		None               void
  8138 ;; Registers used:
  8139 ;;		wreg, status,2, status,0, cstack
  8140 ;; Tracked objects:
  8141 ;;		On entry : 0/0
  8142 ;;		On exit  : 0/0
  8143 ;;		Unchanged: 0/0
  8144 ;; Data sizes:     COMRAM   BANK0   BANK1   BANK2   BANK3   BANK4   BANK5   BANK6   BANK7   BANK8   BANK9  BANK10  BANK1
      +1  BANK12  BANK13  BANK14  BANK15
  8145 ;;      Params:         0       0       0       0       0       0       0       0       0       0       0       0       
      +0       0       0       0       0
  8146 ;;      Locals:         0       0       0       0       0       0       0       0       0       0       0       0       
      +0       0       0       0       0
  8147 ;;      Temps:          0       0       0       0       0       0       0       0       0       0       0       0       
      +0       0       0       0       0
  8148 ;;      Totals:         0       0       0       0       0       0       0       0       0       0       0       0       
      +0       0       0       0       0
  8149 ;;Total ram usage:        0 bytes
  8150 ;; Hardware stack levels used:    1
  8151 ;; Hardware stack levels required when called:    6
  8152 ;; This function calls:
  8153 ;;		_Do_Beep
  8154 ;;		_do_update_pwm
  8155 ;; This function is called by:
  8156 ;;		_main
  8157 ;; This function uses a non-reentrant model
  8158 ;;
  8159                           
  8160                           	psect	text43
  8161  001E60                     __ptext43:
  8162                           	opt stack 0
  8163  001E60                     _Decrease_Speed:
  8164                           	opt stack 24
  8165                           
  8166                           ;Fan_Support.c: 62: if(duty_cycle == 0)
  8167                           
  8168                           ;incstack = 0
  8169  001E60  505D               	movf	_duty_cycle,w,c
  8170  001E62  A4D8               	btfss	status,2,c
  8171  001E64  D006               	goto	l5900
  8172                           
  8173                           ;Fan_Support.c: 63: {
  8174                           ;Fan_Support.c: 64: Do_Beep();
  8175  001E66  ECC6  F00F         	call	_Do_Beep	;wreg free
  8176                           
  8177                           ;Fan_Support.c: 65: do_update_pwm(duty_cycle);
  8178  001E6A  505D               	movf	_duty_cycle,w,c
  8179  001E6C  ECD7  F009         	call	_do_update_pwm
  8180                           
  8181                           ;Fan_Support.c: 66: }
  8182  001E70  D007               	goto	l50
  8183  001E72                     l5900:
  8184                           
  8185                           ;Fan_Support.c: 67: else
  8186                           ;Fan_Support.c: 68: {
  8187                           ;Fan_Support.c: 69: duty_cycle = duty_cycle - 5;
  8188  001E72  505D               	movf	_duty_cycle,w,c
  8189  001E74  0FFB               	addlw	251
  8190  001E76  6E5D               	movwf	_duty_cycle,c
  8191                           
  8192                           ;Fan_Support.c: 70: do_update_pwm(duty_cycle);
  8193  001E78  505D               	movf	_duty_cycle,w,c
  8194  001E7A  ECD7  F009         	call	_do_update_pwm
  8195  001E7E  D000               	goto	l50
  8196  001E80                     l50:
  8197  001E80  0012               	return		;funcret
  8198  001E82                     __end_of_Decrease_Speed:
  8199                           	opt stack 0
  8200                           tblptru	equ	0xFF8
  8201                           tblptrh	equ	0xFF7
  8202                           tblptrl	equ	0xFF6
  8203                           tablat	equ	0xFF5
  8204                           prodh	equ	0xFF4
  8205                           prodl	equ	0xFF3
  8206                           intcon	equ	0xFF2
  8207                           intcon2	equ	0xFF1
  8208                           postinc0	equ	0xFEE
  8209                           wreg	equ	0xFE8
  8210                           postdec1	equ	0xFE5
  8211                           fsr1l	equ	0xFE1
  8212                           indf2	equ	0xFDF
  8213                           postinc2	equ	0xFDE
  8214                           postdec2	equ	0xFDD
  8215                           fsr2h	equ	0xFDA
  8216                           fsr2l	equ	0xFD9
  8217                           status	equ	0xFD8
  8218                           
  8219 ;; *************** function _do_update_pwm *****************
  8220 ;; Defined at:
  8221 ;;		line 74 in file "../Fan_Support.c"
  8222 ;; Parameters:    Size  Location     Type
  8223 ;;  duty_cycle      1    wreg     unsigned char 
  8224 ;; Auto vars:     Size  Location     Type
  8225 ;;  duty_cycle      1   64[COMRAM] unsigned char 
  8226 ;;  dc_f            3   61[COMRAM] float 
  8227 ;;  dc_I            2   65[COMRAM] int 
  8228 ;; Return value:  Size  Location     Type
  8229 ;;		None               void
  8230 ;; Registers used:
  8231 ;;		wreg, status,2, status,0, cstack
  8232 ;; Tracked objects:
  8233 ;;		On entry : 0/0
  8234 ;;		On exit  : 0/0
  8235 ;;		Unchanged: 0/0
  8236 ;; Data sizes:     COMRAM   BANK0   BANK1   BANK2   BANK3   BANK4   BANK5   BANK6   BANK7   BANK8   BANK9  BANK10  BANK1
      +1  BANK12  BANK13  BANK14  BANK15
  8237 ;;      Params:         0       0       0       0       0       0       0       0       0       0       0       0       
      +0       0       0       0       0
  8238 ;;      Locals:         6       0       0       0       0       0       0       0       0       0       0       0       
      +0       0       0       0       0
  8239 ;;      Temps:          3       0       0       0       0       0       0       0       0       0       0       0       
      +0       0       0       0       0
  8240 ;;      Totals:         9       0       0       0       0       0       0       0       0       0       0       0       
      +0       0       0       0       0
  8241 ;;Total ram usage:        9 bytes
  8242 ;; Hardware stack levels used:    1
  8243 ;; Hardware stack levels required when called:    5
  8244 ;; This function calls:
  8245 ;;		___ftdiv
  8246 ;;		___ftmul
  8247 ;;		___fttol
  8248 ;;		___lbtoft
  8249 ;; This function is called by:
  8250 ;;		_Turn_On_Fan
  8251 ;;		_Increase_Speed
  8252 ;;		_Decrease_Speed
  8253 ;;		_main
  8254 ;; This function uses a non-reentrant model
  8255 ;;
  8256                           
  8257                           	psect	text44
  8258  0013AE                     __ptext44:
  8259                           	opt stack 0
  8260  0013AE                     _do_update_pwm:
  8261                           	opt stack 25
  8262                           
  8263                           ;incstack = 0
  8264                           ;do_update_pwm@duty_cycle stored from wreg
  8265  0013AE  6E41               	movwf	do_update_pwm@duty_cycle,c
  8266                           
  8267                           ;Fan_Support.c: 76: float dc_f;
  8268                           ;Fan_Support.c: 77: int dc_I;
  8269                           ;Fan_Support.c: 78: PR2 = 0b00000100 ;
  8270  0013B0  0E04               	movlw	4
  8271  0013B2  6ECB               	movwf	4043,c	;volatile
  8272                           
  8273                           ;Fan_Support.c: 79: T2CON = 0b00000111 ;
  8274  0013B4  0E07               	movlw	7
  8275  0013B6  6ECA               	movwf	4042,c	;volatile
  8276                           
  8277                           ;Fan_Support.c: 80: dc_f = ( 4.0 * duty_cycle / 20.0) ;
  8278  0013B8  0E00               	movlw	0
  8279  0013BA  6E20               	movwf	___ftmul@f2,c
  8280  0013BC  0E80               	movlw	128
  8281  0013BE  6E21               	movwf	___ftmul@f2+1,c
  8282  0013C0  0E40               	movlw	64
  8283  0013C2  6E22               	movwf	___ftmul@f2+2,c
  8284  0013C4  5041               	movf	do_update_pwm@duty_cycle,w,c
  8285  0013C6  ECFA  F00E         	call	___lbtoft
  8286  0013CA  C019  F01D         	movff	?___lbtoft,___ftmul@f1
  8287  0013CE  C01A  F01E         	movff	?___lbtoft+1,___ftmul@f1+1
  8288  0013D2  C01B  F01F         	movff	?___lbtoft+2,___ftmul@f1+2
  8289  0013D6  EC2D  F007         	call	___ftmul	;wreg free
  8290  0013DA  C01D  F02C         	movff	?___ftmul,___ftdiv@f1
  8291  0013DE  C01E  F02D         	movff	?___ftmul+1,___ftdiv@f1+1
  8292  0013E2  C01F  F02E         	movff	?___ftmul+2,___ftdiv@f1+2
  8293  0013E6  0E00               	movlw	0
  8294  0013E8  6E2F               	movwf	___ftdiv@f2,c
  8295  0013EA  0EA0               	movlw	160
  8296  0013EC  6E30               	movwf	___ftdiv@f2+1,c
  8297  0013EE  0E41               	movlw	65
  8298  0013F0  6E31               	movwf	___ftdiv@f2+2,c
  8299  0013F2  EC95  F008         	call	___ftdiv	;wreg free
  8300  0013F6  C02C  F03E         	movff	?___ftdiv,do_update_pwm@dc_f
  8301  0013FA  C02D  F03F         	movff	?___ftdiv+1,do_update_pwm@dc_f+1
  8302  0013FE  C02E  F040         	movff	?___ftdiv+2,do_update_pwm@dc_f+2
  8303                           
  8304                           ;Fan_Support.c: 82: dc_I = (int) dc_f;
  8305  001402  C03E  F011         	movff	do_update_pwm@dc_f,___fttol@f1
  8306  001406  C03F  F012         	movff	do_update_pwm@dc_f+1,___fttol@f1+1
  8307  00140A  C040  F013         	movff	do_update_pwm@dc_f+2,___fttol@f1+2
  8308  00140E  EC22  F008         	call	___fttol	;wreg free
  8309  001412  C011  F042         	movff	?___fttol,do_update_pwm@dc_I
  8310  001416  C012  F043         	movff	?___fttol+1,do_update_pwm@dc_I+1
  8311                           
  8312                           ;Fan_Support.c: 83: if (dc_I > duty_cycle) dc_I++;
  8313  00141A  5041               	movf	do_update_pwm@duty_cycle,w,c
  8314  00141C  6E3B               	movwf	??_do_update_pwm& (0+255),c
  8315  00141E  6A3C               	clrf	(??_do_update_pwm+1)& (0+255),c
  8316  001420  5042               	movf	do_update_pwm@dc_I,w,c
  8317  001422  5C3B               	subwf	??_do_update_pwm,w,c
  8318  001424  503C               	movf	??_do_update_pwm+1,w,c
  8319  001426  0A80               	xorlw	128
  8320  001428  6E3D               	movwf	(??_do_update_pwm+2)& (0+255),c
  8321  00142A  5043               	movf	do_update_pwm@dc_I+1,w,c
  8322  00142C  0A80               	xorlw	128
  8323  00142E  583D               	subwfb	(??_do_update_pwm+2)& (0+255),w,c
  8324  001430  B0D8               	btfsc	status,0,c
  8325  001432  D003               	goto	l5292
  8326  001434  4A42               	infsnz	do_update_pwm@dc_I,f,c
  8327  001436  2A43               	incf	do_update_pwm@dc_I+1,f,c
  8328  001438  D000               	goto	l5292
  8329  00143A                     l5292:
  8330                           
  8331                           ;Fan_Support.c: 84: CCP1CON = ((dc_I & 0x03) << 4) | 0b00001100;
  8332  00143A  C042  F03B         	movff	do_update_pwm@dc_I,??_do_update_pwm
  8333  00143E  0E03               	movlw	3
  8334  001440  163B               	andwf	??_do_update_pwm,f,c
  8335  001442  383B               	swapf	??_do_update_pwm,w,c
  8336  001444  0BF0               	andlw	240
  8337  001446  090C               	iorlw	12
  8338  001448  6EBD               	movwf	4029,c	;volatile
  8339                           
  8340                           ;Fan_Support.c: 85: CCPR1L = (dc_I) >> 2;
  8341  00144A  C042  F03B         	movff	do_update_pwm@dc_I,??_do_update_pwm
  8342  00144E  C043  F03C         	movff	do_update_pwm@dc_I+1,??_do_update_pwm+1
  8343  001452  343C               	rlcf	??_do_update_pwm+1,w,c
  8344  001454  323C               	rrcf	??_do_update_pwm+1,f,c
  8345  001456  323B               	rrcf	??_do_update_pwm,f,c
  8346  001458  343C               	rlcf	??_do_update_pwm+1,w,c
  8347  00145A  323C               	rrcf	??_do_update_pwm+1,f,c
  8348  00145C  323B               	rrcf	??_do_update_pwm,f,c
  8349  00145E  503B               	movf	??_do_update_pwm,w,c
  8350  001460  6EBE               	movwf	4030,c	;volatile
  8351  001462  0012               	return		;funcret
  8352  001464                     __end_of_do_update_pwm:
  8353                           	opt stack 0
  8354                           tblptru	equ	0xFF8
  8355                           tblptrh	equ	0xFF7
  8356                           tblptrl	equ	0xFF6
  8357                           tablat	equ	0xFF5
  8358                           prodh	equ	0xFF4
  8359                           prodl	equ	0xFF3
  8360                           intcon	equ	0xFF2
  8361                           intcon2	equ	0xFF1
  8362                           postinc0	equ	0xFEE
  8363                           wreg	equ	0xFE8
  8364                           postdec1	equ	0xFE5
  8365                           fsr1l	equ	0xFE1
  8366                           indf2	equ	0xFDF
  8367                           postinc2	equ	0xFDE
  8368                           postdec2	equ	0xFDD
  8369                           fsr2h	equ	0xFDA
  8370                           fsr2l	equ	0xFD9
  8371                           status	equ	0xFD8
  8372                           
  8373 ;; *************** function ___lbtoft *****************
  8374 ;; Defined at:
  8375 ;;		line 27 in file "C:\Program Files (x86)\Microchip\xc8\v1.34\sources\common\lbtoft.c"
  8376 ;; Parameters:    Size  Location     Type
  8377 ;;  c               1    wreg     unsigned char 
  8378 ;; Auto vars:     Size  Location     Type
  8379 ;;  c               1   27[COMRAM] unsigned char 
  8380 ;; Return value:  Size  Location     Type
  8381 ;;                  3   24[COMRAM] float 
  8382 ;; Registers used:
  8383 ;;		wreg, status,2, status,0, cstack
  8384 ;; Tracked objects:
  8385 ;;		On entry : 0/0
  8386 ;;		On exit  : 0/0
  8387 ;;		Unchanged: 0/0
  8388 ;; Data sizes:     COMRAM   BANK0   BANK1   BANK2   BANK3   BANK4   BANK5   BANK6   BANK7   BANK8   BANK9  BANK10  BANK1
      +1  BANK12  BANK13  BANK14  BANK15
  8389 ;;      Params:         3       0       0       0       0       0       0       0       0       0       0       0       
      +0       0       0       0       0
  8390 ;;      Locals:         1       0       0       0       0       0       0       0       0       0       0       0       
      +0       0       0       0       0
  8391 ;;      Temps:          0       0       0       0       0       0       0       0       0       0       0       0       
      +0       0       0       0       0
  8392 ;;      Totals:         4       0       0       0       0       0       0       0       0       0       0       0       
      +0       0       0       0       0
  8393 ;;Total ram usage:        4 bytes
  8394 ;; Hardware stack levels used:    1
  8395 ;; Hardware stack levels required when called:    4
  8396 ;; This function calls:
  8397 ;;		___ftpack
  8398 ;; This function is called by:
  8399 ;;		_do_update_pwm
  8400 ;; This function uses a non-reentrant model
  8401 ;;
  8402                           
  8403                           	psect	text45
  8404  001DF4                     __ptext45:
  8405                           	opt stack 0
  8406  001DF4                     ___lbtoft:
  8407                           	opt stack 25
  8408                           
  8409                           ;incstack = 0
  8410                           ;___lbtoft@c stored from wreg
  8411  001DF4  6E1C               	movwf	___lbtoft@c,c
  8412  001DF6  501C               	movf	___lbtoft@c,w,c
  8413  001DF8  6E11               	movwf	___ftpack@arg,c
  8414  001DFA  6A12               	clrf	___ftpack@arg+1,c
  8415  001DFC  6A13               	clrf	___ftpack@arg+2,c
  8416  001DFE  0E8E               	movlw	142
  8417  001E00  6E14               	movwf	___ftpack@exp,c
  8418  001E02  0E00               	movlw	0
  8419  001E04  6E15               	movwf	___ftpack@sign,c
  8420  001E06  EC74  F009         	call	___ftpack	;wreg free
  8421  001E0A  C011  F019         	movff	?___ftpack,?___lbtoft
  8422  001E0E  C012  F01A         	movff	?___ftpack+1,?___lbtoft+1
  8423  001E12  C013  F01B         	movff	?___ftpack+2,?___lbtoft+2
  8424  001E16  D000               	goto	l1335
  8425  001E18                     l1335:
  8426  001E18  0012               	return		;funcret
  8427  001E1A                     __end_of___lbtoft:
  8428                           	opt stack 0
  8429                           tblptru	equ	0xFF8
  8430                           tblptrh	equ	0xFF7
  8431                           tblptrl	equ	0xFF6
  8432                           tablat	equ	0xFF5
  8433                           prodh	equ	0xFF4
  8434                           prodl	equ	0xFF3
  8435                           intcon	equ	0xFF2
  8436                           intcon2	equ	0xFF1
  8437                           postinc0	equ	0xFEE
  8438                           wreg	equ	0xFE8
  8439                           postdec1	equ	0xFE5
  8440                           fsr1l	equ	0xFE1
  8441                           indf2	equ	0xFDF
  8442                           postinc2	equ	0xFDE
  8443                           postdec2	equ	0xFDD
  8444                           fsr2h	equ	0xFDA
  8445                           fsr2l	equ	0xFD9
  8446                           status	equ	0xFD8
  8447                           
  8448 ;; *************** function ___fttol *****************
  8449 ;; Defined at:
  8450 ;;		line 44 in file "C:\Program Files (x86)\Microchip\xc8\v1.34\sources\common\fttol.c"
  8451 ;; Parameters:    Size  Location     Type
  8452 ;;  f1              3   16[COMRAM] float 
  8453 ;; Auto vars:     Size  Location     Type
  8454 ;;  lval            4   26[COMRAM] unsigned long 
  8455 ;;  exp1            1   30[COMRAM] unsigned char 
  8456 ;;  sign1           1   25[COMRAM] unsigned char 
  8457 ;; Return value:  Size  Location     Type
  8458 ;;                  4   16[COMRAM] long 
  8459 ;; Registers used:
  8460 ;;		wreg, status,2, status,0
  8461 ;; Tracked objects:
  8462 ;;		On entry : 0/0
  8463 ;;		On exit  : 0/0
  8464 ;;		Unchanged: 0/0
  8465 ;; Data sizes:     COMRAM   BANK0   BANK1   BANK2   BANK3   BANK4   BANK5   BANK6   BANK7   BANK8   BANK9  BANK10  BANK1
      +1  BANK12  BANK13  BANK14  BANK15
  8466 ;;      Params:         4       0       0       0       0       0       0       0       0       0       0       0       
      +0       0       0       0       0
  8467 ;;      Locals:         6       0       0       0       0       0       0       0       0       0       0       0       
      +0       0       0       0       0
  8468 ;;      Temps:          5       0       0       0       0       0       0       0       0       0       0       0       
      +0       0       0       0       0
  8469 ;;      Totals:        15       0       0       0       0       0       0       0       0       0       0       0       
      +0       0       0       0       0
  8470 ;;Total ram usage:       15 bytes
  8471 ;; Hardware stack levels used:    1
  8472 ;; Hardware stack levels required when called:    3
  8473 ;; This function calls:
  8474 ;;		Nothing
  8475 ;; This function is called by:
  8476 ;;		_do_update_pwm
  8477 ;; This function uses a non-reentrant model
  8478 ;;
  8479                           
  8480                           	psect	text46
  8481  001044                     __ptext46:
  8482                           	opt stack 0
  8483  001044                     ___fttol:
  8484                           	opt stack 26
  8485                           
  8486                           ;incstack = 0
  8487  001044  C013  F015         	movff	___fttol@f1+2,??___fttol
  8488  001048  6A16               	clrf	(??___fttol+1)& (0+255),c
  8489  00104A  6A17               	clrf	(??___fttol+2)& (0+255),c
  8490  00104C  3412               	rlcf	___fttol@f1+1,w,c
  8491  00104E  3615               	rlcf	??___fttol& (0+255),f,c
  8492  001050  E301               	bnc	u3701
  8493  001052  8016               	bsf	(??___fttol+1)& (0+255),0,c
  8494  001054                     u3701:
  8495  001054  5015               	movf	??___fttol,w,c
  8496  001056  6E1F               	movwf	___fttol@exp1,c
  8497  001058  501F               	movf	___fttol@exp1,w,c
  8498  00105A  A4D8               	btfss	status,2,c
  8499  00105C  D002               	goto	l5238
  8500  00105E  D039               	goto	l5262
  8501  001060  D063               	goto	l1294
  8502  001062                     l5238:
  8503  001062  0E17               	movlw	23
  8504  001064  6E15               	movwf	??___fttol& (0+255),c
  8505  001066  C011  F016         	movff	___fttol@f1,??___fttol+1
  8506  00106A  C012  F017         	movff	___fttol@f1+1,??___fttol+2
  8507  00106E  C013  F018         	movff	___fttol@f1+2,??___fttol+3
  8508  001072  2815               	incf	??___fttol,w,c
  8509  001074  6E19               	movwf	(??___fttol+4)& (0+255),c
  8510  001076  D004               	goto	u3720
  8511  001078                     u3725:
  8512  001078  90D8               	bcf	status,0,c
  8513  00107A  3218               	rrcf	??___fttol+3,f,c
  8514  00107C  3217               	rrcf	??___fttol+2,f,c
  8515  00107E  3216               	rrcf	??___fttol+1,f,c
  8516  001080                     u3720:
  8517  001080  2E19               	decfsz	(??___fttol+4)& (0+255),f,c
  8518  001082  D7FA               	goto	u3725
  8519  001084  5016               	movf	??___fttol+1,w,c
  8520  001086  6E1A               	movwf	___fttol@sign1,c
  8521  001088  8E12               	bsf	___fttol@f1+1,7,c
  8522  00108A  0EFF               	movlw	255
  8523  00108C  1611               	andwf	___fttol@f1,f,c
  8524  00108E  0EFF               	movlw	255
  8525  001090  1612               	andwf	___fttol@f1+1,f,c
  8526  001092  0E00               	movlw	0
  8527  001094  1613               	andwf	___fttol@f1+2,f,c
  8528  001096  5011               	movf	___fttol@f1,w,c
  8529  001098  6E1B               	movwf	___fttol@lval,c
  8530  00109A  5012               	movf	___fttol@f1+1,w,c
  8531  00109C  6E1C               	movwf	___fttol@lval+1,c
  8532  00109E  5013               	movf	___fttol@f1+2,w,c
  8533  0010A0  6E1D               	movwf	___fttol@lval+2,c
  8534  0010A2  6A1E               	clrf	___fttol@lval+3,c
  8535  0010A4  0E8E               	movlw	142
  8536  0010A6  5E1F               	subwf	___fttol@exp1,f,c
  8537  0010A8  AE1F               	btfss	___fttol@exp1,7,c
  8538  0010AA  D010               	goto	l5260
  8539  0010AC  501F               	movf	___fttol@exp1,w,c
  8540  0010AE  0A80               	xorlw	128
  8541  0010B0  0F8F               	addlw	143
  8542  0010B2  B0D8               	btfsc	status,0,c
  8543  0010B4  D003               	goto	l5256
  8544  0010B6  D00D               	goto	l5262
  8545  0010B8  D037               	goto	l1294
  8546  0010BA  D000               	goto	l5256
  8547  0010BC                     l5256:
  8548  0010BC  90D8               	bcf	status,0,c
  8549  0010BE  321E               	rrcf	___fttol@lval+3,f,c
  8550  0010C0  321D               	rrcf	___fttol@lval+2,f,c
  8551  0010C2  321C               	rrcf	___fttol@lval+1,f,c
  8552  0010C4  321B               	rrcf	___fttol@lval,f,c
  8553  0010C6  3E1F               	incfsz	___fttol@exp1,f,c
  8554  0010C8  D7F9               	goto	l5256
  8555  0010CA  D019               	goto	l5270
  8556  0010CC                     l5260:
  8557  0010CC  0E17               	movlw	23
  8558  0010CE  641F               	cpfsgt	___fttol@exp1,c
  8559  0010D0  D011               	goto	l5268
  8560  0010D2                     l5262:
  8561  0010D2  0E00               	movlw	0
  8562  0010D4  6E11               	movwf	?___fttol,c
  8563  0010D6  0E00               	movlw	0
  8564  0010D8  6E12               	movwf	?___fttol+1,c
  8565  0010DA  0E00               	movlw	0
  8566  0010DC  6E13               	movwf	?___fttol+2,c
  8567  0010DE  0E00               	movlw	0
  8568  0010E0  6E14               	movwf	?___fttol+3,c
  8569  0010E2  D022               	goto	l1294
  8570  0010E4  D007               	goto	l5268
  8571  0010E6                     l5266:
  8572  0010E6  90D8               	bcf	status,0,c
  8573  0010E8  361B               	rlcf	___fttol@lval,f,c
  8574  0010EA  361C               	rlcf	___fttol@lval+1,f,c
  8575  0010EC  361D               	rlcf	___fttol@lval+2,f,c
  8576  0010EE  361E               	rlcf	___fttol@lval+3,f,c
  8577  0010F0  061F               	decf	___fttol@exp1,f,c
  8578  0010F2  D000               	goto	l5268
  8579  0010F4                     l5268:
  8580  0010F4  501F               	movf	___fttol@exp1,w,c
  8581  0010F6  B4D8               	btfsc	status,2,c
  8582  0010F8  D002               	goto	l5270
  8583  0010FA  D7F5               	goto	l5266
  8584  0010FC  D000               	goto	l5270
  8585  0010FE                     l5270:
  8586  0010FE  501A               	movf	___fttol@sign1,w,c
  8587  001100  B4D8               	btfsc	status,2,c
  8588  001102  D009               	goto	l5274
  8589  001104  1E1E               	comf	___fttol@lval+3,f,c
  8590  001106  1E1D               	comf	___fttol@lval+2,f,c
  8591  001108  1E1C               	comf	___fttol@lval+1,f,c
  8592  00110A  6C1B               	negf	___fttol@lval,c
  8593  00110C  0E00               	movlw	0
  8594  00110E  221C               	addwfc	___fttol@lval+1,f,c
  8595  001110  221D               	addwfc	___fttol@lval+2,f,c
  8596  001112  221E               	addwfc	___fttol@lval+3,f,c
  8597  001114  D000               	goto	l5274
  8598  001116                     l5274:
  8599  001116  C01B  F011         	movff	___fttol@lval,?___fttol
  8600  00111A  C01C  F012         	movff	___fttol@lval+1,?___fttol+1
  8601  00111E  C01D  F013         	movff	___fttol@lval+2,?___fttol+2
  8602  001122  C01E  F014         	movff	___fttol@lval+3,?___fttol+3
  8603  001126  D000               	goto	l1294
  8604  001128                     l1294:
  8605  001128  0012               	return		;funcret
  8606  00112A                     __end_of___fttol:
  8607                           	opt stack 0
  8608                           tblptru	equ	0xFF8
  8609                           tblptrh	equ	0xFF7
  8610                           tblptrl	equ	0xFF6
  8611                           tablat	equ	0xFF5
  8612                           prodh	equ	0xFF4
  8613                           prodl	equ	0xFF3
  8614                           intcon	equ	0xFF2
  8615                           intcon2	equ	0xFF1
  8616                           postinc0	equ	0xFEE
  8617                           wreg	equ	0xFE8
  8618                           postdec1	equ	0xFE5
  8619                           fsr1l	equ	0xFE1
  8620                           indf2	equ	0xFDF
  8621                           postinc2	equ	0xFDE
  8622                           postdec2	equ	0xFDD
  8623                           fsr2h	equ	0xFDA
  8624                           fsr2l	equ	0xFD9
  8625                           status	equ	0xFD8
  8626                           
  8627 ;; *************** function ___ftmul *****************
  8628 ;; Defined at:
  8629 ;;		line 62 in file "C:\Program Files (x86)\Microchip\xc8\v1.34\sources\common\ftmul.c"
  8630 ;; Parameters:    Size  Location     Type
  8631 ;;  f1              3   28[COMRAM] float 
  8632 ;;  f2              3   31[COMRAM] float 
  8633 ;; Auto vars:     Size  Location     Type
  8634 ;;  f3_as_produc    3   38[COMRAM] unsigned um
  8635 ;;  sign            1   42[COMRAM] unsigned char 
  8636 ;;  cntr            1   41[COMRAM] unsigned char 
  8637 ;;  exp             1   37[COMRAM] unsigned char 
  8638 ;; Return value:  Size  Location     Type
  8639 ;;                  3   28[COMRAM] float 
  8640 ;; Registers used:
  8641 ;;		wreg, status,2, status,0, cstack
  8642 ;; Tracked objects:
  8643 ;;		On entry : 0/0
  8644 ;;		On exit  : 0/0
  8645 ;;		Unchanged: 0/0
  8646 ;; Data sizes:     COMRAM   BANK0   BANK1   BANK2   BANK3   BANK4   BANK5   BANK6   BANK7   BANK8   BANK9  BANK10  BANK1
      +1  BANK12  BANK13  BANK14  BANK15
  8647 ;;      Params:         6       0       0       0       0       0       0       0       0       0       0       0       
      +0       0       0       0       0
  8648 ;;      Locals:         6       0       0       0       0       0       0       0       0       0       0       0       
      +0       0       0       0       0
  8649 ;;      Temps:          3       0       0       0       0       0       0       0       0       0       0       0       
      +0       0       0       0       0
  8650 ;;      Totals:        15       0       0       0       0       0       0       0       0       0       0       0       
      +0       0       0       0       0
  8651 ;;Total ram usage:       15 bytes
  8652 ;; Hardware stack levels used:    1
  8653 ;; Hardware stack levels required when called:    4
  8654 ;; This function calls:
  8655 ;;		___ftpack
  8656 ;; This function is called by:
  8657 ;;		_do_update_pwm
  8658 ;; This function uses a non-reentrant model
  8659 ;;
  8660                           
  8661                           	psect	text47
  8662  000E5A                     __ptext47:
  8663                           	opt stack 0
  8664  000E5A                     ___ftmul:
  8665                           	opt stack 25
  8666                           
  8667                           ;incstack = 0
  8668  000E5A  C01F  F023         	movff	___ftmul@f1+2,??___ftmul
  8669  000E5E  6A24               	clrf	(??___ftmul+1)& (0+255),c
  8670  000E60  6A25               	clrf	(??___ftmul+2)& (0+255),c
  8671  000E62  341E               	rlcf	___ftmul@f1+1,w,c
  8672  000E64  3623               	rlcf	??___ftmul& (0+255),f,c
  8673  000E66  E301               	bnc	u3641
  8674  000E68  8024               	bsf	(??___ftmul+1)& (0+255),0,c
  8675  000E6A                     u3641:
  8676  000E6A  5023               	movf	??___ftmul,w,c
  8677  000E6C  6E26               	movwf	___ftmul@exp,c
  8678  000E6E  5026               	movf	___ftmul@exp,w,c
  8679  000E70  A4D8               	btfss	status,2,c
  8680  000E72  D002               	goto	l5190
  8681  000E74  D00E               	goto	l5192
  8682  000E76  D06C               	goto	l1273
  8683  000E78                     l5190:
  8684  000E78  C022  F023         	movff	___ftmul@f2+2,??___ftmul
  8685  000E7C  6A24               	clrf	(??___ftmul+1)& (0+255),c
  8686  000E7E  6A25               	clrf	(??___ftmul+2)& (0+255),c
  8687  000E80  3421               	rlcf	___ftmul@f2+1,w,c
  8688  000E82  3623               	rlcf	??___ftmul& (0+255),f,c
  8689  000E84  E301               	bnc	u3661
  8690  000E86  8024               	bsf	(??___ftmul+1)& (0+255),0,c
  8691  000E88                     u3661:
  8692  000E88  5023               	movf	??___ftmul,w,c
  8693  000E8A  6E2B               	movwf	___ftmul@sign,c
  8694  000E8C  502B               	movf	___ftmul@sign,w,c
  8695  000E8E  A4D8               	btfss	status,2,c
  8696  000E90  D007               	goto	l5196
  8697  000E92                     l5192:
  8698  000E92  0E00               	movlw	0
  8699  000E94  6E1D               	movwf	?___ftmul,c
  8700  000E96  0E00               	movlw	0
  8701  000E98  6E1E               	movwf	?___ftmul+1,c
  8702  000E9A  0E00               	movlw	0
  8703  000E9C  6E1F               	movwf	?___ftmul+2,c
  8704  000E9E  D058               	goto	l1273
  8705  000EA0                     l5196:
  8706  000EA0  502B               	movf	___ftmul@sign,w,c
  8707  000EA2  0F7B               	addlw	123
  8708  000EA4  2626               	addwf	___ftmul@exp,f,c
  8709  000EA6  C01F  F02B         	movff	___ftmul@f1+2,___ftmul@sign
  8710  000EAA  5022               	movf	___ftmul@f2+2,w,c
  8711  000EAC  1A2B               	xorwf	___ftmul@sign,f,c
  8712  000EAE  0E80               	movlw	128
  8713  000EB0  162B               	andwf	___ftmul@sign,f,c
  8714  000EB2  8E1E               	bsf	___ftmul@f1+1,7,c
  8715  000EB4  8E21               	bsf	___ftmul@f2+1,7,c
  8716  000EB6  0EFF               	movlw	255
  8717  000EB8  1620               	andwf	___ftmul@f2,f,c
  8718  000EBA  0EFF               	movlw	255
  8719  000EBC  1621               	andwf	___ftmul@f2+1,f,c
  8720  000EBE  0E00               	movlw	0
  8721  000EC0  1622               	andwf	___ftmul@f2+2,f,c
  8722  000EC2  0E00               	movlw	0
  8723  000EC4  6E27               	movwf	___ftmul@f3_as_product,c
  8724  000EC6  0E00               	movlw	0
  8725  000EC8  6E28               	movwf	___ftmul@f3_as_product+1,c
  8726  000ECA  0E00               	movlw	0
  8727  000ECC  6E29               	movwf	___ftmul@f3_as_product+2,c
  8728  000ECE  0E07               	movlw	7
  8729  000ED0  6E2A               	movwf	___ftmul@cntr,c
  8730  000ED2  D000               	goto	l5210
  8731  000ED4                     l5210:
  8732  000ED4  A01D               	btfss	___ftmul@f1,0,c
  8733  000ED6  D007               	goto	l5214
  8734  000ED8  5020               	movf	___ftmul@f2,w,c
  8735  000EDA  2627               	addwf	___ftmul@f3_as_product,f,c
  8736  000EDC  5021               	movf	___ftmul@f2+1,w,c
  8737  000EDE  2228               	addwfc	___ftmul@f3_as_product+1,f,c
  8738  000EE0  5022               	movf	___ftmul@f2+2,w,c
  8739  000EE2  2229               	addwfc	___ftmul@f3_as_product+2,f,c
  8740  000EE4  D000               	goto	l5214
  8741  000EE6                     l5214:
  8742  000EE6  90D8               	bcf	status,0,c
  8743  000EE8  321F               	rrcf	___ftmul@f1+2,f,c
  8744  000EEA  321E               	rrcf	___ftmul@f1+1,f,c
  8745  000EEC  321D               	rrcf	___ftmul@f1,f,c
  8746  000EEE  90D8               	bcf	status,0,c
  8747  000EF0  3620               	rlcf	___ftmul@f2,f,c
  8748  000EF2  3621               	rlcf	___ftmul@f2+1,f,c
  8749  000EF4  3622               	rlcf	___ftmul@f2+2,f,c
  8750  000EF6  2E2A               	decfsz	___ftmul@cntr,f,c
  8751  000EF8  D7ED               	goto	l5210
  8752  000EFA  D000               	goto	l5218
  8753  000EFC                     l5218:
  8754  000EFC  0E09               	movlw	9
  8755  000EFE  6E2A               	movwf	___ftmul@cntr,c
  8756  000F00  D000               	goto	l5220
  8757  000F02                     l5220:
  8758  000F02  A01D               	btfss	___ftmul@f1,0,c
  8759  000F04  D007               	goto	l5224
  8760  000F06  5020               	movf	___ftmul@f2,w,c
  8761  000F08  2627               	addwf	___ftmul@f3_as_product,f,c
  8762  000F0A  5021               	movf	___ftmul@f2+1,w,c
  8763  000F0C  2228               	addwfc	___ftmul@f3_as_product+1,f,c
  8764  000F0E  5022               	movf	___ftmul@f2+2,w,c
  8765  000F10  2229               	addwfc	___ftmul@f3_as_product+2,f,c
  8766  000F12  D000               	goto	l5224
  8767  000F14                     l5224:
  8768  000F14  90D8               	bcf	status,0,c
  8769  000F16  321F               	rrcf	___ftmul@f1+2,f,c
  8770  000F18  321E               	rrcf	___ftmul@f1+1,f,c
  8771  000F1A  321D               	rrcf	___ftmul@f1,f,c
  8772  000F1C  90D8               	bcf	status,0,c
  8773  000F1E  3229               	rrcf	___ftmul@f3_as_product+2,f,c
  8774  000F20  3228               	rrcf	___ftmul@f3_as_product+1,f,c
  8775  000F22  3227               	rrcf	___ftmul@f3_as_product,f,c
  8776  000F24  2E2A               	decfsz	___ftmul@cntr,f,c
  8777  000F26  D7ED               	goto	l5220
  8778  000F28  D000               	goto	l5228
  8779  000F2A                     l5228:
  8780  000F2A  C027  F011         	movff	___ftmul@f3_as_product,___ftpack@arg
  8781  000F2E  C028  F012         	movff	___ftmul@f3_as_product+1,___ftpack@arg+1
  8782  000F32  C029  F013         	movff	___ftmul@f3_as_product+2,___ftpack@arg+2
  8783  000F36  C026  F014         	movff	___ftmul@exp,___ftpack@exp
  8784  000F3A  C02B  F015         	movff	___ftmul@sign,___ftpack@sign
  8785  000F3E  EC74  F009         	call	___ftpack	;wreg free
  8786  000F42  C011  F01D         	movff	?___ftpack,?___ftmul
  8787  000F46  C012  F01E         	movff	?___ftpack+1,?___ftmul+1
  8788  000F4A  C013  F01F         	movff	?___ftpack+2,?___ftmul+2
  8789  000F4E  D000               	goto	l1273
  8790  000F50                     l1273:
  8791  000F50  0012               	return		;funcret
  8792  000F52                     __end_of___ftmul:
  8793                           	opt stack 0
  8794                           tblptru	equ	0xFF8
  8795                           tblptrh	equ	0xFF7
  8796                           tblptrl	equ	0xFF6
  8797                           tablat	equ	0xFF5
  8798                           prodh	equ	0xFF4
  8799                           prodl	equ	0xFF3
  8800                           intcon	equ	0xFF2
  8801                           intcon2	equ	0xFF1
  8802                           postinc0	equ	0xFEE
  8803                           wreg	equ	0xFE8
  8804                           postdec1	equ	0xFE5
  8805                           fsr1l	equ	0xFE1
  8806                           indf2	equ	0xFDF
  8807                           postinc2	equ	0xFDE
  8808                           postdec2	equ	0xFDD
  8809                           fsr2h	equ	0xFDA
  8810                           fsr2l	equ	0xFD9
  8811                           status	equ	0xFD8
  8812                           
  8813 ;; *************** function ___ftdiv *****************
  8814 ;; Defined at:
  8815 ;;		line 54 in file "C:\Program Files (x86)\Microchip\xc8\v1.34\sources\common\ftdiv.c"
  8816 ;; Parameters:    Size  Location     Type
  8817 ;;  f1              3   43[COMRAM] float 
  8818 ;;  f2              3   46[COMRAM] float 
  8819 ;; Auto vars:     Size  Location     Type
  8820 ;;  f3              3   53[COMRAM] float 
  8821 ;;  sign            1   57[COMRAM] unsigned char 
  8822 ;;  exp             1   56[COMRAM] unsigned char 
  8823 ;;  cntr            1   52[COMRAM] unsigned char 
  8824 ;; Return value:  Size  Location     Type
  8825 ;;                  3   43[COMRAM] float 
  8826 ;; Registers used:
  8827 ;;		wreg, status,2, status,0, cstack
  8828 ;; Tracked objects:
  8829 ;;		On entry : 0/0
  8830 ;;		On exit  : 0/0
  8831 ;;		Unchanged: 0/0
  8832 ;; Data sizes:     COMRAM   BANK0   BANK1   BANK2   BANK3   BANK4   BANK5   BANK6   BANK7   BANK8   BANK9  BANK10  BANK1
      +1  BANK12  BANK13  BANK14  BANK15
  8833 ;;      Params:         6       0       0       0       0       0       0       0       0       0       0       0       
      +0       0       0       0       0
  8834 ;;      Locals:         6       0       0       0       0       0       0       0       0       0       0       0       
      +0       0       0       0       0
  8835 ;;      Temps:          3       0       0       0       0       0       0       0       0       0       0       0       
      +0       0       0       0       0
  8836 ;;      Totals:        15       0       0       0       0       0       0       0       0       0       0       0       
      +0       0       0       0       0
  8837 ;;Total ram usage:       15 bytes
  8838 ;; Hardware stack levels used:    1
  8839 ;; Hardware stack levels required when called:    4
  8840 ;; This function calls:
  8841 ;;		___ftpack
  8842 ;; This function is called by:
  8843 ;;		_do_update_pwm
  8844 ;;		_Read_Volt
  8845 ;; This function uses a non-reentrant model
  8846 ;;
  8847                           
  8848                           	psect	text48
  8849  00112A                     __ptext48:
  8850                           	opt stack 0
  8851  00112A                     ___ftdiv:
  8852                           	opt stack 25
  8853                           
  8854                           ;incstack = 0
  8855  00112A  C02E  F032         	movff	___ftdiv@f1+2,??___ftdiv
  8856  00112E  6A33               	clrf	(??___ftdiv+1)& (0+255),c
  8857  001130  6A34               	clrf	(??___ftdiv+2)& (0+255),c
  8858  001132  342D               	rlcf	___ftdiv@f1+1,w,c
  8859  001134  3632               	rlcf	??___ftdiv& (0+255),f,c
  8860  001136  E301               	bnc	u3591
  8861  001138  8033               	bsf	(??___ftdiv+1)& (0+255),0,c
  8862  00113A                     u3591:
  8863  00113A  5032               	movf	??___ftdiv,w,c
  8864  00113C  6E39               	movwf	___ftdiv@exp,c
  8865  00113E  5039               	movf	___ftdiv@exp,w,c
  8866  001140  A4D8               	btfss	status,2,c
  8867  001142  D002               	goto	l5144
  8868  001144  D00E               	goto	l5146
  8869  001146  D061               	goto	l1258
  8870  001148                     l5144:
  8871  001148  C031  F032         	movff	___ftdiv@f2+2,??___ftdiv
  8872  00114C  6A33               	clrf	(??___ftdiv+1)& (0+255),c
  8873  00114E  6A34               	clrf	(??___ftdiv+2)& (0+255),c
  8874  001150  3430               	rlcf	___ftdiv@f2+1,w,c
  8875  001152  3632               	rlcf	??___ftdiv& (0+255),f,c
  8876  001154  E301               	bnc	u3611
  8877  001156  8033               	bsf	(??___ftdiv+1)& (0+255),0,c
  8878  001158                     u3611:
  8879  001158  5032               	movf	??___ftdiv,w,c
  8880  00115A  6E3A               	movwf	___ftdiv@sign,c
  8881  00115C  503A               	movf	___ftdiv@sign,w,c
  8882  00115E  A4D8               	btfss	status,2,c
  8883  001160  D007               	goto	l5150
  8884  001162                     l5146:
  8885  001162  0E00               	movlw	0
  8886  001164  6E2C               	movwf	?___ftdiv,c
  8887  001166  0E00               	movlw	0
  8888  001168  6E2D               	movwf	?___ftdiv+1,c
  8889  00116A  0E00               	movlw	0
  8890  00116C  6E2E               	movwf	?___ftdiv+2,c
  8891  00116E  D04D               	goto	l1258
  8892  001170                     l5150:
  8893  001170  0E00               	movlw	0
  8894  001172  6E36               	movwf	___ftdiv@f3,c
  8895  001174  0E00               	movlw	0
  8896  001176  6E37               	movwf	___ftdiv@f3+1,c
  8897  001178  0E00               	movlw	0
  8898  00117A  6E38               	movwf	___ftdiv@f3+2,c
  8899  00117C  503A               	movf	___ftdiv@sign,w,c
  8900  00117E  0F89               	addlw	137
  8901  001180  5E39               	subwf	___ftdiv@exp,f,c
  8902  001182  C02E  F03A         	movff	___ftdiv@f1+2,___ftdiv@sign
  8903  001186  5031               	movf	___ftdiv@f2+2,w,c
  8904  001188  1A3A               	xorwf	___ftdiv@sign,f,c
  8905  00118A  0E80               	movlw	128
  8906  00118C  163A               	andwf	___ftdiv@sign,f,c
  8907  00118E  8E2D               	bsf	___ftdiv@f1+1,7,c
  8908  001190  0EFF               	movlw	255
  8909  001192  162C               	andwf	___ftdiv@f1,f,c
  8910  001194  0EFF               	movlw	255
  8911  001196  162D               	andwf	___ftdiv@f1+1,f,c
  8912  001198  0E00               	movlw	0
  8913  00119A  162E               	andwf	___ftdiv@f1+2,f,c
  8914  00119C  8E30               	bsf	___ftdiv@f2+1,7,c
  8915  00119E  0EFF               	movlw	255
  8916  0011A0  162F               	andwf	___ftdiv@f2,f,c
  8917  0011A2  0EFF               	movlw	255
  8918  0011A4  1630               	andwf	___ftdiv@f2+1,f,c
  8919  0011A6  0E00               	movlw	0
  8920  0011A8  1631               	andwf	___ftdiv@f2+2,f,c
  8921  0011AA  0E18               	movlw	24
  8922  0011AC  6E35               	movwf	___ftdiv@cntr,c
  8923  0011AE  D000               	goto	l5170
  8924  0011B0                     l5170:
  8925  0011B0  90D8               	bcf	status,0,c
  8926  0011B2  3636               	rlcf	___ftdiv@f3,f,c
  8927  0011B4  3637               	rlcf	___ftdiv@f3+1,f,c
  8928  0011B6  3638               	rlcf	___ftdiv@f3+2,f,c
  8929  0011B8  502F               	movf	___ftdiv@f2,w,c
  8930  0011BA  5C2C               	subwf	___ftdiv@f1,w,c
  8931  0011BC  5030               	movf	___ftdiv@f2+1,w,c
  8932  0011BE  582D               	subwfb	___ftdiv@f1+1,w,c
  8933  0011C0  5031               	movf	___ftdiv@f2+2,w,c
  8934  0011C2  582E               	subwfb	___ftdiv@f1+2,w,c
  8935  0011C4  A0D8               	btfss	status,0,c
  8936  0011C6  D007               	goto	l1261
  8937  0011C8  502F               	movf	___ftdiv@f2,w,c
  8938  0011CA  5E2C               	subwf	___ftdiv@f1,f,c
  8939  0011CC  5030               	movf	___ftdiv@f2+1,w,c
  8940  0011CE  5A2D               	subwfb	___ftdiv@f1+1,f,c
  8941  0011D0  5031               	movf	___ftdiv@f2+2,w,c
  8942  0011D2  5A2E               	subwfb	___ftdiv@f1+2,f,c
  8943  0011D4  8036               	bsf	___ftdiv@f3,0,c
  8944  0011D6                     l1261:
  8945  0011D6  90D8               	bcf	status,0,c
  8946  0011D8  362C               	rlcf	___ftdiv@f1,f,c
  8947  0011DA  362D               	rlcf	___ftdiv@f1+1,f,c
  8948  0011DC  362E               	rlcf	___ftdiv@f1+2,f,c
  8949  0011DE  2E35               	decfsz	___ftdiv@cntr,f,c
  8950  0011E0  D7E7               	goto	l5170
  8951  0011E2  D000               	goto	l5180
  8952  0011E4                     l5180:
  8953  0011E4  C036  F011         	movff	___ftdiv@f3,___ftpack@arg
  8954  0011E8  C037  F012         	movff	___ftdiv@f3+1,___ftpack@arg+1
  8955  0011EC  C038  F013         	movff	___ftdiv@f3+2,___ftpack@arg+2
  8956  0011F0  C039  F014         	movff	___ftdiv@exp,___ftpack@exp
  8957  0011F4  C03A  F015         	movff	___ftdiv@sign,___ftpack@sign
  8958  0011F8  EC74  F009         	call	___ftpack	;wreg free
  8959  0011FC  C011  F02C         	movff	?___ftpack,?___ftdiv
  8960  001200  C012  F02D         	movff	?___ftpack+1,?___ftdiv+1
  8961  001204  C013  F02E         	movff	?___ftpack+2,?___ftdiv+2
  8962  001208  D000               	goto	l1258
  8963  00120A                     l1258:
  8964  00120A  0012               	return		;funcret
  8965  00120C                     __end_of___ftdiv:
  8966                           	opt stack 0
  8967                           tblptru	equ	0xFF8
  8968                           tblptrh	equ	0xFF7
  8969                           tblptrl	equ	0xFF6
  8970                           tablat	equ	0xFF5
  8971                           prodh	equ	0xFF4
  8972                           prodl	equ	0xFF3
  8973                           intcon	equ	0xFF2
  8974                           intcon2	equ	0xFF1
  8975                           postinc0	equ	0xFEE
  8976                           wreg	equ	0xFE8
  8977                           postdec1	equ	0xFE5
  8978                           fsr1l	equ	0xFE1
  8979                           indf2	equ	0xFDF
  8980                           postinc2	equ	0xFDE
  8981                           postdec2	equ	0xFDD
  8982                           fsr2h	equ	0xFDA
  8983                           fsr2l	equ	0xFD9
  8984                           status	equ	0xFD8
  8985                           
  8986 ;; *************** function ___ftpack *****************
  8987 ;; Defined at:
  8988 ;;		line 62 in file "C:\Program Files (x86)\Microchip\xc8\v1.34\sources\common\float.c"
  8989 ;; Parameters:    Size  Location     Type
  8990 ;;  arg             3   16[COMRAM] unsigned um
  8991 ;;  exp             1   19[COMRAM] unsigned char 
  8992 ;;  sign            1   20[COMRAM] unsigned char 
  8993 ;; Auto vars:     Size  Location     Type
  8994 ;;		None
  8995 ;; Return value:  Size  Location     Type
  8996 ;;                  3   16[COMRAM] float 
  8997 ;; Registers used:
  8998 ;;		wreg, status,2, status,0
  8999 ;; Tracked objects:
  9000 ;;		On entry : 0/0
  9001 ;;		On exit  : 0/0
  9002 ;;		Unchanged: 0/0
  9003 ;; Data sizes:     COMRAM   BANK0   BANK1   BANK2   BANK3   BANK4   BANK5   BANK6   BANK7   BANK8   BANK9  BANK10  BANK1
      +1  BANK12  BANK13  BANK14  BANK15
  9004 ;;      Params:         5       0       0       0       0       0       0       0       0       0       0       0       
      +0       0       0       0       0
  9005 ;;      Locals:         0       0       0       0       0       0       0       0       0       0       0       0       
      +0       0       0       0       0
  9006 ;;      Temps:          3       0       0       0       0       0       0       0       0       0       0       0       
      +0       0       0       0       0
  9007 ;;      Totals:         8       0       0       0       0       0       0       0       0       0       0       0       
      +0       0       0       0       0
  9008 ;;Total ram usage:        8 bytes
  9009 ;; Hardware stack levels used:    1
  9010 ;; Hardware stack levels required when called:    3
  9011 ;; This function calls:
  9012 ;;		Nothing
  9013 ;; This function is called by:
  9014 ;;		___ftdiv
  9015 ;;		___ftmul
  9016 ;;		___lbtoft
  9017 ;; This function uses a non-reentrant model
  9018 ;;
  9019                           
  9020                           	psect	text49
  9021  0012E8                     __ptext49:
  9022                           	opt stack 0
  9023  0012E8                     ___ftpack:
  9024                           	opt stack 25
  9025                           
  9026                           ;incstack = 0
  9027  0012E8  5014               	movf	___ftpack@exp,w,c
  9028  0012EA  B4D8               	btfsc	status,2,c
  9029  0012EC  D005               	goto	l5058
  9030  0012EE  5011               	movf	___ftpack@arg,w,c
  9031  0012F0  1012               	iorwf	___ftpack@arg+1,w,c
  9032  0012F2  1013               	iorwf	___ftpack@arg+2,w,c
  9033  0012F4  A4D8               	btfss	status,2,c
  9034  0012F6  D00E               	goto	l5064
  9035  0012F8                     l5058:
  9036  0012F8  0E00               	movlw	0
  9037  0012FA  6E11               	movwf	?___ftpack,c
  9038  0012FC  0E00               	movlw	0
  9039  0012FE  6E12               	movwf	?___ftpack+1,c
  9040  001300  0E00               	movlw	0
  9041  001302  6E13               	movwf	?___ftpack+2,c
  9042  001304  D053               	goto	l1186
  9043  001306  D006               	goto	l5064
  9044  001308                     l5062:
  9045  001308  2A14               	incf	___ftpack@exp,f,c
  9046  00130A  90D8               	bcf	status,0,c
  9047  00130C  3213               	rrcf	___ftpack@arg+2,f,c
  9048  00130E  3212               	rrcf	___ftpack@arg+1,f,c
  9049  001310  3211               	rrcf	___ftpack@arg,f,c
  9050  001312  D000               	goto	l5064
  9051  001314                     l5064:
  9052  001314  0E00               	movlw	0
  9053  001316  1411               	andwf	___ftpack@arg,w,c
  9054  001318  6E16               	movwf	??___ftpack& (0+255),c
  9055  00131A  0E00               	movlw	0
  9056  00131C  1412               	andwf	___ftpack@arg+1,w,c
  9057  00131E  6E17               	movwf	(??___ftpack+1)& (0+255),c
  9058  001320  0EFE               	movlw	254
  9059  001322  1413               	andwf	___ftpack@arg+2,w,c
  9060  001324  6E18               	movwf	(??___ftpack+2)& (0+255),c
  9061  001326  5016               	movf	??___ftpack,w,c
  9062  001328  1017               	iorwf	??___ftpack+1,w,c
  9063  00132A  1018               	iorwf	??___ftpack+2,w,c
  9064  00132C  B4D8               	btfsc	status,2,c
  9065  00132E  D00E               	goto	l5070
  9066  001330  D7EB               	goto	l5062
  9067  001332  D00C               	goto	l5070
  9068  001334                     l5066:
  9069  001334  2A14               	incf	___ftpack@exp,f,c
  9070  001336  0E01               	movlw	1
  9071  001338  2611               	addwf	___ftpack@arg,f,c
  9072  00133A  0E00               	movlw	0
  9073  00133C  2212               	addwfc	___ftpack@arg+1,f,c
  9074  00133E  0E00               	movlw	0
  9075  001340  2213               	addwfc	___ftpack@arg+2,f,c
  9076  001342  90D8               	bcf	status,0,c
  9077  001344  3213               	rrcf	___ftpack@arg+2,f,c
  9078  001346  3212               	rrcf	___ftpack@arg+1,f,c
  9079  001348  3211               	rrcf	___ftpack@arg,f,c
  9080  00134A  D000               	goto	l5070
  9081  00134C                     l5070:
  9082  00134C  0E00               	movlw	0
  9083  00134E  1411               	andwf	___ftpack@arg,w,c
  9084  001350  6E16               	movwf	??___ftpack& (0+255),c
  9085  001352  0E00               	movlw	0
  9086  001354  1412               	andwf	___ftpack@arg+1,w,c
  9087  001356  6E17               	movwf	(??___ftpack+1)& (0+255),c
  9088  001358  0EFF               	movlw	255
  9089  00135A  1413               	andwf	___ftpack@arg+2,w,c
  9090  00135C  6E18               	movwf	(??___ftpack+2)& (0+255),c
  9091  00135E  5016               	movf	??___ftpack,w,c
  9092  001360  1017               	iorwf	??___ftpack+1,w,c
  9093  001362  1018               	iorwf	??___ftpack+2,w,c
  9094  001364  B4D8               	btfsc	status,2,c
  9095  001366  D008               	goto	l5074
  9096  001368  D7E5               	goto	l5066
  9097  00136A  D006               	goto	l5074
  9098  00136C                     l5072:
  9099  00136C  0614               	decf	___ftpack@exp,f,c
  9100  00136E  90D8               	bcf	status,0,c
  9101  001370  3611               	rlcf	___ftpack@arg,f,c
  9102  001372  3612               	rlcf	___ftpack@arg+1,f,c
  9103  001374  3613               	rlcf	___ftpack@arg+2,f,c
  9104  001376  D000               	goto	l5074
  9105  001378                     l5074:
  9106  001378  BE12               	btfsc	___ftpack@arg+1,7,c
  9107  00137A  D004               	goto	l1197
  9108  00137C  0E02               	movlw	2
  9109  00137E  6014               	cpfslt	___ftpack@exp,c
  9110  001380  D7F5               	goto	l5072
  9111  001382  D000               	goto	l1197
  9112  001384                     l1197:
  9113  001384  B014               	btfsc	___ftpack@exp,0,c
  9114  001386  D002               	goto	l5080
  9115  001388  9E12               	bcf	___ftpack@arg+1,7,c
  9116  00138A  D000               	goto	l5080
  9117  00138C                     l5080:
  9118  00138C  90D8               	bcf	status,0,c
  9119  00138E  3214               	rrcf	___ftpack@exp,f,c
  9120  001390  5014               	movf	___ftpack@exp,w,c
  9121  001392  1213               	iorwf	___ftpack@arg+2,f,c
  9122  001394  5015               	movf	___ftpack@sign,w,c
  9123  001396  B4D8               	btfsc	status,2,c
  9124  001398  D002               	goto	l5086
  9125  00139A  8E13               	bsf	___ftpack@arg+2,7,c
  9126  00139C  D000               	goto	l5086
  9127  00139E                     l5086:
  9128  00139E  C011  F011         	movff	___ftpack@arg,?___ftpack
  9129  0013A2  C012  F012         	movff	___ftpack@arg+1,?___ftpack+1
  9130  0013A6  C013  F013         	movff	___ftpack@arg+2,?___ftpack+2
  9131  0013AA  D000               	goto	l1186
  9132  0013AC                     l1186:
  9133  0013AC  0012               	return		;funcret
  9134  0013AE                     __end_of___ftpack:
  9135                           	opt stack 0
  9136                           tblptru	equ	0xFF8
  9137                           tblptrh	equ	0xFF7
  9138                           tblptrl	equ	0xFF6
  9139                           tablat	equ	0xFF5
  9140                           prodh	equ	0xFF4
  9141                           prodl	equ	0xFF3
  9142                           intcon	equ	0xFF2
  9143                           intcon2	equ	0xFF1
  9144                           postinc0	equ	0xFEE
  9145                           wreg	equ	0xFE8
  9146                           postdec1	equ	0xFE5
  9147                           fsr1l	equ	0xFE1
  9148                           indf2	equ	0xFDF
  9149                           postinc2	equ	0xFDE
  9150                           postdec2	equ	0xFDD
  9151                           fsr2h	equ	0xFDA
  9152                           fsr2l	equ	0xFD9
  9153                           status	equ	0xFD8
  9154                           
  9155 ;; *************** function _Do_Beep *****************
  9156 ;; Defined at:
  9157 ;;		line 45 in file "../utils.c"
  9158 ;; Parameters:    Size  Location     Type
  9159 ;;		None
  9160 ;; Auto vars:     Size  Location     Type
  9161 ;;		None
  9162 ;; Return value:  Size  Location     Type
  9163 ;;                  2   16[None  ] int 
  9164 ;; Registers used:
  9165 ;;		wreg, status,2, cstack
  9166 ;; Tracked objects:
  9167 ;;		On entry : 0/0
  9168 ;;		On exit  : 0/0
  9169 ;;		Unchanged: 0/0
  9170 ;; Data sizes:     COMRAM   BANK0   BANK1   BANK2   BANK3   BANK4   BANK5   BANK6   BANK7   BANK8   BANK9  BANK10  BANK1
      +1  BANK12  BANK13  BANK14  BANK15
  9171 ;;      Params:         0       0       0       0       0       0       0       0       0       0       0       0       
      +0       0       0       0       0
  9172 ;;      Locals:         0       0       0       0       0       0       0       0       0       0       0       0       
      +0       0       0       0       0
  9173 ;;      Temps:          0       0       0       0       0       0       0       0       0       0       0       0       
      +0       0       0       0       0
  9174 ;;      Totals:         0       0       0       0       0       0       0       0       0       0       0       0       
      +0       0       0       0       0
  9175 ;;Total ram usage:        0 bytes
  9176 ;; Hardware stack levels used:    1
  9177 ;; Hardware stack levels required when called:    5
  9178 ;; This function calls:
  9179 ;;		_Activate_Buzzer
  9180 ;;		_Deactivate_Buzzer
  9181 ;;		_Wait_One_Sec
  9182 ;; This function is called by:
  9183 ;;		_Increase_Speed
  9184 ;;		_Decrease_Speed
  9185 ;; This function uses a non-reentrant model
  9186 ;;
  9187                           
  9188                           	psect	text50
  9189  001F8C                     __ptext50:
  9190                           	opt stack 0
  9191  001F8C                     _Do_Beep:
  9192                           	opt stack 24
  9193                           
  9194                           ;utils.c: 47: Activate_Buzzer();
  9195                           
  9196                           ;incstack = 0
  9197  001F8C  ECCF  F00F         	call	_Activate_Buzzer	;wreg free
  9198                           
  9199                           ;utils.c: 48: Wait_One_Sec();
  9200  001F90  EC28  F010         	call	_Wait_One_Sec	;wreg free
  9201                           
  9202                           ;utils.c: 49: Deactivate_Buzzer();
  9203  001F94  EC37  F010         	call	_Deactivate_Buzzer	;wreg free
  9204                           
  9205                           ;utils.c: 50: Wait_One_Sec();
  9206  001F98  EC28  F010         	call	_Wait_One_Sec	;wreg free
  9207  001F9C  0012               	return		;funcret
  9208  001F9E                     __end_of_Do_Beep:
  9209                           	opt stack 0
  9210                           tblptru	equ	0xFF8
  9211                           tblptrh	equ	0xFF7
  9212                           tblptrl	equ	0xFF6
  9213                           tablat	equ	0xFF5
  9214                           prodh	equ	0xFF4
  9215                           prodl	equ	0xFF3
  9216                           intcon	equ	0xFF2
  9217                           intcon2	equ	0xFF1
  9218                           postinc0	equ	0xFEE
  9219                           wreg	equ	0xFE8
  9220                           postdec1	equ	0xFE5
  9221                           fsr1l	equ	0xFE1
  9222                           indf2	equ	0xFDF
  9223                           postinc2	equ	0xFDE
  9224                           postdec2	equ	0xFDD
  9225                           fsr2h	equ	0xFDA
  9226                           fsr2l	equ	0xFD9
  9227                           status	equ	0xFD8
  9228                           
  9229 ;; *************** function _Wait_One_Sec *****************
  9230 ;; Defined at:
  9231 ;;		line 39 in file "../utils.c"
  9232 ;; Parameters:    Size  Location     Type
  9233 ;;		None
  9234 ;; Auto vars:     Size  Location     Type
  9235 ;;		None
  9236 ;; Return value:  Size  Location     Type
  9237 ;;		None               void
  9238 ;; Registers used:
  9239 ;;		wreg, status,2, cstack
  9240 ;; Tracked objects:
  9241 ;;		On entry : 0/0
  9242 ;;		On exit  : 0/0
  9243 ;;		Unchanged: 0/0
  9244 ;; Data sizes:     COMRAM   BANK0   BANK1   BANK2   BANK3   BANK4   BANK5   BANK6   BANK7   BANK8   BANK9  BANK10  BANK1
      +1  BANK12  BANK13  BANK14  BANK15
  9245 ;;      Params:         0       0       0       0       0       0       0       0       0       0       0       0       
      +0       0       0       0       0
  9246 ;;      Locals:         0       0       0       0       0       0       0       0       0       0       0       0       
      +0       0       0       0       0
  9247 ;;      Temps:          0       0       0       0       0       0       0       0       0       0       0       0       
      +0       0       0       0       0
  9248 ;;      Totals:         0       0       0       0       0       0       0       0       0       0       0       0       
      +0       0       0       0       0
  9249 ;;Total ram usage:        0 bytes
  9250 ;; Hardware stack levels used:    1
  9251 ;; Hardware stack levels required when called:    4
  9252 ;; This function calls:
  9253 ;;		_Wait_Half_Second
  9254 ;; This function is called by:
  9255 ;;		_Do_Beep
  9256 ;;		_main
  9257 ;; This function uses a non-reentrant model
  9258 ;;
  9259                           
  9260                           	psect	text51
  9261  002050                     __ptext51:
  9262                           	opt stack 0
  9263  002050                     _Wait_One_Sec:
  9264                           	opt stack 26
  9265                           
  9266                           ;utils.c: 41: Wait_Half_Second();
  9267                           
  9268                           ;incstack = 0
  9269  002050  EC6E  F00F         	call	_Wait_Half_Second	;wreg free
  9270                           
  9271                           ;utils.c: 42: Wait_Half_Second();
  9272  002054  EC6E  F00F         	call	_Wait_Half_Second	;wreg free
  9273  002058  0012               	return		;funcret
  9274  00205A                     __end_of_Wait_One_Sec:
  9275                           	opt stack 0
  9276                           tblptru	equ	0xFF8
  9277                           tblptrh	equ	0xFF7
  9278                           tblptrl	equ	0xFF6
  9279                           tablat	equ	0xFF5
  9280                           prodh	equ	0xFF4
  9281                           prodl	equ	0xFF3
  9282                           intcon	equ	0xFF2
  9283                           intcon2	equ	0xFF1
  9284                           postinc0	equ	0xFEE
  9285                           wreg	equ	0xFE8
  9286                           postdec1	equ	0xFE5
  9287                           fsr1l	equ	0xFE1
  9288                           indf2	equ	0xFDF
  9289                           postinc2	equ	0xFDE
  9290                           postdec2	equ	0xFDD
  9291                           fsr2h	equ	0xFDA
  9292                           fsr2l	equ	0xFD9
  9293                           status	equ	0xFD8
  9294                           
  9295 ;; *************** function _Wait_Half_Second *****************
  9296 ;; Defined at:
  9297 ;;		line 97 in file "../utils.c"
  9298 ;; Parameters:    Size  Location     Type
  9299 ;;		None
  9300 ;; Auto vars:     Size  Location     Type
  9301 ;;		None
  9302 ;; Return value:  Size  Location     Type
  9303 ;;		None               void
  9304 ;; Registers used:
  9305 ;;		wreg, status,2
  9306 ;; Tracked objects:
  9307 ;;		On entry : 0/0
  9308 ;;		On exit  : 0/0
  9309 ;;		Unchanged: 0/0
  9310 ;; Data sizes:     COMRAM   BANK0   BANK1   BANK2   BANK3   BANK4   BANK5   BANK6   BANK7   BANK8   BANK9  BANK10  BANK1
      +1  BANK12  BANK13  BANK14  BANK15
  9311 ;;      Params:         0       0       0       0       0       0       0       0       0       0       0       0       
      +0       0       0       0       0
  9312 ;;      Locals:         0       0       0       0       0       0       0       0       0       0       0       0       
      +0       0       0       0       0
  9313 ;;      Temps:          0       0       0       0       0       0       0       0       0       0       0       0       
      +0       0       0       0       0
  9314 ;;      Totals:         0       0       0       0       0       0       0       0       0       0       0       0       
      +0       0       0       0       0
  9315 ;;Total ram usage:        0 bytes
  9316 ;; Hardware stack levels used:    1
  9317 ;; Hardware stack levels required when called:    3
  9318 ;; This function calls:
  9319 ;;		Nothing
  9320 ;; This function is called by:
  9321 ;;		_Wait_One_Sec
  9322 ;; This function uses a non-reentrant model
  9323 ;;
  9324                           
  9325                           	psect	text52
  9326  001EDC                     __ptext52:
  9327                           	opt stack 0
  9328  001EDC                     _Wait_Half_Second:
  9329                           	opt stack 26
  9330                           
  9331                           ;utils.c: 99: T0CON = 0x03;
  9332                           
  9333                           ;incstack = 0
  9334  001EDC  0E03               	movlw	3
  9335  001EDE  6ED5               	movwf	4053,c	;volatile
  9336                           
  9337                           ;utils.c: 100: TMR0L = 0xDB;
  9338  001EE0  0EDB               	movlw	219
  9339  001EE2  6ED6               	movwf	4054,c	;volatile
  9340                           
  9341                           ;utils.c: 101: TMR0H = 0x0B;
  9342  001EE4  0E0B               	movlw	11
  9343  001EE6  6ED7               	movwf	4055,c	;volatile
  9344                           
  9345                           ;utils.c: 102: INTCONbits.TMR0IF = 0;
  9346  001EE8  94F2               	bcf	intcon,2,c	;volatile
  9347                           
  9348                           ;utils.c: 103: T0CONbits.TMR0ON = 1;
  9349  001EEA  8ED5               	bsf	4053,7,c	;volatile
  9350                           
  9351                           ;utils.c: 104: while (INTCONbits.TMR0IF == 0);
  9352  001EEC  D000               	goto	l584
  9353  001EEE                     l584:
  9354  001EEE  A4F2               	btfss	intcon,2,c	;volatile
  9355  001EF0  D7FE               	goto	l584
  9356                           
  9357                           ;utils.c: 105: T0CONbits.TMR0ON = 0;
  9358  001EF2  9ED5               	bcf	4053,7,c	;volatile
  9359  001EF4  0012               	return		;funcret
  9360  001EF6                     __end_of_Wait_Half_Second:
  9361                           	opt stack 0
  9362                           tblptru	equ	0xFF8
  9363                           tblptrh	equ	0xFF7
  9364                           tblptrl	equ	0xFF6
  9365                           tablat	equ	0xFF5
  9366                           prodh	equ	0xFF4
  9367                           prodl	equ	0xFF3
  9368                           intcon	equ	0xFF2
  9369                           intcon2	equ	0xFF1
  9370                           postinc0	equ	0xFEE
  9371                           wreg	equ	0xFE8
  9372                           postdec1	equ	0xFE5
  9373                           fsr1l	equ	0xFE1
  9374                           indf2	equ	0xFDF
  9375                           postinc2	equ	0xFDE
  9376                           postdec2	equ	0xFDD
  9377                           fsr2h	equ	0xFDA
  9378                           fsr2l	equ	0xFD9
  9379                           status	equ	0xFD8
  9380                           
  9381 ;; *************** function _Deactivate_Buzzer *****************
  9382 ;; Defined at:
  9383 ;;		line 90 in file "../utils.c"
  9384 ;; Parameters:    Size  Location     Type
  9385 ;;		None
  9386 ;; Auto vars:     Size  Location     Type
  9387 ;;		None
  9388 ;; Return value:  Size  Location     Type
  9389 ;;		None               void
  9390 ;; Registers used:
  9391 ;;		wreg, status,2
  9392 ;; Tracked objects:
  9393 ;;		On entry : 0/0
  9394 ;;		On exit  : 0/0
  9395 ;;		Unchanged: 0/0
  9396 ;; Data sizes:     COMRAM   BANK0   BANK1   BANK2   BANK3   BANK4   BANK5   BANK6   BANK7   BANK8   BANK9  BANK10  BANK1
      +1  BANK12  BANK13  BANK14  BANK15
  9397 ;;      Params:         0       0       0       0       0       0       0       0       0       0       0       0       
      +0       0       0       0       0
  9398 ;;      Locals:         0       0       0       0       0       0       0       0       0       0       0       0       
      +0       0       0       0       0
  9399 ;;      Temps:          0       0       0       0       0       0       0       0       0       0       0       0       
      +0       0       0       0       0
  9400 ;;      Totals:         0       0       0       0       0       0       0       0       0       0       0       0       
      +0       0       0       0       0
  9401 ;;Total ram usage:        0 bytes
  9402 ;; Hardware stack levels used:    1
  9403 ;; Hardware stack levels required when called:    3
  9404 ;; This function calls:
  9405 ;;		Nothing
  9406 ;; This function is called by:
  9407 ;;		_Do_Beep
  9408 ;;		_main
  9409 ;; This function uses a non-reentrant model
  9410 ;;
  9411                           
  9412                           	psect	text53
  9413  00206E                     __ptext53:
  9414                           	opt stack 0
  9415  00206E                     _Deactivate_Buzzer:
  9416                           	opt stack 25
  9417                           
  9418                           ;utils.c: 92: CCP2CON = 0x0;
  9419                           
  9420                           ;incstack = 0
  9421  00206E  0E00               	movlw	0
  9422  002070  6EBA               	movwf	4026,c	;volatile
  9423                           
  9424                           ;utils.c: 93: PORTCbits.RC1 = 0;
  9425  002072  9282               	bcf	3970,1,c	;volatile
  9426  002074  0012               	return		;funcret
  9427  002076                     __end_of_Deactivate_Buzzer:
  9428                           	opt stack 0
  9429                           tblptru	equ	0xFF8
  9430                           tblptrh	equ	0xFF7
  9431                           tblptrl	equ	0xFF6
  9432                           tablat	equ	0xFF5
  9433                           prodh	equ	0xFF4
  9434                           prodl	equ	0xFF3
  9435                           intcon	equ	0xFF2
  9436                           intcon2	equ	0xFF1
  9437                           postinc0	equ	0xFEE
  9438                           wreg	equ	0xFE8
  9439                           postdec1	equ	0xFE5
  9440                           fsr1l	equ	0xFE1
  9441                           indf2	equ	0xFDF
  9442                           postinc2	equ	0xFDE
  9443                           postdec2	equ	0xFDD
  9444                           fsr2h	equ	0xFDA
  9445                           fsr2l	equ	0xFD9
  9446                           status	equ	0xFD8
  9447                           
  9448 ;; *************** function _Activate_Buzzer *****************
  9449 ;; Defined at:
  9450 ;;		line 67 in file "../utils.c"
  9451 ;; Parameters:    Size  Location     Type
  9452 ;;		None
  9453 ;; Auto vars:     Size  Location     Type
  9454 ;;		None
  9455 ;; Return value:  Size  Location     Type
  9456 ;;		None               void
  9457 ;; Registers used:
  9458 ;;		wreg, status,2
  9459 ;; Tracked objects:
  9460 ;;		On entry : 0/0
  9461 ;;		On exit  : 0/0
  9462 ;;		Unchanged: 0/0
  9463 ;; Data sizes:     COMRAM   BANK0   BANK1   BANK2   BANK3   BANK4   BANK5   BANK6   BANK7   BANK8   BANK9  BANK10  BANK1
      +1  BANK12  BANK13  BANK14  BANK15
  9464 ;;      Params:         0       0       0       0       0       0       0       0       0       0       0       0       
      +0       0       0       0       0
  9465 ;;      Locals:         0       0       0       0       0       0       0       0       0       0       0       0       
      +0       0       0       0       0
  9466 ;;      Temps:          0       0       0       0       0       0       0       0       0       0       0       0       
      +0       0       0       0       0
  9467 ;;      Totals:         0       0       0       0       0       0       0       0       0       0       0       0       
      +0       0       0       0       0
  9468 ;;Total ram usage:        0 bytes
  9469 ;; Hardware stack levels used:    1
  9470 ;; Hardware stack levels required when called:    3
  9471 ;; This function calls:
  9472 ;;		Nothing
  9473 ;; This function is called by:
  9474 ;;		_Do_Beep
  9475 ;;		_main
  9476 ;; This function uses a non-reentrant model
  9477 ;;
  9478                           
  9479                           	psect	text54
  9480  001F9E                     __ptext54:
  9481                           	opt stack 0
  9482  001F9E                     _Activate_Buzzer:
  9483                           	opt stack 25
  9484                           
  9485                           ;utils.c: 69: PR2 = 0b11111001 ;
  9486                           
  9487                           ;incstack = 0
  9488  001F9E  0EF9               	movlw	249
  9489  001FA0  6ECB               	movwf	4043,c	;volatile
  9490                           
  9491                           ;utils.c: 70: T2CON = 0b00000101 ;
  9492  001FA2  0E05               	movlw	5
  9493  001FA4  6ECA               	movwf	4042,c	;volatile
  9494                           
  9495                           ;utils.c: 71: CCPR2L = 0b01001010 ;
  9496  001FA6  0E4A               	movlw	74
  9497  001FA8  6EBB               	movwf	4027,c	;volatile
  9498                           
  9499                           ;utils.c: 72: CCP2CON = 0b00111100 ;
  9500  001FAA  0E3C               	movlw	60
  9501  001FAC  6EBA               	movwf	4026,c	;volatile
  9502  001FAE  0012               	return		;funcret
  9503  001FB0                     __end_of_Activate_Buzzer:
  9504                           	opt stack 0
  9505                           tblptru	equ	0xFF8
  9506                           tblptrh	equ	0xFF7
  9507                           tblptrl	equ	0xFF6
  9508                           tablat	equ	0xFF5
  9509                           prodh	equ	0xFF4
  9510                           prodl	equ	0xFF3
  9511                           intcon	equ	0xFF2
  9512                           intcon2	equ	0xFF1
  9513                           postinc0	equ	0xFEE
  9514                           wreg	equ	0xFE8
  9515                           postdec1	equ	0xFE5
  9516                           fsr1l	equ	0xFE1
  9517                           indf2	equ	0xFDF
  9518                           postinc2	equ	0xFDE
  9519                           postdec2	equ	0xFDD
  9520                           fsr2h	equ	0xFDA
  9521                           fsr2l	equ	0xFD9
  9522                           status	equ	0xFD8
  9523                           
  9524 ;; *************** function _DS3231_Setup_Time *****************
  9525 ;; Defined at:
  9526 ;;		line 78 in file "../I2C_Support.c"
  9527 ;; Parameters:    Size  Location     Type
  9528 ;;		None
  9529 ;; Auto vars:     Size  Location     Type
  9530 ;;  Address         1   19[COMRAM] unsigned char 
  9531 ;;  Device          1   18[COMRAM] unsigned char 
  9532 ;; Return value:  Size  Location     Type
  9533 ;;		None               void
  9534 ;; Registers used:
  9535 ;;		wreg, status,2, status,0, cstack
  9536 ;; Tracked objects:
  9537 ;;		On entry : 0/0
  9538 ;;		On exit  : 0/0
  9539 ;;		Unchanged: 0/0
  9540 ;; Data sizes:     COMRAM   BANK0   BANK1   BANK2   BANK3   BANK4   BANK5   BANK6   BANK7   BANK8   BANK9  BANK10  BANK1
      +1  BANK12  BANK13  BANK14  BANK15
  9541 ;;      Params:         0       0       0       0       0       0       0       0       0       0       0       0       
      +0       0       0       0       0
  9542 ;;      Locals:         2       0       0       0       0       0       0       0       0       0       0       0       
      +0       0       0       0       0
  9543 ;;      Temps:          0       0       0       0       0       0       0       0       0       0       0       0       
      +0       0       0       0       0
  9544 ;;      Totals:         2       0       0       0       0       0       0       0       0       0       0       0       
      +0       0       0       0       0
  9545 ;;Total ram usage:        2 bytes
  9546 ;; Hardware stack levels used:    1
  9547 ;; Hardware stack levels required when called:    5
  9548 ;; This function calls:
  9549 ;;		_I2C_Start
  9550 ;;		_I2C_Stop
  9551 ;;		_I2C_Write
  9552 ;; This function is called by:
  9553 ;;		_main
  9554 ;; This function uses a non-reentrant model
  9555 ;;
  9556                           
  9557                           	psect	text55
  9558  00188A                     __ptext55:
  9559                           	opt stack 0
  9560  00188A                     _DS3231_Setup_Time:
  9561                           	opt stack 25
  9562                           
  9563                           ;I2C_Support.c: 80: char Device = 0x68;
  9564                           
  9565                           ;incstack = 0
  9566  00188A  0E68               	movlw	104
  9567  00188C  6E13               	movwf	DS3231_Setup_Time@Device,c
  9568                           
  9569                           ;I2C_Support.c: 81: char Address = 0x00;
  9570  00188E  0E00               	movlw	0
  9571  001890  6E14               	movwf	DS3231_Setup_Time@Address,c
  9572                           
  9573                           ;I2C_Support.c: 82: second = 0x00;
  9574  001892  0E00               	movlw	0
  9575  001894  6E62               	movwf	_second,c
  9576                           
  9577                           ;I2C_Support.c: 83: minute = 0x30;
  9578  001896  0E30               	movlw	48
  9579  001898  6E5F               	movwf	_minute,c
  9580                           
  9581                           ;I2C_Support.c: 84: hour = 0x02;
  9582  00189A  0E02               	movlw	2
  9583  00189C  6E5E               	movwf	_hour,c
  9584                           
  9585                           ;I2C_Support.c: 85: dow = 0x05;
  9586  00189E  0E05               	movlw	5
  9587  0018A0  6E5C               	movwf	_dow,c
  9588                           
  9589                           ;I2C_Support.c: 86: day = 0x30;
  9590  0018A2  0E30               	movlw	48
  9591  0018A4  6E5B               	movwf	_day,c
  9592                           
  9593                           ;I2C_Support.c: 87: month = 0x10;
  9594  0018A6  0E10               	movlw	16
  9595  0018A8  6E60               	movwf	_month,c
  9596                           
  9597                           ;I2C_Support.c: 88: year = 0x25;
  9598  0018AA  0E25               	movlw	37
  9599  0018AC  6E6C               	movwf	_year,c
  9600                           
  9601                           ;I2C_Support.c: 89: I2C_Start();
  9602  0018AE  ECEA  F00F         	call	_I2C_Start	;wreg free
  9603                           
  9604                           ;I2C_Support.c: 90: I2C_Write((Device << 1) | 0);
  9605  0018B2  5013               	movf	DS3231_Setup_Time@Device,w,c
  9606  0018B4  2413               	addwf	DS3231_Setup_Time@Device,w,c
  9607  0018B6  EC63  F00E         	call	_I2C_Write
  9608                           
  9609                           ;I2C_Support.c: 91: I2C_Write(Address);
  9610  0018BA  5014               	movf	DS3231_Setup_Time@Address,w,c
  9611  0018BC  EC63  F00E         	call	_I2C_Write
  9612                           
  9613                           ;I2C_Support.c: 92: I2C_Write(second);
  9614  0018C0  5062               	movf	_second,w,c
  9615  0018C2  EC63  F00E         	call	_I2C_Write
  9616                           
  9617                           ;I2C_Support.c: 93: I2C_Write(minute);
  9618  0018C6  505F               	movf	_minute,w,c
  9619  0018C8  EC63  F00E         	call	_I2C_Write
  9620                           
  9621                           ;I2C_Support.c: 94: I2C_Write(hour);
  9622  0018CC  505E               	movf	_hour,w,c
  9623  0018CE  EC63  F00E         	call	_I2C_Write
  9624                           
  9625                           ;I2C_Support.c: 95: I2C_Write(dow);
  9626  0018D2  505C               	movf	_dow,w,c
  9627  0018D4  EC63  F00E         	call	_I2C_Write
  9628                           
  9629                           ;I2C_Support.c: 96: I2C_Write(day);
  9630  0018D8  505B               	movf	_day,w,c
  9631  0018DA  EC63  F00E         	call	_I2C_Write
  9632                           
  9633                           ;I2C_Support.c: 97: I2C_Write(month);
  9634  0018DE  5060               	movf	_month,w,c
  9635  0018E0  EC63  F00E         	call	_I2C_Write
  9636                           
  9637                           ;I2C_Support.c: 98: I2C_Write(year);
  9638  0018E4  506C               	movf	_year,w,c
  9639  0018E6  EC63  F00E         	call	_I2C_Write
  9640                           
  9641                           ;I2C_Support.c: 99: I2C_Stop();
  9642  0018EA  ECE1  F00F         	call	_I2C_Stop	;wreg free
  9643  0018EE  0012               	return		;funcret
  9644  0018F0                     __end_of_DS3231_Setup_Time:
  9645                           	opt stack 0
  9646                           tblptru	equ	0xFF8
  9647                           tblptrh	equ	0xFF7
  9648                           tblptrl	equ	0xFF6
  9649                           tablat	equ	0xFF5
  9650                           prodh	equ	0xFF4
  9651                           prodl	equ	0xFF3
  9652                           intcon	equ	0xFF2
  9653                           intcon2	equ	0xFF1
  9654                           postinc0	equ	0xFEE
  9655                           wreg	equ	0xFE8
  9656                           postdec1	equ	0xFE5
  9657                           fsr1l	equ	0xFE1
  9658                           indf2	equ	0xFDF
  9659                           postinc2	equ	0xFDE
  9660                           postdec2	equ	0xFDD
  9661                           fsr2h	equ	0xFDA
  9662                           fsr2l	equ	0xFD9
  9663                           status	equ	0xFD8
  9664                           
  9665 ;; *************** function _DS3231_Read_Time *****************
  9666 ;; Defined at:
  9667 ;;		line 58 in file "../I2C_Support.c"
  9668 ;; Parameters:    Size  Location     Type
  9669 ;;		None
  9670 ;; Auto vars:     Size  Location     Type
  9671 ;;  Device          1   20[COMRAM] unsigned char 
  9672 ;;  Address         1   19[COMRAM] unsigned char 
  9673 ;;  Data_Ret        1    0        unsigned char 
  9674 ;; Return value:  Size  Location     Type
  9675 ;;		None               void
  9676 ;; Registers used:
  9677 ;;		wreg, status,2, status,0, cstack
  9678 ;; Tracked objects:
  9679 ;;		On entry : 0/0
  9680 ;;		On exit  : 0/0
  9681 ;;		Unchanged: 0/0
  9682 ;; Data sizes:     COMRAM   BANK0   BANK1   BANK2   BANK3   BANK4   BANK5   BANK6   BANK7   BANK8   BANK9  BANK10  BANK1
      +1  BANK12  BANK13  BANK14  BANK15
  9683 ;;      Params:         0       0       0       0       0       0       0       0       0       0       0       0       
      +0       0       0       0       0
  9684 ;;      Locals:         2       0       0       0       0       0       0       0       0       0       0       0       
      +0       0       0       0       0
  9685 ;;      Temps:          0       0       0       0       0       0       0       0       0       0       0       0       
      +0       0       0       0       0
  9686 ;;      Totals:         2       0       0       0       0       0       0       0       0       0       0       0       
      +0       0       0       0       0
  9687 ;;Total ram usage:        2 bytes
  9688 ;; Hardware stack levels used:    1
  9689 ;; Hardware stack levels required when called:    6
  9690 ;; This function calls:
  9691 ;;		_I2C_ReStart
  9692 ;;		_I2C_Read
  9693 ;;		_I2C_Start
  9694 ;;		_I2C_Stop
  9695 ;;		_I2C_Write
  9696 ;; This function is called by:
  9697 ;;		_main
  9698 ;; This function uses a non-reentrant model
  9699 ;;
  9700                           
  9701                           	psect	text56
  9702  0018F0                     __ptext56:
  9703                           	opt stack 0
  9704  0018F0                     _DS3231_Read_Time:
  9705                           	opt stack 24
  9706                           
  9707                           ;I2C_Support.c: 60: char Device = 0x68;
  9708                           
  9709                           ;incstack = 0
  9710  0018F0  0E68               	movlw	104
  9711  0018F2  6E15               	movwf	DS3231_Read_Time@Device,c
  9712                           
  9713                           ;I2C_Support.c: 61: char Address = 0x00;
  9714  0018F4  0E00               	movlw	0
  9715  0018F6  6E14               	movwf	DS3231_Read_Time@Address,c
  9716                           
  9717                           ;I2C_Support.c: 62: char Data_Ret;
  9718                           ;I2C_Support.c: 63: I2C_Start();
  9719  0018F8  ECEA  F00F         	call	_I2C_Start	;wreg free
  9720                           
  9721                           ;I2C_Support.c: 64: I2C_Write((Device << 1) | 0);
  9722  0018FC  5015               	movf	DS3231_Read_Time@Device,w,c
  9723  0018FE  2415               	addwf	DS3231_Read_Time@Device,w,c
  9724  001900  EC63  F00E         	call	_I2C_Write
  9725                           
  9726                           ;I2C_Support.c: 65: I2C_Write(Address);
  9727  001904  5014               	movf	DS3231_Read_Time@Address,w,c
  9728  001906  EC63  F00E         	call	_I2C_Write
  9729                           
  9730                           ;I2C_Support.c: 66: I2C_ReStart();
  9731  00190A  EC94  F00F         	call	_I2C_ReStart	;wreg free
  9732                           
  9733                           ;I2C_Support.c: 67: I2C_Write((Device << 1) | 1);
  9734  00190E  80D8               	bsf	status,0,c
  9735  001910  3415               	rlcf	DS3231_Read_Time@Device,w,c
  9736  001912  EC63  F00E         	call	_I2C_Write
  9737                           
  9738                           ;I2C_Support.c: 68: second = I2C_Read(1);
  9739  001916  0E01               	movlw	1
  9740  001918  ECC2  F00D         	call	_I2C_Read
  9741  00191C  6E62               	movwf	_second,c
  9742                           
  9743                           ;I2C_Support.c: 69: minute = I2C_Read(1);
  9744  00191E  0E01               	movlw	1
  9745  001920  ECC2  F00D         	call	_I2C_Read
  9746  001924  6E5F               	movwf	_minute,c
  9747                           
  9748                           ;I2C_Support.c: 70: hour = I2C_Read(1);
  9749  001926  0E01               	movlw	1
  9750  001928  ECC2  F00D         	call	_I2C_Read
  9751  00192C  6E5E               	movwf	_hour,c
  9752                           
  9753                           ;I2C_Support.c: 71: dow = I2C_Read(1);
  9754  00192E  0E01               	movlw	1
  9755  001930  ECC2  F00D         	call	_I2C_Read
  9756  001934  6E5C               	movwf	_dow,c
  9757                           
  9758                           ;I2C_Support.c: 72: day = I2C_Read(1);
  9759  001936  0E01               	movlw	1
  9760  001938  ECC2  F00D         	call	_I2C_Read
  9761  00193C  6E5B               	movwf	_day,c
  9762                           
  9763                           ;I2C_Support.c: 73: month = I2C_Read(1);
  9764  00193E  0E01               	movlw	1
  9765  001940  ECC2  F00D         	call	_I2C_Read
  9766  001944  6E60               	movwf	_month,c
  9767                           
  9768                           ;I2C_Support.c: 74: year = I2C_Read(0);
  9769  001946  0E00               	movlw	0
  9770  001948  ECC2  F00D         	call	_I2C_Read
  9771  00194C  6E6C               	movwf	_year,c
  9772                           
  9773                           ;I2C_Support.c: 75: I2C_Stop();
  9774  00194E  ECE1  F00F         	call	_I2C_Stop	;wreg free
  9775  001952  0012               	return		;funcret
  9776  001954                     __end_of_DS3231_Read_Time:
  9777                           	opt stack 0
  9778                           tblptru	equ	0xFF8
  9779                           tblptrh	equ	0xFF7
  9780                           tblptrl	equ	0xFF6
  9781                           tablat	equ	0xFF5
  9782                           prodh	equ	0xFF4
  9783                           prodl	equ	0xFF3
  9784                           intcon	equ	0xFF2
  9785                           intcon2	equ	0xFF1
  9786                           postinc0	equ	0xFEE
  9787                           wreg	equ	0xFE8
  9788                           postdec1	equ	0xFE5
  9789                           fsr1l	equ	0xFE1
  9790                           indf2	equ	0xFDF
  9791                           postinc2	equ	0xFDE
  9792                           postdec2	equ	0xFDD
  9793                           fsr2h	equ	0xFDA
  9794                           fsr2l	equ	0xFD9
  9795                           status	equ	0xFD8
  9796                           
  9797 ;; *************** function _DS1621_Read_Temp *****************
  9798 ;; Defined at:
  9799 ;;		line 22 in file "../I2C_Support.c"
  9800 ;; Parameters:    Size  Location     Type
  9801 ;;		None
  9802 ;; Auto vars:     Size  Location     Type
  9803 ;;  Device          1   23[COMRAM] unsigned char 
  9804 ;;  Data_Ret        1   22[COMRAM] unsigned char 
  9805 ;;  Cmd             1   21[COMRAM] unsigned char 
  9806 ;; Return value:  Size  Location     Type
  9807 ;;                  2   19[COMRAM] int 
  9808 ;; Registers used:
  9809 ;;		wreg, status,2, status,0, cstack
  9810 ;; Tracked objects:
  9811 ;;		On entry : 0/0
  9812 ;;		On exit  : 0/0
  9813 ;;		Unchanged: 0/0
  9814 ;; Data sizes:     COMRAM   BANK0   BANK1   BANK2   BANK3   BANK4   BANK5   BANK6   BANK7   BANK8   BANK9  BANK10  BANK1
      +1  BANK12  BANK13  BANK14  BANK15
  9815 ;;      Params:         2       0       0       0       0       0       0       0       0       0       0       0       
      +0       0       0       0       0
  9816 ;;      Locals:         3       0       0       0       0       0       0       0       0       0       0       0       
      +0       0       0       0       0
  9817 ;;      Temps:          0       0       0       0       0       0       0       0       0       0       0       0       
      +0       0       0       0       0
  9818 ;;      Totals:         5       0       0       0       0       0       0       0       0       0       0       0       
      +0       0       0       0       0
  9819 ;;Total ram usage:        5 bytes
  9820 ;; Hardware stack levels used:    1
  9821 ;; Hardware stack levels required when called:    6
  9822 ;; This function calls:
  9823 ;;		_I2C_ReStart
  9824 ;;		_I2C_Read
  9825 ;;		_I2C_Start
  9826 ;;		_I2C_Stop
  9827 ;;		_I2C_Write
  9828 ;; This function is called by:
  9829 ;;		_main
  9830 ;; This function uses a non-reentrant model
  9831 ;;
  9832                           
  9833                           	psect	text57
  9834  001D04                     __ptext57:
  9835                           	opt stack 0
  9836  001D04                     _DS1621_Read_Temp:
  9837                           	opt stack 24
  9838                           
  9839                           ;I2C_Support.c: 24: char Device = 0x48;
  9840                           
  9841                           ;incstack = 0
  9842  001D04  0E48               	movlw	72
  9843  001D06  6E18               	movwf	DS1621_Read_Temp@Device,c
  9844                           
  9845                           ;I2C_Support.c: 25: char Cmd = 0xAA;
  9846  001D08  0EAA               	movlw	170
  9847  001D0A  6E16               	movwf	DS1621_Read_Temp@Cmd,c
  9848                           
  9849                           ;I2C_Support.c: 26: char Data_Ret;
  9850                           ;I2C_Support.c: 27: I2C_Start();
  9851  001D0C  ECEA  F00F         	call	_I2C_Start	;wreg free
  9852                           
  9853                           ;I2C_Support.c: 28: I2C_Write((Device << 1) | 0);
  9854  001D10  5018               	movf	DS1621_Read_Temp@Device,w,c
  9855  001D12  2418               	addwf	DS1621_Read_Temp@Device,w,c
  9856  001D14  EC63  F00E         	call	_I2C_Write
  9857                           
  9858                           ;I2C_Support.c: 29: I2C_Write(Cmd);
  9859  001D18  5016               	movf	DS1621_Read_Temp@Cmd,w,c
  9860  001D1A  EC63  F00E         	call	_I2C_Write
  9861                           
  9862                           ;I2C_Support.c: 30: I2C_ReStart();
  9863  001D1E  EC94  F00F         	call	_I2C_ReStart	;wreg free
  9864                           
  9865                           ;I2C_Support.c: 31: I2C_Write((Device << 1) | 1);
  9866  001D22  80D8               	bsf	status,0,c
  9867  001D24  3418               	rlcf	DS1621_Read_Temp@Device,w,c
  9868  001D26  EC63  F00E         	call	_I2C_Write
  9869                           
  9870                           ;I2C_Support.c: 32: Data_Ret = I2C_Read(0);
  9871  001D2A  0E00               	movlw	0
  9872  001D2C  ECC2  F00D         	call	_I2C_Read
  9873  001D30  6E17               	movwf	DS1621_Read_Temp@Data_Ret,c
  9874                           
  9875                           ;I2C_Support.c: 33: I2C_Stop();
  9876  001D32  ECE1  F00F         	call	_I2C_Stop	;wreg free
  9877                           
  9878                           ;I2C_Support.c: 34: return Data_Ret;
  9879  001D36  C017  F014         	movff	DS1621_Read_Temp@Data_Ret,?_DS1621_Read_Temp
  9880  001D3A  6A15               	clrf	?_DS1621_Read_Temp+1,c
  9881  001D3C  D000               	goto	l177
  9882  001D3E                     l177:
  9883  001D3E  0012               	return		;funcret
  9884  001D40                     __end_of_DS1621_Read_Temp:
  9885                           	opt stack 0
  9886                           tblptru	equ	0xFF8
  9887                           tblptrh	equ	0xFF7
  9888                           tblptrl	equ	0xFF6
  9889                           tablat	equ	0xFF5
  9890                           prodh	equ	0xFF4
  9891                           prodl	equ	0xFF3
  9892                           intcon	equ	0xFF2
  9893                           intcon2	equ	0xFF1
  9894                           postinc0	equ	0xFEE
  9895                           wreg	equ	0xFE8
  9896                           postdec1	equ	0xFE5
  9897                           fsr1l	equ	0xFE1
  9898                           indf2	equ	0xFDF
  9899                           postinc2	equ	0xFDE
  9900                           postdec2	equ	0xFDD
  9901                           fsr2h	equ	0xFDA
  9902                           fsr2l	equ	0xFD9
  9903                           status	equ	0xFD8
  9904                           
  9905 ;; *************** function _I2C_Read *****************
  9906 ;; Defined at:
  9907 ;;		line 16 in file "../I2C_Soft.c"
  9908 ;; Parameters:    Size  Location     Type
  9909 ;;  ack             1    wreg     unsigned char 
  9910 ;; Auto vars:     Size  Location     Type
  9911 ;;  ack             1   16[COMRAM] unsigned char 
  9912 ;;  inByte          1   18[COMRAM] unsigned char 
  9913 ;;  n               1   17[COMRAM] unsigned char 
  9914 ;; Return value:  Size  Location     Type
  9915 ;;                  1    wreg      unsigned char 
  9916 ;; Registers used:
  9917 ;;		wreg, status,2, status,0, cstack
  9918 ;; Tracked objects:
  9919 ;;		On entry : 0/0
  9920 ;;		On exit  : 0/0
  9921 ;;		Unchanged: 0/0
  9922 ;; Data sizes:     COMRAM   BANK0   BANK1   BANK2   BANK3   BANK4   BANK5   BANK6   BANK7   BANK8   BANK9  BANK10  BANK1
      +1  BANK12  BANK13  BANK14  BANK15
  9923 ;;      Params:         0       0       0       0       0       0       0       0       0       0       0       0       
      +0       0       0       0       0
  9924 ;;      Locals:         3       0       0       0       0       0       0       0       0       0       0       0       
      +0       0       0       0       0
  9925 ;;      Temps:          0       0       0       0       0       0       0       0       0       0       0       0       
      +0       0       0       0       0
  9926 ;;      Totals:         3       0       0       0       0       0       0       0       0       0       0       0       
      +0       0       0       0       0
  9927 ;;Total ram usage:        3 bytes
  9928 ;; Hardware stack levels used:    1
  9929 ;; Hardware stack levels required when called:    5
  9930 ;; This function calls:
  9931 ;;		_i2cAck
  9932 ;;		_i2cHighScl
  9933 ;;		_i2cHighSda
  9934 ;;		_i2cLowScl
  9935 ;;		_i2cNack
  9936 ;; This function is called by:
  9937 ;;		_DS1621_Read_Temp
  9938 ;;		_DS3231_Read_Time
  9939 ;;		_I2C_Write_Address_Read_One_Byte
  9940 ;;		_I2C_Write_Cmd_Read_One_Byte
  9941 ;;		_DS1621_Read_Temp_Bad
  9942 ;; This function uses a non-reentrant model
  9943 ;;
  9944                           
  9945                           	psect	text58
  9946  001B84                     __ptext58:
  9947                           	opt stack 0
  9948  001B84                     _I2C_Read:
  9949                           	opt stack 24
  9950                           
  9951                           ;incstack = 0
  9952                           ;I2C_Read@ack stored from wreg
  9953  001B84  6E11               	movwf	I2C_Read@ack,c
  9954                           
  9955                           ;I2C_Soft.c: 18: unsigned char inByte, n;
  9956                           ;I2C_Soft.c: 19: i2cHighSda();
  9957  001B86  EC3F  F010         	call	_i2cHighSda	;wreg free
  9958                           
  9959                           ;I2C_Soft.c: 20: for (n=0; n<8; n++)
  9960  001B8A  0E00               	movlw	0
  9961  001B8C  6E12               	movwf	I2C_Read@n,c
  9962  001B8E                     l5572:
  9963  001B8E  0E07               	movlw	7
  9964  001B90  6412               	cpfsgt	I2C_Read@n,c
  9965  001B92  D001               	goto	l5576
  9966  001B94  D00F               	goto	l5590
  9967  001B96                     l5576:
  9968                           
  9969                           ;I2C_Soft.c: 21: {
  9970                           ;I2C_Soft.c: 22: i2cHighScl();
  9971  001B96  EC12  F010         	call	_i2cHighScl	;wreg free
  9972                           
  9973                           ;I2C_Soft.c: 24: if (PORTCbits.RC4)
  9974  001B9A  A882               	btfss	3970,4,c	;volatile
  9975  001B9C  D003               	goto	l5582
  9976                           
  9977                           ;I2C_Soft.c: 25: inByte = (inByte << 1) | 0x01;
  9978  001B9E  80D8               	bsf	status,0,c
  9979  001BA0  3613               	rlcf	I2C_Read@inByte,f,c
  9980  001BA2  D004               	goto	l5584
  9981  001BA4                     l5582:
  9982                           
  9983                           ;I2C_Soft.c: 26: else
  9984                           ;I2C_Soft.c: 27: inByte = inByte << 1;
  9985  001BA4  5013               	movf	I2C_Read@inByte,w,c
  9986  001BA6  2413               	addwf	I2C_Read@inByte,w,c
  9987  001BA8  6E13               	movwf	I2C_Read@inByte,c
  9988  001BAA  D000               	goto	l5584
  9989  001BAC                     l5584:
  9990                           
  9991                           ;I2C_Soft.c: 28: i2cLowScl();
  9992  001BAC  EC3B  F010         	call	_i2cLowScl	;wreg free
  9993  001BB0  2A12               	incf	I2C_Read@n,f,c
  9994  001BB2  D7ED               	goto	l5572
  9995  001BB4                     l5590:
  9996                           
  9997                           ;I2C_Soft.c: 29: }
  9998                           ;I2C_Soft.c: 30: if (ack) i2cAck();
  9999  001BB4  5011               	movf	I2C_Read@ack,w,c
 10000  001BB6  B4D8               	btfsc	status,2,c
 10001  001BB8  D003               	goto	l5594
 10002  001BBA  ECD8  F00F         	call	_i2cAck	;wreg free
 10003  001BBE  D003               	goto	l5596
 10004  001BC0                     l5594:
 10005                           
 10006                           ;I2C_Soft.c: 31: else i2cNack();
 10007  001BC0  EC2D  F010         	call	_i2cNack	;wreg free
 10008  001BC4  D000               	goto	l5596
 10009  001BC6                     l5596:
 10010                           
 10011                           ;I2C_Soft.c: 34: return(inByte);
 10012  001BC6  5013               	movf	I2C_Read@inByte,w,c
 10013  001BC8  D000               	goto	l97
 10014  001BCA                     l97:
 10015  001BCA  0012               	return		;funcret
 10016  001BCC                     __end_of_I2C_Read:
 10017                           	opt stack 0
 10018                           tblptru	equ	0xFF8
 10019                           tblptrh	equ	0xFF7
 10020                           tblptrl	equ	0xFF6
 10021                           tablat	equ	0xFF5
 10022                           prodh	equ	0xFF4
 10023                           prodl	equ	0xFF3
 10024                           intcon	equ	0xFF2
 10025                           intcon2	equ	0xFF1
 10026                           postinc0	equ	0xFEE
 10027                           wreg	equ	0xFE8
 10028                           postdec1	equ	0xFE5
 10029                           fsr1l	equ	0xFE1
 10030                           indf2	equ	0xFDF
 10031                           postinc2	equ	0xFDE
 10032                           postdec2	equ	0xFDD
 10033                           fsr2h	equ	0xFDA
 10034                           fsr2l	equ	0xFD9
 10035                           status	equ	0xFD8
 10036                           
 10037 ;; *************** function _i2cNack *****************
 10038 ;; Defined at:
 10039 ;;		line 53 in file "../I2C_Soft.c"
 10040 ;; Parameters:    Size  Location     Type
 10041 ;;		None
 10042 ;; Auto vars:     Size  Location     Type
 10043 ;;		None
 10044 ;; Return value:  Size  Location     Type
 10045 ;;		None               void
 10046 ;; Registers used:
 10047 ;;		wreg, cstack
 10048 ;; Tracked objects:
 10049 ;;		On entry : 0/0
 10050 ;;		On exit  : 0/0
 10051 ;;		Unchanged: 0/0
 10052 ;; Data sizes:     COMRAM   BANK0   BANK1   BANK2   BANK3   BANK4   BANK5   BANK6   BANK7   BANK8   BANK9  BANK10  BANK1
      +1  BANK12  BANK13  BANK14  BANK15
 10053 ;;      Params:         0       0       0       0       0       0       0       0       0       0       0       0       
      +0       0       0       0       0
 10054 ;;      Locals:         0       0       0       0       0       0       0       0       0       0       0       0       
      +0       0       0       0       0
 10055 ;;      Temps:          0       0       0       0       0       0       0       0       0       0       0       0       
      +0       0       0       0       0
 10056 ;;      Totals:         0       0       0       0       0       0       0       0       0       0       0       0       
      +0       0       0       0       0
 10057 ;;Total ram usage:        0 bytes
 10058 ;; Hardware stack levels used:    1
 10059 ;; Hardware stack levels required when called:    4
 10060 ;; This function calls:
 10061 ;;		_i2cHighScl
 10062 ;;		_i2cLowScl
 10063 ;; This function is called by:
 10064 ;;		_I2C_Read
 10065 ;; This function uses a non-reentrant model
 10066 ;;
 10067                           
 10068                           	psect	text59
 10069  00205A                     __ptext59:
 10070                           	opt stack 0
 10071  00205A                     _i2cNack:
 10072                           	opt stack 24
 10073                           
 10074                           ;I2C_Soft.c: 55: i2cHighScl();
 10075                           
 10076                           ;incstack = 0
 10077  00205A  EC12  F010         	call	_i2cHighScl	;wreg free
 10078                           
 10079                           ;I2C_Soft.c: 56: i2cLowScl();
 10080  00205E  EC3B  F010         	call	_i2cLowScl	;wreg free
 10081  002062  0012               	return		;funcret
 10082  002064                     __end_of_i2cNack:
 10083                           	opt stack 0
 10084                           tblptru	equ	0xFF8
 10085                           tblptrh	equ	0xFF7
 10086                           tblptrl	equ	0xFF6
 10087                           tablat	equ	0xFF5
 10088                           prodh	equ	0xFF4
 10089                           prodl	equ	0xFF3
 10090                           intcon	equ	0xFF2
 10091                           intcon2	equ	0xFF1
 10092                           postinc0	equ	0xFEE
 10093                           wreg	equ	0xFE8
 10094                           postdec1	equ	0xFE5
 10095                           fsr1l	equ	0xFE1
 10096                           indf2	equ	0xFDF
 10097                           postinc2	equ	0xFDE
 10098                           postdec2	equ	0xFDD
 10099                           fsr2h	equ	0xFDA
 10100                           fsr2l	equ	0xFD9
 10101                           status	equ	0xFD8
 10102                           
 10103 ;; *************** function _i2cAck *****************
 10104 ;; Defined at:
 10105 ;;		line 59 in file "../I2C_Soft.c"
 10106 ;; Parameters:    Size  Location     Type
 10107 ;;		None
 10108 ;; Auto vars:     Size  Location     Type
 10109 ;;		None
 10110 ;; Return value:  Size  Location     Type
 10111 ;;		None               void
 10112 ;; Registers used:
 10113 ;;		wreg, cstack
 10114 ;; Tracked objects:
 10115 ;;		On entry : 0/0
 10116 ;;		On exit  : 0/0
 10117 ;;		Unchanged: 0/0
 10118 ;; Data sizes:     COMRAM   BANK0   BANK1   BANK2   BANK3   BANK4   BANK5   BANK6   BANK7   BANK8   BANK9  BANK10  BANK1
      +1  BANK12  BANK13  BANK14  BANK15
 10119 ;;      Params:         0       0       0       0       0       0       0       0       0       0       0       0       
      +0       0       0       0       0
 10120 ;;      Locals:         0       0       0       0       0       0       0       0       0       0       0       0       
      +0       0       0       0       0
 10121 ;;      Temps:          0       0       0       0       0       0       0       0       0       0       0       0       
      +0       0       0       0       0
 10122 ;;      Totals:         0       0       0       0       0       0       0       0       0       0       0       0       
      +0       0       0       0       0
 10123 ;;Total ram usage:        0 bytes
 10124 ;; Hardware stack levels used:    1
 10125 ;; Hardware stack levels required when called:    4
 10126 ;; This function calls:
 10127 ;;		_i2cHighScl
 10128 ;;		_i2cHighSda
 10129 ;;		_i2cLowScl
 10130 ;;		_i2cLowSda
 10131 ;; This function is called by:
 10132 ;;		_I2C_Read
 10133 ;; This function uses a non-reentrant model
 10134 ;;
 10135                           
 10136                           	psect	text60
 10137  001FB0                     __ptext60:
 10138                           	opt stack 0
 10139  001FB0                     _i2cAck:
 10140                           	opt stack 24
 10141                           
 10142                           ;I2C_Soft.c: 61: i2cLowSda();
 10143                           
 10144                           ;incstack = 0
 10145  001FB0  EC32  F010         	call	_i2cLowSda	;wreg free
 10146                           
 10147                           ;I2C_Soft.c: 62: i2cHighScl();
 10148  001FB4  EC12  F010         	call	_i2cHighScl	;wreg free
 10149                           
 10150                           ;I2C_Soft.c: 63: i2cLowScl();
 10151  001FB8  EC3B  F010         	call	_i2cLowScl	;wreg free
 10152                           
 10153                           ;I2C_Soft.c: 64: i2cHighSda();
 10154  001FBC  EC3F  F010         	call	_i2cHighSda	;wreg free
 10155  001FC0  0012               	return		;funcret
 10156  001FC2                     __end_of_i2cAck:
 10157                           	opt stack 0
 10158                           tblptru	equ	0xFF8
 10159                           tblptrh	equ	0xFF7
 10160                           tblptrl	equ	0xFF6
 10161                           tablat	equ	0xFF5
 10162                           prodh	equ	0xFF4
 10163                           prodl	equ	0xFF3
 10164                           intcon	equ	0xFF2
 10165                           intcon2	equ	0xFF1
 10166                           postinc0	equ	0xFEE
 10167                           wreg	equ	0xFE8
 10168                           postdec1	equ	0xFE5
 10169                           fsr1l	equ	0xFE1
 10170                           indf2	equ	0xFDF
 10171                           postinc2	equ	0xFDE
 10172                           postdec2	equ	0xFDD
 10173                           fsr2h	equ	0xFDA
 10174                           fsr2l	equ	0xFD9
 10175                           status	equ	0xFD8
 10176                           
 10177 ;; *************** function _I2C_ReStart *****************
 10178 ;; Defined at:
 10179 ;;		line 75 in file "../I2C_Soft.c"
 10180 ;; Parameters:    Size  Location     Type
 10181 ;;		None
 10182 ;; Auto vars:     Size  Location     Type
 10183 ;;		None
 10184 ;; Return value:  Size  Location     Type
 10185 ;;		None               void
 10186 ;; Registers used:
 10187 ;;		wreg, cstack
 10188 ;; Tracked objects:
 10189 ;;		On entry : 0/0
 10190 ;;		On exit  : 0/0
 10191 ;;		Unchanged: 0/0
 10192 ;; Data sizes:     COMRAM   BANK0   BANK1   BANK2   BANK3   BANK4   BANK5   BANK6   BANK7   BANK8   BANK9  BANK10  BANK1
      +1  BANK12  BANK13  BANK14  BANK15
 10193 ;;      Params:         0       0       0       0       0       0       0       0       0       0       0       0       
      +0       0       0       0       0
 10194 ;;      Locals:         0       0       0       0       0       0       0       0       0       0       0       0       
      +0       0       0       0       0
 10195 ;;      Temps:          0       0       0       0       0       0       0       0       0       0       0       0       
      +0       0       0       0       0
 10196 ;;      Totals:         0       0       0       0       0       0       0       0       0       0       0       0       
      +0       0       0       0       0
 10197 ;;Total ram usage:        0 bytes
 10198 ;; Hardware stack levels used:    1
 10199 ;; Hardware stack levels required when called:    4
 10200 ;; This function calls:
 10201 ;;		_i2cHighScl
 10202 ;;		_i2cHighSda
 10203 ;;		_i2cLowScl
 10204 ;;		_i2cLowSda
 10205 ;; This function is called by:
 10206 ;;		_DS1621_Read_Temp
 10207 ;;		_DS3231_Read_Time
 10208 ;;		_I2C_Write_Address_Read_One_Byte
 10209 ;;		_I2C_Write_Cmd_Read_One_Byte
 10210 ;;		_DS1621_Read_Temp_Bad
 10211 ;; This function uses a non-reentrant model
 10212 ;;
 10213                           
 10214                           	psect	text61
 10215  001F28                     __ptext61:
 10216                           	opt stack 0
 10217  001F28                     _I2C_ReStart:
 10218                           	opt stack 25
 10219                           
 10220                           ;I2C_Soft.c: 77: i2cLowScl();
 10221                           
 10222                           ;incstack = 0
 10223  001F28  EC3B  F010         	call	_i2cLowScl	;wreg free
 10224                           
 10225                           ;I2C_Soft.c: 78: i2cHighSda();
 10226  001F2C  EC3F  F010         	call	_i2cHighSda	;wreg free
 10227                           
 10228                           ;I2C_Soft.c: 79: i2cHighScl();
 10229  001F30  EC12  F010         	call	_i2cHighScl	;wreg free
 10230                           
 10231                           ;I2C_Soft.c: 80: i2cLowSda();
 10232  001F34  EC32  F010         	call	_i2cLowSda	;wreg free
 10233                           
 10234                           ;I2C_Soft.c: 81: i2cLowScl();
 10235  001F38  EC3B  F010         	call	_i2cLowScl	;wreg free
 10236  001F3C  0012               	return		;funcret
 10237  001F3E                     __end_of_I2C_ReStart:
 10238                           	opt stack 0
 10239                           tblptru	equ	0xFF8
 10240                           tblptrh	equ	0xFF7
 10241                           tblptrl	equ	0xFF6
 10242                           tablat	equ	0xFF5
 10243                           prodh	equ	0xFF4
 10244                           prodl	equ	0xFF3
 10245                           intcon	equ	0xFF2
 10246                           intcon2	equ	0xFF1
 10247                           postinc0	equ	0xFEE
 10248                           wreg	equ	0xFE8
 10249                           postdec1	equ	0xFE5
 10250                           fsr1l	equ	0xFE1
 10251                           indf2	equ	0xFDF
 10252                           postinc2	equ	0xFDE
 10253                           postdec2	equ	0xFDD
 10254                           fsr2h	equ	0xFDA
 10255                           fsr2l	equ	0xFD9
 10256                           status	equ	0xFD8
 10257                           
 10258 ;; *************** function _DS1621_Init *****************
 10259 ;; Defined at:
 10260 ;;		line 51 in file "../I2C_Support.c"
 10261 ;; Parameters:    Size  Location     Type
 10262 ;;		None
 10263 ;; Auto vars:     Size  Location     Type
 10264 ;;  Device          1   21[COMRAM] unsigned char 
 10265 ;; Return value:  Size  Location     Type
 10266 ;;		None               void
 10267 ;; Registers used:
 10268 ;;		wreg, status,2, status,0, cstack
 10269 ;; Tracked objects:
 10270 ;;		On entry : 0/0
 10271 ;;		On exit  : 0/0
 10272 ;;		Unchanged: 0/0
 10273 ;; Data sizes:     COMRAM   BANK0   BANK1   BANK2   BANK3   BANK4   BANK5   BANK6   BANK7   BANK8   BANK9  BANK10  BANK1
      +1  BANK12  BANK13  BANK14  BANK15
 10274 ;;      Params:         0       0       0       0       0       0       0       0       0       0       0       0       
      +0       0       0       0       0
 10275 ;;      Locals:         1       0       0       0       0       0       0       0       0       0       0       0       
      +0       0       0       0       0
 10276 ;;      Temps:          0       0       0       0       0       0       0       0       0       0       0       0       
      +0       0       0       0       0
 10277 ;;      Totals:         1       0       0       0       0       0       0       0       0       0       0       0       
      +0       0       0       0       0
 10278 ;;Total ram usage:        1 bytes
 10279 ;; Hardware stack levels used:    1
 10280 ;; Hardware stack levels required when called:    6
 10281 ;; This function calls:
 10282 ;;		_I2C_Write_Cmd_Only
 10283 ;;		_I2C_Write_Cmd_Write_Data
 10284 ;; This function is called by:
 10285 ;;		_main
 10286 ;; This function uses a non-reentrant model
 10287 ;;
 10288                           
 10289                           	psect	text62
 10290  001EA2                     __ptext62:
 10291                           	opt stack 0
 10292  001EA2                     _DS1621_Init:
 10293                           	opt stack 24
 10294                           
 10295                           ;I2C_Support.c: 53: char Device = 0x48;
 10296                           
 10297                           ;incstack = 0
 10298  001EA2  0E48               	movlw	72
 10299  001EA4  6E16               	movwf	DS1621_Init@Device,c
 10300                           
 10301                           ;I2C_Support.c: 54: I2C_Write_Cmd_Write_Data(Device, 0xAC, 0x02);
 10302  001EA6  0EAC               	movlw	172
 10303  001EA8  6E13               	movwf	I2C_Write_Cmd_Write_Data@Cmd,c
 10304  001EAA  0E02               	movlw	2
 10305  001EAC  6E14               	movwf	I2C_Write_Cmd_Write_Data@Data_Out,c
 10306  001EAE  5016               	movf	DS1621_Init@Device,w,c
 10307  001EB0  EC41  F00F         	call	_I2C_Write_Cmd_Write_Data
 10308                           
 10309                           ;I2C_Support.c: 55: I2C_Write_Cmd_Only(Device, 0xEE);
 10310  001EB4  0EEE               	movlw	238
 10311  001EB6  6E13               	movwf	I2C_Write_Cmd_Only@Cmd,c
 10312  001EB8  5016               	movf	DS1621_Init@Device,w,c
 10313  001EBA  EC7B  F00F         	call	_I2C_Write_Cmd_Only
 10314  001EBE  0012               	return		;funcret
 10315  001EC0                     __end_of_DS1621_Init:
 10316                           	opt stack 0
 10317                           tblptru	equ	0xFF8
 10318                           tblptrh	equ	0xFF7
 10319                           tblptrl	equ	0xFF6
 10320                           tablat	equ	0xFF5
 10321                           prodh	equ	0xFF4
 10322                           prodl	equ	0xFF3
 10323                           intcon	equ	0xFF2
 10324                           intcon2	equ	0xFF1
 10325                           postinc0	equ	0xFEE
 10326                           wreg	equ	0xFE8
 10327                           postdec1	equ	0xFE5
 10328                           fsr1l	equ	0xFE1
 10329                           indf2	equ	0xFDF
 10330                           postinc2	equ	0xFDE
 10331                           postdec2	equ	0xFDD
 10332                           fsr2h	equ	0xFDA
 10333                           fsr2l	equ	0xFD9
 10334                           status	equ	0xFD8
 10335                           
 10336 ;; *************** function _I2C_Write_Cmd_Write_Data *****************
 10337 ;; Defined at:
 10338 ;;		line 148 in file "../I2C_Soft.c"
 10339 ;; Parameters:    Size  Location     Type
 10340 ;;  Device          1    wreg     unsigned char 
 10341 ;;  Cmd             1   18[COMRAM] unsigned char 
 10342 ;;  Data_Out        1   19[COMRAM] unsigned char 
 10343 ;; Auto vars:     Size  Location     Type
 10344 ;;  Device          1   20[COMRAM] unsigned char 
 10345 ;; Return value:  Size  Location     Type
 10346 ;;		None               void
 10347 ;; Registers used:
 10348 ;;		wreg, status,2, status,0, cstack
 10349 ;; Tracked objects:
 10350 ;;		On entry : 0/0
 10351 ;;		On exit  : 0/0
 10352 ;;		Unchanged: 0/0
 10353 ;; Data sizes:     COMRAM   BANK0   BANK1   BANK2   BANK3   BANK4   BANK5   BANK6   BANK7   BANK8   BANK9  BANK10  BANK1
      +1  BANK12  BANK13  BANK14  BANK15
 10354 ;;      Params:         2       0       0       0       0       0       0       0       0       0       0       0       
      +0       0       0       0       0
 10355 ;;      Locals:         1       0       0       0       0       0       0       0       0       0       0       0       
      +0       0       0       0       0
 10356 ;;      Temps:          0       0       0       0       0       0       0       0       0       0       0       0       
      +0       0       0       0       0
 10357 ;;      Totals:         3       0       0       0       0       0       0       0       0       0       0       0       
      +0       0       0       0       0
 10358 ;;Total ram usage:        3 bytes
 10359 ;; Hardware stack levels used:    1
 10360 ;; Hardware stack levels required when called:    5
 10361 ;; This function calls:
 10362 ;;		_I2C_Start
 10363 ;;		_I2C_Stop
 10364 ;;		_I2C_Write
 10365 ;; This function is called by:
 10366 ;;		_DS1621_Init
 10367 ;; This function uses a non-reentrant model
 10368 ;;
 10369                           
 10370                           	psect	text63
 10371  001E82                     __ptext63:
 10372                           	opt stack 0
 10373  001E82                     _I2C_Write_Cmd_Write_Data:
 10374                           	opt stack 24
 10375                           
 10376                           ;incstack = 0
 10377                           ;I2C_Write_Cmd_Write_Data@Device stored from wreg
 10378  001E82  6E15               	movwf	I2C_Write_Cmd_Write_Data@Device,c
 10379                           
 10380                           ;I2C_Soft.c: 150: I2C_Start();
 10381  001E84  ECEA  F00F         	call	_I2C_Start	;wreg free
 10382                           
 10383                           ;I2C_Soft.c: 151: I2C_Write((Device << 1) | 0);
 10384  001E88  5015               	movf	I2C_Write_Cmd_Write_Data@Device,w,c
 10385  001E8A  2415               	addwf	I2C_Write_Cmd_Write_Data@Device,w,c
 10386  001E8C  EC63  F00E         	call	_I2C_Write
 10387                           
 10388                           ;I2C_Soft.c: 152: I2C_Write(Cmd);
 10389  001E90  5013               	movf	I2C_Write_Cmd_Write_Data@Cmd,w,c
 10390  001E92  EC63  F00E         	call	_I2C_Write
 10391                           
 10392                           ;I2C_Soft.c: 153: I2C_Write(Data_Out);
 10393  001E96  5014               	movf	I2C_Write_Cmd_Write_Data@Data_Out,w,c
 10394  001E98  EC63  F00E         	call	_I2C_Write
 10395                           
 10396                           ;I2C_Soft.c: 154: I2C_Stop();
 10397  001E9C  ECE1  F00F         	call	_I2C_Stop	;wreg free
 10398  001EA0  0012               	return		;funcret
 10399  001EA2                     __end_of_I2C_Write_Cmd_Write_Data:
 10400                           	opt stack 0
 10401                           tblptru	equ	0xFF8
 10402                           tblptrh	equ	0xFF7
 10403                           tblptrl	equ	0xFF6
 10404                           tablat	equ	0xFF5
 10405                           prodh	equ	0xFF4
 10406                           prodl	equ	0xFF3
 10407                           intcon	equ	0xFF2
 10408                           intcon2	equ	0xFF1
 10409                           postinc0	equ	0xFEE
 10410                           wreg	equ	0xFE8
 10411                           postdec1	equ	0xFE5
 10412                           fsr1l	equ	0xFE1
 10413                           indf2	equ	0xFDF
 10414                           postinc2	equ	0xFDE
 10415                           postdec2	equ	0xFDD
 10416                           fsr2h	equ	0xFDA
 10417                           fsr2l	equ	0xFD9
 10418                           status	equ	0xFD8
 10419                           
 10420 ;; *************** function _I2C_Write_Cmd_Only *****************
 10421 ;; Defined at:
 10422 ;;		line 140 in file "../I2C_Soft.c"
 10423 ;; Parameters:    Size  Location     Type
 10424 ;;  Device          1    wreg     unsigned char 
 10425 ;;  Cmd             1   18[COMRAM] unsigned char 
 10426 ;; Auto vars:     Size  Location     Type
 10427 ;;  Device          1   19[COMRAM] unsigned char 
 10428 ;; Return value:  Size  Location     Type
 10429 ;;		None               void
 10430 ;; Registers used:
 10431 ;;		wreg, status,2, status,0, cstack
 10432 ;; Tracked objects:
 10433 ;;		On entry : 0/0
 10434 ;;		On exit  : 0/0
 10435 ;;		Unchanged: 0/0
 10436 ;; Data sizes:     COMRAM   BANK0   BANK1   BANK2   BANK3   BANK4   BANK5   BANK6   BANK7   BANK8   BANK9  BANK10  BANK1
      +1  BANK12  BANK13  BANK14  BANK15
 10437 ;;      Params:         1       0       0       0       0       0       0       0       0       0       0       0       
      +0       0       0       0       0
 10438 ;;      Locals:         1       0       0       0       0       0       0       0       0       0       0       0       
      +0       0       0       0       0
 10439 ;;      Temps:          0       0       0       0       0       0       0       0       0       0       0       0       
      +0       0       0       0       0
 10440 ;;      Totals:         2       0       0       0       0       0       0       0       0       0       0       0       
      +0       0       0       0       0
 10441 ;;Total ram usage:        2 bytes
 10442 ;; Hardware stack levels used:    1
 10443 ;; Hardware stack levels required when called:    5
 10444 ;; This function calls:
 10445 ;;		_I2C_Start
 10446 ;;		_I2C_Stop
 10447 ;;		_I2C_Write
 10448 ;; This function is called by:
 10449 ;;		_DS1621_Init
 10450 ;; This function uses a non-reentrant model
 10451 ;;
 10452                           
 10453                           	psect	text64
 10454  001EF6                     __ptext64:
 10455                           	opt stack 0
 10456  001EF6                     _I2C_Write_Cmd_Only:
 10457                           	opt stack 24
 10458                           
 10459                           ;incstack = 0
 10460                           ;I2C_Write_Cmd_Only@Device stored from wreg
 10461  001EF6  6E14               	movwf	I2C_Write_Cmd_Only@Device,c
 10462                           
 10463                           ;I2C_Soft.c: 142: I2C_Start();
 10464  001EF8  ECEA  F00F         	call	_I2C_Start	;wreg free
 10465                           
 10466                           ;I2C_Soft.c: 143: I2C_Write((Device << 1) | 0);
 10467  001EFC  5014               	movf	I2C_Write_Cmd_Only@Device,w,c
 10468  001EFE  2414               	addwf	I2C_Write_Cmd_Only@Device,w,c
 10469  001F00  EC63  F00E         	call	_I2C_Write
 10470                           
 10471                           ;I2C_Soft.c: 144: I2C_Write(Cmd);
 10472  001F04  5013               	movf	I2C_Write_Cmd_Only@Cmd,w,c
 10473  001F06  EC63  F00E         	call	_I2C_Write
 10474                           
 10475                           ;I2C_Soft.c: 145: I2C_Stop();
 10476  001F0A  ECE1  F00F         	call	_I2C_Stop	;wreg free
 10477  001F0E  0012               	return		;funcret
 10478  001F10                     __end_of_I2C_Write_Cmd_Only:
 10479                           	opt stack 0
 10480                           tblptru	equ	0xFF8
 10481                           tblptrh	equ	0xFF7
 10482                           tblptrl	equ	0xFF6
 10483                           tablat	equ	0xFF5
 10484                           prodh	equ	0xFF4
 10485                           prodl	equ	0xFF3
 10486                           intcon	equ	0xFF2
 10487                           intcon2	equ	0xFF1
 10488                           postinc0	equ	0xFEE
 10489                           wreg	equ	0xFE8
 10490                           postdec1	equ	0xFE5
 10491                           fsr1l	equ	0xFE1
 10492                           indf2	equ	0xFDF
 10493                           postinc2	equ	0xFDE
 10494                           postdec2	equ	0xFDD
 10495                           fsr2h	equ	0xFDA
 10496                           fsr2l	equ	0xFD9
 10497                           status	equ	0xFD8
 10498                           
 10499 ;; *************** function _I2C_Write *****************
 10500 ;; Defined at:
 10501 ;;		line 37 in file "../I2C_Soft.c"
 10502 ;; Parameters:    Size  Location     Type
 10503 ;;  outByte         1    wreg     unsigned char 
 10504 ;; Auto vars:     Size  Location     Type
 10505 ;;  outByte         1   16[COMRAM] unsigned char 
 10506 ;;  n               1   17[COMRAM] unsigned char 
 10507 ;; Return value:  Size  Location     Type
 10508 ;;		None               void
 10509 ;; Registers used:
 10510 ;;		wreg, status,2, status,0, cstack
 10511 ;; Tracked objects:
 10512 ;;		On entry : 0/0
 10513 ;;		On exit  : 0/0
 10514 ;;		Unchanged: 0/0
 10515 ;; Data sizes:     COMRAM   BANK0   BANK1   BANK2   BANK3   BANK4   BANK5   BANK6   BANK7   BANK8   BANK9  BANK10  BANK1
      +1  BANK12  BANK13  BANK14  BANK15
 10516 ;;      Params:         0       0       0       0       0       0       0       0       0       0       0       0       
      +0       0       0       0       0
 10517 ;;      Locals:         2       0       0       0       0       0       0       0       0       0       0       0       
      +0       0       0       0       0
 10518 ;;      Temps:          0       0       0       0       0       0       0       0       0       0       0       0       
      +0       0       0       0       0
 10519 ;;      Totals:         2       0       0       0       0       0       0       0       0       0       0       0       
      +0       0       0       0       0
 10520 ;;Total ram usage:        2 bytes
 10521 ;; Hardware stack levels used:    1
 10522 ;; Hardware stack levels required when called:    4
 10523 ;; This function calls:
 10524 ;;		_i2cHighScl
 10525 ;;		_i2cHighSda
 10526 ;;		_i2cLowScl
 10527 ;;		_i2cLowSda
 10528 ;; This function is called by:
 10529 ;;		_I2C_Write_Cmd_Only
 10530 ;;		_I2C_Write_Cmd_Write_Data
 10531 ;;		_DS1621_Read_Temp
 10532 ;;		_DS3231_Read_Time
 10533 ;;		_DS3231_Setup_Time
 10534 ;;		_I2C_Write_Address_Read_One_Byte
 10535 ;;		_I2C_Write_Address_Write_One_Byte
 10536 ;;		_I2C_Write_Cmd_Read_One_Byte
 10537 ;;		_DS1621_Read_Temp_Bad
 10538 ;; This function uses a non-reentrant model
 10539 ;;
 10540                           
 10541                           	psect	text65
 10542  001CC6                     __ptext65:
 10543                           	opt stack 0
 10544  001CC6                     _I2C_Write:
 10545                           	opt stack 25
 10546                           
 10547                           ;incstack = 0
 10548                           ;I2C_Write@outByte stored from wreg
 10549  001CC6  6E11               	movwf	I2C_Write@outByte,c
 10550                           
 10551                           ;I2C_Soft.c: 39: unsigned char n;
 10552                           ;I2C_Soft.c: 40: for(n=0; n<8; n++)
 10553  001CC8  0E00               	movlw	0
 10554  001CCA  6E12               	movwf	I2C_Write@n,c
 10555  001CCC                     l5310:
 10556  001CCC  0E07               	movlw	7
 10557  001CCE  6412               	cpfsgt	I2C_Write@n,c
 10558  001CD0  D001               	goto	l100
 10559  001CD2  D011               	goto	l5328
 10560  001CD4                     l100:
 10561                           
 10562                           ;I2C_Soft.c: 41: {
 10563                           ;I2C_Soft.c: 42: if(outByte&0x80) i2cHighSda();
 10564  001CD4  AE11               	btfss	I2C_Write@outByte,7,c
 10565  001CD6  D003               	goto	l5316
 10566  001CD8  EC3F  F010         	call	_i2cHighSda	;wreg free
 10567  001CDC  D003               	goto	l5318
 10568  001CDE                     l5316:
 10569                           
 10570                           ;I2C_Soft.c: 43: else i2cLowSda();
 10571  001CDE  EC32  F010         	call	_i2cLowSda	;wreg free
 10572  001CE2  D000               	goto	l5318
 10573  001CE4                     l5318:
 10574                           
 10575                           ;I2C_Soft.c: 44: i2cHighScl();
 10576  001CE4  EC12  F010         	call	_i2cHighScl	;wreg free
 10577                           
 10578                           ;I2C_Soft.c: 45: i2cLowScl();
 10579  001CE8  EC3B  F010         	call	_i2cLowScl	;wreg free
 10580                           
 10581                           ;I2C_Soft.c: 46: outByte = outByte << 1;
 10582  001CEC  5011               	movf	I2C_Write@outByte,w,c
 10583  001CEE  2411               	addwf	I2C_Write@outByte,w,c
 10584  001CF0  6E11               	movwf	I2C_Write@outByte,c
 10585  001CF2  2A12               	incf	I2C_Write@n,f,c
 10586  001CF4  D7EB               	goto	l5310
 10587  001CF6                     l5328:
 10588                           
 10589                           ;I2C_Soft.c: 47: }
 10590                           ;I2C_Soft.c: 48: i2cHighSda();
 10591  001CF6  EC3F  F010         	call	_i2cHighSda	;wreg free
 10592                           
 10593                           ;I2C_Soft.c: 49: i2cHighScl();
 10594  001CFA  EC12  F010         	call	_i2cHighScl	;wreg free
 10595                           
 10596                           ;I2C_Soft.c: 50: i2cLowScl();
 10597  001CFE  EC3B  F010         	call	_i2cLowScl	;wreg free
 10598  001D02  0012               	return		;funcret
 10599  001D04                     __end_of_I2C_Write:
 10600                           	opt stack 0
 10601                           tblptru	equ	0xFF8
 10602                           tblptrh	equ	0xFF7
 10603                           tblptrl	equ	0xFF6
 10604                           tablat	equ	0xFF5
 10605                           prodh	equ	0xFF4
 10606                           prodl	equ	0xFF3
 10607                           intcon	equ	0xFF2
 10608                           intcon2	equ	0xFF1
 10609                           postinc0	equ	0xFEE
 10610                           wreg	equ	0xFE8
 10611                           postdec1	equ	0xFE5
 10612                           fsr1l	equ	0xFE1
 10613                           indf2	equ	0xFDF
 10614                           postinc2	equ	0xFDE
 10615                           postdec2	equ	0xFDD
 10616                           fsr2h	equ	0xFDA
 10617                           fsr2l	equ	0xFD9
 10618                           status	equ	0xFD8
 10619                           
 10620 ;; *************** function _I2C_Stop *****************
 10621 ;; Defined at:
 10622 ;;		line 84 in file "../I2C_Soft.c"
 10623 ;; Parameters:    Size  Location     Type
 10624 ;;		None
 10625 ;; Auto vars:     Size  Location     Type
 10626 ;;		None
 10627 ;; Return value:  Size  Location     Type
 10628 ;;		None               void
 10629 ;; Registers used:
 10630 ;;		wreg, cstack
 10631 ;; Tracked objects:
 10632 ;;		On entry : 0/0
 10633 ;;		On exit  : 0/0
 10634 ;;		Unchanged: 0/0
 10635 ;; Data sizes:     COMRAM   BANK0   BANK1   BANK2   BANK3   BANK4   BANK5   BANK6   BANK7   BANK8   BANK9  BANK10  BANK1
      +1  BANK12  BANK13  BANK14  BANK15
 10636 ;;      Params:         0       0       0       0       0       0       0       0       0       0       0       0       
      +0       0       0       0       0
 10637 ;;      Locals:         0       0       0       0       0       0       0       0       0       0       0       0       
      +0       0       0       0       0
 10638 ;;      Temps:          0       0       0       0       0       0       0       0       0       0       0       0       
      +0       0       0       0       0
 10639 ;;      Totals:         0       0       0       0       0       0       0       0       0       0       0       0       
      +0       0       0       0       0
 10640 ;;Total ram usage:        0 bytes
 10641 ;; Hardware stack levels used:    1
 10642 ;; Hardware stack levels required when called:    4
 10643 ;; This function calls:
 10644 ;;		_i2cHighScl
 10645 ;;		_i2cHighSda
 10646 ;;		_i2cLowScl
 10647 ;;		_i2cLowSda
 10648 ;; This function is called by:
 10649 ;;		_I2C_Write_Cmd_Only
 10650 ;;		_I2C_Write_Cmd_Write_Data
 10651 ;;		_DS1621_Read_Temp
 10652 ;;		_DS3231_Read_Time
 10653 ;;		_DS3231_Setup_Time
 10654 ;;		_I2C_Write_Address_Read_One_Byte
 10655 ;;		_I2C_Write_Address_Write_One_Byte
 10656 ;;		_I2C_Write_Cmd_Read_One_Byte
 10657 ;;		_DS1621_Read_Temp_Bad
 10658 ;; This function uses a non-reentrant model
 10659 ;;
 10660                           
 10661                           	psect	text66
 10662  001FC2                     __ptext66:
 10663                           	opt stack 0
 10664  001FC2                     _I2C_Stop:
 10665                           	opt stack 25
 10666                           
 10667                           ;I2C_Soft.c: 86: i2cLowScl();
 10668                           
 10669                           ;incstack = 0
 10670  001FC2  EC3B  F010         	call	_i2cLowScl	;wreg free
 10671                           
 10672                           ;I2C_Soft.c: 87: i2cLowSda();
 10673  001FC6  EC32  F010         	call	_i2cLowSda	;wreg free
 10674                           
 10675                           ;I2C_Soft.c: 88: i2cHighScl();
 10676  001FCA  EC12  F010         	call	_i2cHighScl	;wreg free
 10677                           
 10678                           ;I2C_Soft.c: 89: i2cHighSda();
 10679  001FCE  EC3F  F010         	call	_i2cHighSda	;wreg free
 10680  001FD2  0012               	return		;funcret
 10681  001FD4                     __end_of_I2C_Stop:
 10682                           	opt stack 0
 10683                           tblptru	equ	0xFF8
 10684                           tblptrh	equ	0xFF7
 10685                           tblptrl	equ	0xFF6
 10686                           tablat	equ	0xFF5
 10687                           prodh	equ	0xFF4
 10688                           prodl	equ	0xFF3
 10689                           intcon	equ	0xFF2
 10690                           intcon2	equ	0xFF1
 10691                           postinc0	equ	0xFEE
 10692                           wreg	equ	0xFE8
 10693                           postdec1	equ	0xFE5
 10694                           fsr1l	equ	0xFE1
 10695                           indf2	equ	0xFDF
 10696                           postinc2	equ	0xFDE
 10697                           postdec2	equ	0xFDD
 10698                           fsr2h	equ	0xFDA
 10699                           fsr2l	equ	0xFD9
 10700                           status	equ	0xFD8
 10701                           
 10702 ;; *************** function _I2C_Start *****************
 10703 ;; Defined at:
 10704 ;;		line 67 in file "../I2C_Soft.c"
 10705 ;; Parameters:    Size  Location     Type
 10706 ;;		None
 10707 ;; Auto vars:     Size  Location     Type
 10708 ;;		None
 10709 ;; Return value:  Size  Location     Type
 10710 ;;		None               void
 10711 ;; Registers used:
 10712 ;;		wreg, cstack
 10713 ;; Tracked objects:
 10714 ;;		On entry : 0/0
 10715 ;;		On exit  : 0/0
 10716 ;;		Unchanged: 0/0
 10717 ;; Data sizes:     COMRAM   BANK0   BANK1   BANK2   BANK3   BANK4   BANK5   BANK6   BANK7   BANK8   BANK9  BANK10  BANK1
      +1  BANK12  BANK13  BANK14  BANK15
 10718 ;;      Params:         0       0       0       0       0       0       0       0       0       0       0       0       
      +0       0       0       0       0
 10719 ;;      Locals:         0       0       0       0       0       0       0       0       0       0       0       0       
      +0       0       0       0       0
 10720 ;;      Temps:          0       0       0       0       0       0       0       0       0       0       0       0       
      +0       0       0       0       0
 10721 ;;      Totals:         0       0       0       0       0       0       0       0       0       0       0       0       
      +0       0       0       0       0
 10722 ;;Total ram usage:        0 bytes
 10723 ;; Hardware stack levels used:    1
 10724 ;; Hardware stack levels required when called:    4
 10725 ;; This function calls:
 10726 ;;		_i2cHighScl
 10727 ;;		_i2cHighSda
 10728 ;;		_i2cLowScl
 10729 ;;		_i2cLowSda
 10730 ;; This function is called by:
 10731 ;;		_I2C_Write_Cmd_Only
 10732 ;;		_I2C_Write_Cmd_Write_Data
 10733 ;;		_DS1621_Read_Temp
 10734 ;;		_DS3231_Read_Time
 10735 ;;		_DS3231_Setup_Time
 10736 ;;		_I2C_Write_Address_Read_One_Byte
 10737 ;;		_I2C_Write_Address_Write_One_Byte
 10738 ;;		_I2C_Write_Cmd_Read_One_Byte
 10739 ;;		_DS1621_Read_Temp_Bad
 10740 ;; This function uses a non-reentrant model
 10741 ;;
 10742                           
 10743                           	psect	text67
 10744  001FD4                     __ptext67:
 10745                           	opt stack 0
 10746  001FD4                     _I2C_Start:
 10747                           	opt stack 25
 10748                           
 10749                           ;I2C_Soft.c: 69: i2cHighSda();
 10750                           
 10751                           ;incstack = 0
 10752  001FD4  EC3F  F010         	call	_i2cHighSda	;wreg free
 10753                           
 10754                           ;I2C_Soft.c: 70: i2cHighScl();
 10755  001FD8  EC12  F010         	call	_i2cHighScl	;wreg free
 10756                           
 10757                           ;I2C_Soft.c: 71: i2cLowSda();
 10758  001FDC  EC32  F010         	call	_i2cLowSda	;wreg free
 10759                           
 10760                           ;I2C_Soft.c: 72: i2cLowScl();
 10761  001FE0  EC3B  F010         	call	_i2cLowScl	;wreg free
 10762  001FE4  0012               	return		;funcret
 10763  001FE6                     __end_of_I2C_Start:
 10764                           	opt stack 0
 10765                           tblptru	equ	0xFF8
 10766                           tblptrh	equ	0xFF7
 10767                           tblptrl	equ	0xFF6
 10768                           tablat	equ	0xFF5
 10769                           prodh	equ	0xFF4
 10770                           prodl	equ	0xFF3
 10771                           intcon	equ	0xFF2
 10772                           intcon2	equ	0xFF1
 10773                           postinc0	equ	0xFEE
 10774                           wreg	equ	0xFE8
 10775                           postdec1	equ	0xFE5
 10776                           fsr1l	equ	0xFE1
 10777                           indf2	equ	0xFDF
 10778                           postinc2	equ	0xFDE
 10779                           postdec2	equ	0xFDD
 10780                           fsr2h	equ	0xFDA
 10781                           fsr2l	equ	0xFD9
 10782                           status	equ	0xFD8
 10783                           
 10784 ;; *************** function _i2cLowSda *****************
 10785 ;; Defined at:
 10786 ;;		line 98 in file "../I2C_Soft.c"
 10787 ;; Parameters:    Size  Location     Type
 10788 ;;		None
 10789 ;; Auto vars:     Size  Location     Type
 10790 ;;		None
 10791 ;; Return value:  Size  Location     Type
 10792 ;;		None               void
 10793 ;; Registers used:
 10794 ;;		None
 10795 ;; Tracked objects:
 10796 ;;		On entry : 0/0
 10797 ;;		On exit  : 0/0
 10798 ;;		Unchanged: 0/0
 10799 ;; Data sizes:     COMRAM   BANK0   BANK1   BANK2   BANK3   BANK4   BANK5   BANK6   BANK7   BANK8   BANK9  BANK10  BANK1
      +1  BANK12  BANK13  BANK14  BANK15
 10800 ;;      Params:         0       0       0       0       0       0       0       0       0       0       0       0       
      +0       0       0       0       0
 10801 ;;      Locals:         0       0       0       0       0       0       0       0       0       0       0       0       
      +0       0       0       0       0
 10802 ;;      Temps:          0       0       0       0       0       0       0       0       0       0       0       0       
      +0       0       0       0       0
 10803 ;;      Totals:         0       0       0       0       0       0       0       0       0       0       0       0       
      +0       0       0       0       0
 10804 ;;Total ram usage:        0 bytes
 10805 ;; Hardware stack levels used:    1
 10806 ;; Hardware stack levels required when called:    3
 10807 ;; This function calls:
 10808 ;;		Nothing
 10809 ;; This function is called by:
 10810 ;;		_I2C_Write
 10811 ;;		_i2cAck
 10812 ;;		_I2C_Start
 10813 ;;		_I2C_ReStart
 10814 ;;		_I2C_Stop
 10815 ;; This function uses a non-reentrant model
 10816 ;;
 10817                           
 10818                           	psect	text68
 10819  002064                     __ptext68:
 10820                           	opt stack 0
 10821  002064                     _i2cLowSda:
 10822                           	opt stack 25
 10823                           
 10824                           ;I2C_Soft.c: 100: PORTCbits.RC4 = 0;
 10825                           
 10826                           ;incstack = 0
 10827  002064  9882               	bcf	3970,4,c	;volatile
 10828                           
 10829                           ;I2C_Soft.c: 101: TRISCbits.RC4 = 0;
 10830  002066  9894               	bcf	3988,4,c	;volatile
 10831                           
 10832                           ;I2C_Soft.c: 102: _delay((unsigned long)((2)*(8000000/4000000.0)));
 10833  002068  D000               	nop2		;2 cycle nop
 10834  00206A  D000               	nop2		;2 cycle nop
 10835  00206C  0012               	return		;funcret
 10836  00206E                     __end_of_i2cLowSda:
 10837                           	opt stack 0
 10838                           tblptru	equ	0xFF8
 10839                           tblptrh	equ	0xFF7
 10840                           tblptrl	equ	0xFF6
 10841                           tablat	equ	0xFF5
 10842                           prodh	equ	0xFF4
 10843                           prodl	equ	0xFF3
 10844                           intcon	equ	0xFF2
 10845                           intcon2	equ	0xFF1
 10846                           postinc0	equ	0xFEE
 10847                           wreg	equ	0xFE8
 10848                           postdec1	equ	0xFE5
 10849                           fsr1l	equ	0xFE1
 10850                           indf2	equ	0xFDF
 10851                           postinc2	equ	0xFDE
 10852                           postdec2	equ	0xFDD
 10853                           fsr2h	equ	0xFDA
 10854                           fsr2l	equ	0xFD9
 10855                           status	equ	0xFD8
 10856                           
 10857 ;; *************** function _i2cLowScl *****************
 10858 ;; Defined at:
 10859 ;;		line 111 in file "../I2C_Soft.c"
 10860 ;; Parameters:    Size  Location     Type
 10861 ;;		None
 10862 ;; Auto vars:     Size  Location     Type
 10863 ;;		None
 10864 ;; Return value:  Size  Location     Type
 10865 ;;		None               void
 10866 ;; Registers used:
 10867 ;;		None
 10868 ;; Tracked objects:
 10869 ;;		On entry : 0/0
 10870 ;;		On exit  : 0/0
 10871 ;;		Unchanged: 0/0
 10872 ;; Data sizes:     COMRAM   BANK0   BANK1   BANK2   BANK3   BANK4   BANK5   BANK6   BANK7   BANK8   BANK9  BANK10  BANK1
      +1  BANK12  BANK13  BANK14  BANK15
 10873 ;;      Params:         0       0       0       0       0       0       0       0       0       0       0       0       
      +0       0       0       0       0
 10874 ;;      Locals:         0       0       0       0       0       0       0       0       0       0       0       0       
      +0       0       0       0       0
 10875 ;;      Temps:          0       0       0       0       0       0       0       0       0       0       0       0       
      +0       0       0       0       0
 10876 ;;      Totals:         0       0       0       0       0       0       0       0       0       0       0       0       
      +0       0       0       0       0
 10877 ;;Total ram usage:        0 bytes
 10878 ;; Hardware stack levels used:    1
 10879 ;; Hardware stack levels required when called:    3
 10880 ;; This function calls:
 10881 ;;		Nothing
 10882 ;; This function is called by:
 10883 ;;		_I2C_Read
 10884 ;;		_I2C_Write
 10885 ;;		_i2cNack
 10886 ;;		_i2cAck
 10887 ;;		_I2C_Start
 10888 ;;		_I2C_ReStart
 10889 ;;		_I2C_Stop
 10890 ;; This function uses a non-reentrant model
 10891 ;;
 10892                           
 10893                           	psect	text69
 10894  002076                     __ptext69:
 10895                           	opt stack 0
 10896  002076                     _i2cLowScl:
 10897                           	opt stack 25
 10898                           
 10899                           ;I2C_Soft.c: 113: PORTDbits.RD0 = 0;
 10900                           
 10901                           ;incstack = 0
 10902  002076  9083               	bcf	3971,0,c	;volatile
 10903                           
 10904                           ;I2C_Soft.c: 114: TRISDbits.RD0 = 0;
 10905  002078  9095               	bcf	3989,0,c	;volatile
 10906                           
 10907                           ;I2C_Soft.c: 115: _delay((unsigned long)((1)*(8000000/4000000.0)));
 10908  00207A  D000               	nop2		;2 cycle nop
 10909  00207C  0012               	return		;funcret
 10910  00207E                     __end_of_i2cLowScl:
 10911                           	opt stack 0
 10912                           tblptru	equ	0xFF8
 10913                           tblptrh	equ	0xFF7
 10914                           tblptrl	equ	0xFF6
 10915                           tablat	equ	0xFF5
 10916                           prodh	equ	0xFF4
 10917                           prodl	equ	0xFF3
 10918                           intcon	equ	0xFF2
 10919                           intcon2	equ	0xFF1
 10920                           postinc0	equ	0xFEE
 10921                           wreg	equ	0xFE8
 10922                           postdec1	equ	0xFE5
 10923                           fsr1l	equ	0xFE1
 10924                           indf2	equ	0xFDF
 10925                           postinc2	equ	0xFDE
 10926                           postdec2	equ	0xFDD
 10927                           fsr2h	equ	0xFDA
 10928                           fsr2l	equ	0xFD9
 10929                           status	equ	0xFD8
 10930                           
 10931 ;; *************** function _i2cHighSda *****************
 10932 ;; Defined at:
 10933 ;;		line 92 in file "../I2C_Soft.c"
 10934 ;; Parameters:    Size  Location     Type
 10935 ;;		None
 10936 ;; Auto vars:     Size  Location     Type
 10937 ;;		None
 10938 ;; Return value:  Size  Location     Type
 10939 ;;		None               void
 10940 ;; Registers used:
 10941 ;;		None
 10942 ;; Tracked objects:
 10943 ;;		On entry : 0/0
 10944 ;;		On exit  : 0/0
 10945 ;;		Unchanged: 0/0
 10946 ;; Data sizes:     COMRAM   BANK0   BANK1   BANK2   BANK3   BANK4   BANK5   BANK6   BANK7   BANK8   BANK9  BANK10  BANK1
      +1  BANK12  BANK13  BANK14  BANK15
 10947 ;;      Params:         0       0       0       0       0       0       0       0       0       0       0       0       
      +0       0       0       0       0
 10948 ;;      Locals:         0       0       0       0       0       0       0       0       0       0       0       0       
      +0       0       0       0       0
 10949 ;;      Temps:          0       0       0       0       0       0       0       0       0       0       0       0       
      +0       0       0       0       0
 10950 ;;      Totals:         0       0       0       0       0       0       0       0       0       0       0       0       
      +0       0       0       0       0
 10951 ;;Total ram usage:        0 bytes
 10952 ;; Hardware stack levels used:    1
 10953 ;; Hardware stack levels required when called:    3
 10954 ;; This function calls:
 10955 ;;		Nothing
 10956 ;; This function is called by:
 10957 ;;		_I2C_Init
 10958 ;;		_I2C_Read
 10959 ;;		_I2C_Write
 10960 ;;		_i2cAck
 10961 ;;		_I2C_Start
 10962 ;;		_I2C_ReStart
 10963 ;;		_I2C_Stop
 10964 ;; This function uses a non-reentrant model
 10965 ;;
 10966                           
 10967                           	psect	text70
 10968  00207E                     __ptext70:
 10969                           	opt stack 0
 10970  00207E                     _i2cHighSda:
 10971                           	opt stack 26
 10972                           
 10973                           ;I2C_Soft.c: 94: TRISCbits.RC4 = 1;
 10974                           
 10975                           ;incstack = 0
 10976  00207E  8894               	bsf	3988,4,c	;volatile
 10977                           
 10978                           ;I2C_Soft.c: 95: _delay((unsigned long)((2)*(8000000/4000000.0)));
 10979  002080  D000               	nop2		;2 cycle nop
 10980  002082  D000               	nop2		;2 cycle nop
 10981  002084  0012               	return		;funcret
 10982  002086                     __end_of_i2cHighSda:
 10983                           	opt stack 0
 10984                           tblptru	equ	0xFF8
 10985                           tblptrh	equ	0xFF7
 10986                           tblptrl	equ	0xFF6
 10987                           tablat	equ	0xFF5
 10988                           prodh	equ	0xFF4
 10989                           prodl	equ	0xFF3
 10990                           intcon	equ	0xFF2
 10991                           intcon2	equ	0xFF1
 10992                           postinc0	equ	0xFEE
 10993                           wreg	equ	0xFE8
 10994                           postdec1	equ	0xFE5
 10995                           fsr1l	equ	0xFE1
 10996                           indf2	equ	0xFDF
 10997                           postinc2	equ	0xFDE
 10998                           postdec2	equ	0xFDD
 10999                           fsr2h	equ	0xFDA
 11000                           fsr2l	equ	0xFD9
 11001                           status	equ	0xFD8
 11002                           
 11003 ;; *************** function _i2cHighScl *****************
 11004 ;; Defined at:
 11005 ;;		line 105 in file "../I2C_Soft.c"
 11006 ;; Parameters:    Size  Location     Type
 11007 ;;		None
 11008 ;; Auto vars:     Size  Location     Type
 11009 ;;		None
 11010 ;; Return value:  Size  Location     Type
 11011 ;;		None               void
 11012 ;; Registers used:
 11013 ;;		wreg
 11014 ;; Tracked objects:
 11015 ;;		On entry : 0/0
 11016 ;;		On exit  : 0/0
 11017 ;;		Unchanged: 0/0
 11018 ;; Data sizes:     COMRAM   BANK0   BANK1   BANK2   BANK3   BANK4   BANK5   BANK6   BANK7   BANK8   BANK9  BANK10  BANK1
      +1  BANK12  BANK13  BANK14  BANK15
 11019 ;;      Params:         0       0       0       0       0       0       0       0       0       0       0       0       
      +0       0       0       0       0
 11020 ;;      Locals:         0       0       0       0       0       0       0       0       0       0       0       0       
      +0       0       0       0       0
 11021 ;;      Temps:          0       0       0       0       0       0       0       0       0       0       0       0       
      +0       0       0       0       0
 11022 ;;      Totals:         0       0       0       0       0       0       0       0       0       0       0       0       
      +0       0       0       0       0
 11023 ;;Total ram usage:        0 bytes
 11024 ;; Hardware stack levels used:    1
 11025 ;; Hardware stack levels required when called:    3
 11026 ;; This function calls:
 11027 ;;		Nothing
 11028 ;; This function is called by:
 11029 ;;		_I2C_Init
 11030 ;;		_I2C_Read
 11031 ;;		_I2C_Write
 11032 ;;		_i2cNack
 11033 ;;		_i2cAck
 11034 ;;		_I2C_Start
 11035 ;;		_I2C_ReStart
 11036 ;;		_I2C_Stop
 11037 ;; This function uses a non-reentrant model
 11038 ;;
 11039                           
 11040                           	psect	text71
 11041  002024                     __ptext71:
 11042                           	opt stack 0
 11043  002024                     _i2cHighScl:
 11044                           	opt stack 26
 11045                           
 11046                           ;I2C_Soft.c: 107: TRISDbits.RD0 = 1;
 11047                           
 11048                           ;incstack = 0
 11049  002024  8095               	bsf	3989,0,c	;volatile
 11050                           
 11051                           ;I2C_Soft.c: 108: _delay((unsigned long)((10)*(8000000/4000000.0)));
 11052  002026  0E06               	movlw	6
 11053  002028                     u5037:
 11054  002028  2EE8               	decfsz	wreg,f,c
 11055  00202A  D7FE               	goto	u5037
 11056  00202C  D000               	nop2		;nop
 11057  00202E  0012               	return		;funcret
 11058  002030                     __end_of_i2cHighScl:
 11059                           	opt stack 0
 11060                           tblptru	equ	0xFF8
 11061                           tblptrh	equ	0xFF7
 11062                           tblptrl	equ	0xFF6
 11063                           tablat	equ	0xFF5
 11064                           prodh	equ	0xFF4
 11065                           prodl	equ	0xFF3
 11066                           intcon	equ	0xFF2
 11067                           intcon2	equ	0xFF1
 11068                           postinc0	equ	0xFEE
 11069                           wreg	equ	0xFE8
 11070                           postdec1	equ	0xFE5
 11071                           fsr1l	equ	0xFE1
 11072                           indf2	equ	0xFDF
 11073                           postinc2	equ	0xFDE
 11074                           postdec2	equ	0xFDD
 11075                           fsr2h	equ	0xFDA
 11076                           fsr2l	equ	0xFD9
 11077                           status	equ	0xFD8
 11078                           
 11079 ;; *************** function _chkisr *****************
 11080 ;; Defined at:
 11081 ;;		line 36 in file "../Interrupt.c"
 11082 ;; Parameters:    Size  Location     Type
 11083 ;;		None
 11084 ;; Auto vars:     Size  Location     Type
 11085 ;;		None
 11086 ;; Return value:  Size  Location     Type
 11087 ;;		None               void
 11088 ;; Registers used:
 11089 ;;		wreg, status,2, status,0, cstack
 11090 ;; Tracked objects:
 11091 ;;		On entry : 0/0
 11092 ;;		On exit  : 0/0
 11093 ;;		Unchanged: 0/0
 11094 ;; Data sizes:     COMRAM   BANK0   BANK1   BANK2   BANK3   BANK4   BANK5   BANK6   BANK7   BANK8   BANK9  BANK10  BANK1
      +1  BANK12  BANK13  BANK14  BANK15
 11095 ;;      Params:         0       0       0       0       0       0       0       0       0       0       0       0       
      +0       0       0       0       0
 11096 ;;      Locals:         0       0       0       0       0       0       0       0       0       0       0       0       
      +0       0       0       0       0
 11097 ;;      Temps:         14       0       0       0       0       0       0       0       0       0       0       0       
      +0       0       0       0       0
 11098 ;;      Totals:        14       0       0       0       0       0       0       0       0       0       0       0       
      +0       0       0       0       0
 11099 ;;Total ram usage:       14 bytes
 11100 ;; Hardware stack levels used:    1
 11101 ;; Hardware stack levels required when called:    2
 11102 ;; This function calls:
 11103 ;;		_INTx_isr
 11104 ;;		_TIMER1_isr
 11105 ;; This function is called by:
 11106 ;;		Interrupt level 2
 11107 ;; This function uses a non-reentrant model
 11108 ;;
 11109                           
 11110                           	psect	intcode
 11111  000008                     __pintcode:
 11112                           	opt stack 0
 11113  000008                     _chkisr:
 11114                           	opt stack 20
 11115                           
 11116                           ;incstack = 0
 11117  000008  CFFA F003          	movff	pclath,??_chkisr
 11118  00000C  CFFB F004          	movff	pclatu,??_chkisr+1
 11119  000010  CFE9 F005          	movff	fsr0l,??_chkisr+2
 11120  000014  ED58  F00B         	call	int_func,f	;refresh shadow registers
 11121                           pclatu	equ	0xFFB
 11122                           pclath	equ	0xFFA
 11123                           tblptru	equ	0xFF8
 11124                           tblptrh	equ	0xFF7
 11125                           tblptrl	equ	0xFF6
 11126                           tablat	equ	0xFF5
 11127                           prodh	equ	0xFF4
 11128                           prodl	equ	0xFF3
 11129                           intcon	equ	0xFF2
 11130                           intcon2	equ	0xFF1
 11131                           postinc0	equ	0xFEE
 11132                           fsr0l	equ	0xFE9
 11133                           wreg	equ	0xFE8
 11134                           postdec1	equ	0xFE5
 11135                           fsr1l	equ	0xFE1
 11136                           indf2	equ	0xFDF
 11137                           postinc2	equ	0xFDE
 11138                           postdec2	equ	0xFDD
 11139                           fsr2h	equ	0xFDA
 11140                           fsr2l	equ	0xFD9
 11141                           status	equ	0xFD8
 11142                           
 11143                           	psect	intcode_body
 11144  0016B0                     __pintcode_body:
 11145                           	opt stack 20
 11146  0016B0                     int_func:
 11147                           	opt stack 20
 11148  0016B0  0006               	pop		; remove dummy address from shadow register refresh
 11149  0016B2  CFEA F006          	movff	fsr0h,??_chkisr+3
 11150  0016B6  CFE1 F007          	movff	fsr1l,??_chkisr+4
 11151  0016BA  CFE2 F008          	movff	fsr1h,??_chkisr+5
 11152  0016BE  CFD9 F009          	movff	fsr2l,??_chkisr+6
 11153  0016C2  CFDA F00A          	movff	fsr2h,??_chkisr+7
 11154  0016C6  CFF3 F00B          	movff	prodl,??_chkisr+8
 11155  0016CA  CFF4 F00C          	movff	prodh,??_chkisr+9
 11156  0016CE  CFF6 F00D          	movff	tblptrl,??_chkisr+10
 11157  0016D2  CFF7 F00E          	movff	tblptrh,??_chkisr+11
 11158  0016D6  CFF8 F00F          	movff	tblptru,??_chkisr+12
 11159  0016DA  CFF5 F010          	movff	tablat,??_chkisr+13
 11160                           
 11161                           ;Interrupt.c: 38: if (PIR1bits.TMR1IF == 1) TIMER1_isr();
 11162  0016DE  A09E               	btfss	3998,0,c	;volatile
 11163  0016E0  D003               	goto	i2l2900
 11164  0016E2  EC18  F010         	call	_TIMER1_isr	;wreg free
 11165  0016E6  D000               	goto	i2l2900
 11166  0016E8                     i2l2900:
 11167                           
 11168                           ;Interrupt.c: 39: if (INTCONbits.INT0IF == 1) INTx_isr();
 11169  0016E8  A2F2               	btfss	intcon,1,c	;volatile
 11170  0016EA  D003               	goto	i2l234
 11171  0016EC  EC1C  F004         	call	_INTx_isr	;wreg free
 11172  0016F0  D000               	goto	i2l234
 11173  0016F2                     i2l234:
 11174  0016F2  C010  FFF5         	movff	??_chkisr+13,tablat
 11175  0016F6  C00F  FFF8         	movff	??_chkisr+12,tblptru
 11176  0016FA  C00E  FFF7         	movff	??_chkisr+11,tblptrh
 11177  0016FE  C00D  FFF6         	movff	??_chkisr+10,tblptrl
 11178  001702  C00C  FFF4         	movff	??_chkisr+9,prodh
 11179  001706  C00B  FFF3         	movff	??_chkisr+8,prodl
 11180  00170A  C00A  FFDA         	movff	??_chkisr+7,fsr2h
 11181  00170E  C009  FFD9         	movff	??_chkisr+6,fsr2l
 11182  001712  C008  FFE2         	movff	??_chkisr+5,fsr1h
 11183  001716  C007  FFE1         	movff	??_chkisr+4,fsr1l
 11184  00171A  C006  FFEA         	movff	??_chkisr+3,fsr0h
 11185  00171E  C005  FFE9         	movff	??_chkisr+2,fsr0l
 11186  001722  C004  FFFB         	movff	??_chkisr+1,pclatu
 11187  001726  C003  FFFA         	movff	??_chkisr,pclath
 11188  00172A  0011               	retfie		f
 11189  00172C                     __end_of_chkisr:
 11190                           	opt stack 0
 11191                           pclatu	equ	0xFFB
 11192                           pclath	equ	0xFFA
 11193                           tblptru	equ	0xFF8
 11194                           tblptrh	equ	0xFF7
 11195                           tblptrl	equ	0xFF6
 11196                           tablat	equ	0xFF5
 11197                           prodh	equ	0xFF4
 11198                           prodl	equ	0xFF3
 11199                           intcon	equ	0xFF2
 11200                           intcon2	equ	0xFF1
 11201                           postinc0	equ	0xFEE
 11202                           fsr0h	equ	0xFEA
 11203                           fsr0l	equ	0xFE9
 11204                           wreg	equ	0xFE8
 11205                           postdec1	equ	0xFE5
 11206                           fsr1h	equ	0xFE2
 11207                           fsr1l	equ	0xFE1
 11208                           indf2	equ	0xFDF
 11209                           postinc2	equ	0xFDE
 11210                           postdec2	equ	0xFDD
 11211                           fsr2h	equ	0xFDA
 11212                           fsr2l	equ	0xFD9
 11213                           status	equ	0xFD8
 11214                           
 11215 ;; *************** function _TIMER1_isr *****************
 11216 ;; Defined at:
 11217 ;;		line 42 in file "../Interrupt.c"
 11218 ;; Parameters:    Size  Location     Type
 11219 ;;		None
 11220 ;; Auto vars:     Size  Location     Type
 11221 ;;		None
 11222 ;; Return value:  Size  Location     Type
 11223 ;;		None               void
 11224 ;; Registers used:
 11225 ;;		wreg, status,2
 11226 ;; Tracked objects:
 11227 ;;		On entry : 0/0
 11228 ;;		On exit  : 0/0
 11229 ;;		Unchanged: 0/0
 11230 ;; Data sizes:     COMRAM   BANK0   BANK1   BANK2   BANK3   BANK4   BANK5   BANK6   BANK7   BANK8   BANK9  BANK10  BANK1
      +1  BANK12  BANK13  BANK14  BANK15
 11231 ;;      Params:         0       0       0       0       0       0       0       0       0       0       0       0       
      +0       0       0       0       0
 11232 ;;      Locals:         0       0       0       0       0       0       0       0       0       0       0       0       
      +0       0       0       0       0
 11233 ;;      Temps:          0       0       0       0       0       0       0       0       0       0       0       0       
      +0       0       0       0       0
 11234 ;;      Totals:         0       0       0       0       0       0       0       0       0       0       0       0       
      +0       0       0       0       0
 11235 ;;Total ram usage:        0 bytes
 11236 ;; Hardware stack levels used:    1
 11237 ;; This function calls:
 11238 ;;		Nothing
 11239 ;; This function is called by:
 11240 ;;		_chkisr
 11241 ;; This function uses a non-reentrant model
 11242 ;;
 11243                           
 11244                           	psect	text73
 11245  002030                     __ptext73:
 11246                           	opt stack 0
 11247  002030                     _TIMER1_isr:
 11248                           	opt stack 21
 11249                           
 11250                           ;Interrupt.c: 44: Nec_State = 0;
 11251                           
 11252                           ;incstack = 0
 11253  002030  0E00               	movlw	0
 11254  002032  6E53               	movwf	_Nec_State,c
 11255                           
 11256                           ;Interrupt.c: 46: INTCON2bits.INTEDG0 = 0;
 11257  002034  9CF1               	bcf	intcon2,6,c	;volatile
 11258                           
 11259                           ;Interrupt.c: 47: T1CONbits.TMR1ON = 0;
 11260  002036  90CD               	bcf	4045,0,c	;volatile
 11261                           
 11262                           ;Interrupt.c: 48: PIR1bits.TMR1IF = 0;
 11263  002038  909E               	bcf	3998,0,c	;volatile
 11264  00203A  0012               	return		;funcret
 11265  00203C                     __end_of_TIMER1_isr:
 11266                           	opt stack 0
 11267                           pclatu	equ	0xFFB
 11268                           pclath	equ	0xFFA
 11269                           tblptru	equ	0xFF8
 11270                           tblptrh	equ	0xFF7
 11271                           tblptrl	equ	0xFF6
 11272                           tablat	equ	0xFF5
 11273                           prodh	equ	0xFF4
 11274                           prodl	equ	0xFF3
 11275                           intcon	equ	0xFF2
 11276                           intcon2	equ	0xFF1
 11277                           postinc0	equ	0xFEE
 11278                           fsr0h	equ	0xFEA
 11279                           fsr0l	equ	0xFE9
 11280                           wreg	equ	0xFE8
 11281                           postdec1	equ	0xFE5
 11282                           fsr1h	equ	0xFE2
 11283                           fsr1l	equ	0xFE1
 11284                           indf2	equ	0xFDF
 11285                           postinc2	equ	0xFDE
 11286                           postdec2	equ	0xFDD
 11287                           fsr2h	equ	0xFDA
 11288                           fsr2l	equ	0xFD9
 11289                           status	equ	0xFD8
 11290                           
 11291 ;; *************** function _INTx_isr *****************
 11292 ;; Defined at:
 11293 ;;		line 57 in file "../Interrupt.c"
 11294 ;; Parameters:    Size  Location     Type
 11295 ;;		None
 11296 ;; Auto vars:     Size  Location     Type
 11297 ;;		None
 11298 ;; Return value:  Size  Location     Type
 11299 ;;		None               void
 11300 ;; Registers used:
 11301 ;;		wreg, status,2, status,0, cstack
 11302 ;; Tracked objects:
 11303 ;;		On entry : 0/0
 11304 ;;		On exit  : 0/0
 11305 ;;		Unchanged: 0/0
 11306 ;; Data sizes:     COMRAM   BANK0   BANK1   BANK2   BANK3   BANK4   BANK5   BANK6   BANK7   BANK8   BANK9  BANK10  BANK1
      +1  BANK12  BANK13  BANK14  BANK15
 11307 ;;      Params:         0       0       0       0       0       0       0       0       0       0       0       0       
      +0       0       0       0       0
 11308 ;;      Locals:         0       0       0       0       0       0       0       0       0       0       0       0       
      +0       0       0       0       0
 11309 ;;      Temps:          2       0       0       0       0       0       0       0       0       0       0       0       
      +0       0       0       0       0
 11310 ;;      Totals:         2       0       0       0       0       0       0       0       0       0       0       0       
      +0       0       0       0       0
 11311 ;;Total ram usage:        2 bytes
 11312 ;; Hardware stack levels used:    1
 11313 ;; Hardware stack levels required when called:    1
 11314 ;; This function calls:
 11315 ;;		_Reset_Nec_State
 11316 ;; This function is called by:
 11317 ;;		_chkisr
 11318 ;; This function uses a non-reentrant model
 11319 ;;
 11320                           
 11321                           	psect	text74
 11322  000838                     __ptext74:
 11323                           	opt stack 0
 11324  000838                     _INTx_isr:
 11325                           	opt stack 20
 11326                           
 11327                           ;Interrupt.c: 59: INTCONbits.INT0IF = 0;
 11328                           
 11329                           ;incstack = 0
 11330  000838  92F2               	bcf	intcon,1,c	;volatile
 11331                           
 11332                           ;Interrupt.c: 60: if (Nec_State != 0)
 11333  00083A  5053               	movf	_Nec_State,w,c
 11334  00083C  B4D8               	btfsc	status,2,c
 11335  00083E  D0A7               	goto	i2l2618
 11336                           
 11337                           ;Interrupt.c: 61: {
 11338                           ;Interrupt.c: 62: Time_Elapsed = (TMR1H << 8) | TMR1L;
 11339  000840  50CE               	movf	4046,w,c	;volatile
 11340  000842  CFCF F001          	movff	4047,??_INTx_isr	;volatile
 11341  000846  6A02               	clrf	(??_INTx_isr+1)& (0+255),c
 11342  000848  C001  F002         	movff	??_INTx_isr,??_INTx_isr+1
 11343  00084C  6A01               	clrf	??_INTx_isr,c
 11344  00084E  1001               	iorwf	??_INTx_isr,w,c
 11345  000850  6E4B               	movwf	_Time_Elapsed,c
 11346  000852  5002               	movf	??_INTx_isr+1,w,c
 11347  000854  6E4C               	movwf	_Time_Elapsed+1,c
 11348                           
 11349                           ;Interrupt.c: 63: TMR1H = 0;
 11350  000856  0E00               	movlw	0
 11351  000858  6ECF               	movwf	4047,c	;volatile
 11352                           
 11353                           ;Interrupt.c: 64: TMR1L = 0;
 11354  00085A  0E00               	movlw	0
 11355  00085C  6ECE               	movwf	4046,c	;volatile
 11356                           
 11357                           ;Interrupt.c: 65: }
 11358                           ;Interrupt.c: 67: switch(Nec_State)
 11359  00085E  D097               	goto	i2l2618
 11360  000860                     i2l2536:
 11361                           
 11362                           ;Interrupt.c: 70: {
 11363                           ;Interrupt.c: 73: TMR1H = 0;
 11364  000860  0E00               	movlw	0
 11365  000862  6ECF               	movwf	4047,c	;volatile
 11366                           
 11367                           ;Interrupt.c: 74: TMR1L = 0;
 11368  000864  0E00               	movlw	0
 11369  000866  6ECE               	movwf	4046,c	;volatile
 11370                           
 11371                           ;Interrupt.c: 75: PIR1bits.TMR1IF = 0;
 11372  000868  909E               	bcf	3998,0,c	;volatile
 11373                           
 11374                           ;Interrupt.c: 76: T1CON = 0x90;
 11375  00086A  0E90               	movlw	144
 11376  00086C  6ECD               	movwf	4045,c	;volatile
 11377                           
 11378                           ;Interrupt.c: 77: T1CONbits.TMR1ON = 1;
 11379  00086E  80CD               	bsf	4045,0,c	;volatile
 11380                           
 11381                           ;Interrupt.c: 78: bit_count = 0;
 11382  000870  0E00               	movlw	0
 11383  000872  6E59               	movwf	_bit_count,c
 11384                           
 11385                           ;Interrupt.c: 79: Nec_code = 0;
 11386  000874  0E00               	movlw	0
 11387  000876  6E45               	movwf	_Nec_code,c
 11388  000878  0E00               	movlw	0
 11389  00087A  6E46               	movwf	_Nec_code+1,c
 11390  00087C  0E00               	movlw	0
 11391  00087E  6E47               	movwf	_Nec_code+2,c
 11392  000880  0E00               	movlw	0
 11393  000882  6E48               	movwf	_Nec_code+3,c
 11394                           
 11395                           ;Interrupt.c: 80: Nec_State = 1;
 11396  000884  0E01               	movlw	1
 11397  000886  6E53               	movwf	_Nec_State,c
 11398                           
 11399                           ;Interrupt.c: 81: PORTE = Nec_State;
 11400  000888  C053  FF84         	movff	_Nec_State,3972	;volatile
 11401  00088C  D07E               	goto	i2l2612
 11402                           
 11403                           ;Interrupt.c: 83: return;
 11404                           
 11405                           ;Interrupt.c: 82: INTCON2bits.INTEDG0 = 1;
 11406  00088E  D090               	goto	i2l246
 11407  000890                     i2l2548:
 11408                           
 11409                           ;Interrupt.c: 87: {
 11410                           ;Interrupt.c: 89: if(Time_Elapsed >=8500 && Time_Elapsed <= 9500)
 11411  000890  0E34               	movlw	52
 11412  000892  5C4B               	subwf	_Time_Elapsed,w,c
 11413  000894  0E21               	movlw	33
 11414  000896  584C               	subwfb	_Time_Elapsed+1,w,c
 11415  000898  A0D8               	btfss	status,0,c
 11416  00089A  D009               	goto	i2l2556
 11417  00089C  0E1D               	movlw	29
 11418  00089E  5C4B               	subwf	_Time_Elapsed,w,c
 11419  0008A0  0E25               	movlw	37
 11420  0008A2  584C               	subwfb	_Time_Elapsed+1,w,c
 11421  0008A4  B0D8               	btfsc	status,0,c
 11422  0008A6  D003               	goto	i2l2556
 11423                           
 11424                           ;Interrupt.c: 90: {
 11425                           ;Interrupt.c: 91: Nec_State = 2;
 11426  0008A8  0E02               	movlw	2
 11427  0008AA  6E53               	movwf	_Nec_State,c
 11428  0008AC  D027               	goto	i2l2582
 11429  0008AE                     i2l2556:
 11430                           
 11431                           ;Interrupt.c: 94: else
 11432                           ;Interrupt.c: 95: {
 11433                           ;Interrupt.c: 96: Reset_Nec_State();
 11434  0008AE  EC43  F010         	call	_Reset_Nec_State	;wreg free
 11435  0008B2  D02A               	goto	i2l2586
 11436  0008B4  D029               	goto	i2l2586
 11437                           
 11438                           ;Interrupt.c: 99: return;
 11439                           
 11440                           ;Interrupt.c: 97: }
 11441                           ;Interrupt.c: 98: INTCON2bits.INTEDG0 = 0;
 11442  0008B6  D07C               	goto	i2l246
 11443  0008B8                     i2l2562:
 11444                           
 11445                           ;Interrupt.c: 103: {
 11446                           ;Interrupt.c: 104: if(Time_Elapsed >=4000 && Time_Elapsed <= 5000)
 11447  0008B8  0EA0               	movlw	160
 11448  0008BA  5C4B               	subwf	_Time_Elapsed,w,c
 11449  0008BC  0E0F               	movlw	15
 11450  0008BE  584C               	subwfb	_Time_Elapsed+1,w,c
 11451  0008C0  A0D8               	btfss	status,0,c
 11452  0008C2  D009               	goto	i2l2570
 11453  0008C4  0E89               	movlw	137
 11454  0008C6  5C4B               	subwf	_Time_Elapsed,w,c
 11455  0008C8  0E13               	movlw	19
 11456  0008CA  584C               	subwfb	_Time_Elapsed+1,w,c
 11457  0008CC  B0D8               	btfsc	status,0,c
 11458  0008CE  D003               	goto	i2l2570
 11459  0008D0                     
 11460                           ;Interrupt.c: 105: {
 11461                           ;Interrupt.c: 106: Nec_State = 3;
 11462  0008D0  0E03               	movlw	3
 11463  0008D2  6E53               	movwf	_Nec_State,c
 11464  0008D4  D054               	goto	i2l2608
 11465  0008D6                     i2l2570:
 11466                           
 11467                           ;Interrupt.c: 109: else
 11468                           ;Interrupt.c: 110: {
 11469                           ;Interrupt.c: 111: Reset_Nec_State();
 11470  0008D6  EC43  F010         	call	_Reset_Nec_State	;wreg free
 11471  0008DA  D057               	goto	i2l2612
 11472  0008DC  D056               	goto	i2l2612
 11473                           
 11474                           ;Interrupt.c: 114: return;
 11475                           
 11476                           ;Interrupt.c: 112: }
 11477                           ;Interrupt.c: 113: INTCON2bits.INTEDG0 = 1;
 11478  0008DE  D068               	goto	i2l246
 11479  0008E0                     i2l2576:
 11480                           
 11481                           ;Interrupt.c: 118: {
 11482                           ;Interrupt.c: 119: if(Time_Elapsed >=400 && Time_Elapsed <= 700)
 11483  0008E0  0E90               	movlw	144
 11484  0008E2  5C4B               	subwf	_Time_Elapsed,w,c
 11485  0008E4  0E01               	movlw	1
 11486  0008E6  584C               	subwfb	_Time_Elapsed+1,w,c
 11487  0008E8  A0D8               	btfss	status,0,c
 11488  0008EA  D00B               	goto	i2l2584
 11489  0008EC  0EBD               	movlw	189
 11490  0008EE  5C4B               	subwf	_Time_Elapsed,w,c
 11491  0008F0  0E02               	movlw	2
 11492  0008F2  584C               	subwfb	_Time_Elapsed+1,w,c
 11493  0008F4  B0D8               	btfsc	status,0,c
 11494  0008F6  D005               	goto	i2l2584
 11495                           
 11496                           ;Interrupt.c: 120: {
 11497                           ;Interrupt.c: 121: Nec_State = 4;
 11498  0008F8  0E04               	movlw	4
 11499  0008FA  D7D7               	goto	L3
 11500  0008FC                     i2l2582:
 11501                           
 11502                           ;Interrupt.c: 122: PORTE = Nec_State;
 11503  0008FC  C053  FF84         	movff	_Nec_State,3972	;volatile
 11504                           
 11505                           ;Interrupt.c: 123: }
 11506  000900  D003               	goto	i2l2586
 11507  000902                     i2l2584:
 11508                           
 11509                           ;Interrupt.c: 124: else
 11510                           ;Interrupt.c: 125: {
 11511                           ;Interrupt.c: 126: Reset_Nec_State();
 11512  000902  EC43  F010         	call	_Reset_Nec_State	;wreg free
 11513  000906  D000               	goto	i2l2586
 11514  000908                     i2l2586:
 11515                           
 11516                           ;Interrupt.c: 127: }
 11517                           ;Interrupt.c: 128: INTCON2bits.INTEDG0 = 0;
 11518  000908  9CF1               	bcf	intcon2,6,c	;volatile
 11519                           
 11520                           ;Interrupt.c: 129: return;
 11521  00090A  D052               	goto	i2l246
 11522  00090C                     i2l2590:
 11523                           
 11524                           ;Interrupt.c: 133: {
 11525                           ;Interrupt.c: 134: if(Time_Elapsed >=400 && Time_Elapsed <= 1800)
 11526  00090C  0E90               	movlw	144
 11527  00090E  5C4B               	subwf	_Time_Elapsed,w,c
 11528  000910  0E01               	movlw	1
 11529  000912  584C               	subwfb	_Time_Elapsed+1,w,c
 11530  000914  A0D8               	btfss	status,0,c
 11531  000916  D036               	goto	i2l2610
 11532  000918  0E09               	movlw	9
 11533  00091A  5C4B               	subwf	_Time_Elapsed,w,c
 11534  00091C  0E07               	movlw	7
 11535  00091E  584C               	subwfb	_Time_Elapsed+1,w,c
 11536  000920  B0D8               	btfsc	status,0,c
 11537  000922  D030               	goto	i2l2610
 11538                           
 11539                           ;Interrupt.c: 135: {
 11540                           ;Interrupt.c: 136: Nec_code = Nec_code << 1;
 11541  000924  90D8               	bcf	status,0,c
 11542  000926  3445               	rlcf	_Nec_code,w,c
 11543  000928  6E45               	movwf	_Nec_code,c
 11544  00092A  3446               	rlcf	_Nec_code+1,w,c
 11545  00092C  6E46               	movwf	_Nec_code+1,c
 11546  00092E  3447               	rlcf	_Nec_code+2,w,c
 11547  000930  6E47               	movwf	_Nec_code+2,c
 11548  000932  3448               	rlcf	_Nec_code+3,w,c
 11549  000934  6E48               	movwf	_Nec_code+3,c
 11550                           
 11551                           ;Interrupt.c: 137: if(Time_Elapsed > 1000)
 11552  000936  0EE9               	movlw	233
 11553  000938  5C4B               	subwf	_Time_Elapsed,w,c
 11554  00093A  0E03               	movlw	3
 11555  00093C  584C               	subwfb	_Time_Elapsed+1,w,c
 11556  00093E  A0D8               	btfss	status,0,c
 11557  000940  D00C               	goto	i2l258
 11558                           
 11559                           ;Interrupt.c: 138: {
 11560                           ;Interrupt.c: 139: Nec_code = Nec_code + 1;
 11561  000942  0E01               	movlw	1
 11562  000944  2445               	addwf	_Nec_code,w,c
 11563  000946  6E45               	movwf	_Nec_code,c
 11564  000948  0E00               	movlw	0
 11565  00094A  2046               	addwfc	_Nec_code+1,w,c
 11566  00094C  6E46               	movwf	_Nec_code+1,c
 11567  00094E  0E00               	movlw	0
 11568  000950  2047               	addwfc	_Nec_code+2,w,c
 11569  000952  6E47               	movwf	_Nec_code+2,c
 11570  000954  0E00               	movlw	0
 11571  000956  2048               	addwfc	_Nec_code+3,w,c
 11572  000958  6E48               	movwf	_Nec_code+3,c
 11573  00095A                     i2l258:
 11574                           
 11575                           ;Interrupt.c: 140: }
 11576                           ;Interrupt.c: 141: bit_count = bit_count + 1;
 11577  00095A  2859               	incf	_bit_count,w,c
 11578  00095C  6E59               	movwf	_bit_count,c
 11579                           
 11580                           ;Interrupt.c: 142: if(bit_count > 31)
 11581  00095E  0E1F               	movlw	31
 11582  000960  6459               	cpfsgt	_bit_count,c
 11583  000962  D7B6               	goto	L4
 11584                           
 11585                           ;Interrupt.c: 143: {
 11586                           ;Interrupt.c: 144: Nec_Button = Nec_code >> 8;
 11587  000964  C046  F052         	movff	_Nec_code+1,_Nec_Button
 11588                           
 11589                           ;Interrupt.c: 145: Nec_State = 0;
 11590  000968  0E00               	movlw	0
 11591  00096A  6E53               	movwf	_Nec_State,c
 11592                           
 11593                           ;Interrupt.c: 146: PORTE = Nec_State;
 11594  00096C  C053  FF84         	movff	_Nec_State,3972	;volatile
 11595                           
 11596                           ;Interrupt.c: 147: Nec_OK = 1;
 11597  000970  0E00               	movlw	0
 11598  000972  6E4A               	movwf	_Nec_OK+1,c
 11599  000974  0E01               	movlw	1
 11600  000976  6E49               	movwf	_Nec_OK,c
 11601                           
 11602                           ;Interrupt.c: 148: INTCONbits.INT0IE = 0;
 11603  000978  98F2               	bcf	intcon,4,c	;volatile
 11604                           
 11605                           ;Interrupt.c: 149: }
 11606  00097A  D007               	goto	i2l2612
 11607  00097C  D7A9               	goto	L4
 11608  00097E                     i2l2608:
 11609                           
 11610                           ;Interrupt.c: 153: PORTE = Nec_State;
 11611  00097E  C053  FF84         	movff	_Nec_State,3972	;volatile
 11612                           
 11613                           ;Interrupt.c: 154: }
 11614                           ;Interrupt.c: 155: }
 11615  000982  D003               	goto	i2l2612
 11616  000984                     i2l2610:
 11617                           
 11618                           ;Interrupt.c: 156: else
 11619                           ;Interrupt.c: 157: {
 11620                           ;Interrupt.c: 158: Reset_Nec_State();
 11621  000984  EC43  F010         	call	_Reset_Nec_State	;wreg free
 11622  000988  D000               	goto	i2l2612
 11623  00098A                     i2l2612:
 11624                           
 11625                           ;Interrupt.c: 159: }
 11626                           ;Interrupt.c: 160: INTCON2bits.INTEDG0 = 1;
 11627  00098A  8CF1               	bsf	intcon2,6,c	;volatile
 11628                           
 11629                           ;Interrupt.c: 162: }
 11630                           ;Interrupt.c: 163: }
 11631                           
 11632                           ;Interrupt.c: 161: return;
 11633  00098C  D011               	goto	i2l246
 11634  00098E                     i2l2618:
 11635  00098E  5053               	movf	_Nec_State,w,c
 11636                           
 11637                           ; Switch size 1, requested type "space"
 11638                           ; Number of cases is 5, Range of values is 0 to 4
 11639                           ; switch strategies available:
 11640                           ; Name         Instructions Cycles
 11641                           ; simple_byte           16     9 (average)
 11642                           ;	Chosen strategy is simple_byte
 11643  000990  0A00               	xorlw	0	; case 0
 11644  000992  B4D8               	btfsc	status,2,c
 11645  000994  D765               	goto	i2l2536
 11646  000996  0A01               	xorlw	1	; case 1
 11647  000998  B4D8               	btfsc	status,2,c
 11648  00099A  D77A               	goto	i2l2548
 11649  00099C  0A03               	xorlw	3	; case 2
 11650  00099E  B4D8               	btfsc	status,2,c
 11651  0009A0  D78B               	goto	i2l2562
 11652  0009A2  0A01               	xorlw	1	; case 3
 11653  0009A4  B4D8               	btfsc	status,2,c
 11654  0009A6  D79C               	goto	i2l2576
 11655  0009A8  0A07               	xorlw	7	; case 4
 11656  0009AA  B4D8               	btfsc	status,2,c
 11657  0009AC  D7AF               	goto	i2l2590
 11658  0009AE  D000               	goto	i2l246
 11659  0009B0                     i2l246:
 11660  0009B0  0012               	return		;funcret
 11661  0009B2                     __end_of_INTx_isr:
 11662                           	opt stack 0
 11663                           pclatu	equ	0xFFB
 11664                           pclath	equ	0xFFA
 11665                           tblptru	equ	0xFF8
 11666                           tblptrh	equ	0xFF7
 11667                           tblptrl	equ	0xFF6
 11668                           tablat	equ	0xFF5
 11669                           prodh	equ	0xFF4
 11670                           prodl	equ	0xFF3
 11671                           intcon	equ	0xFF2
 11672                           intcon2	equ	0xFF1
 11673                           postinc0	equ	0xFEE
 11674                           fsr0h	equ	0xFEA
 11675                           fsr0l	equ	0xFE9
 11676                           wreg	equ	0xFE8
 11677                           postdec1	equ	0xFE5
 11678                           fsr1h	equ	0xFE2
 11679                           fsr1l	equ	0xFE1
 11680                           indf2	equ	0xFDF
 11681                           postinc2	equ	0xFDE
 11682                           postdec2	equ	0xFDD
 11683                           fsr2h	equ	0xFDA
 11684                           fsr2l	equ	0xFD9
 11685                           status	equ	0xFD8
 11686                           
 11687 ;; *************** function _Reset_Nec_State *****************
 11688 ;; Defined at:
 11689 ;;		line 51 in file "../Interrupt.c"
 11690 ;; Parameters:    Size  Location     Type
 11691 ;;		None
 11692 ;; Auto vars:     Size  Location     Type
 11693 ;;		None
 11694 ;; Return value:  Size  Location     Type
 11695 ;;		None               void
 11696 ;; Registers used:
 11697 ;;		wreg, status,2
 11698 ;; Tracked objects:
 11699 ;;		On entry : 0/0
 11700 ;;		On exit  : 0/0
 11701 ;;		Unchanged: 0/0
 11702 ;; Data sizes:     COMRAM   BANK0   BANK1   BANK2   BANK3   BANK4   BANK5   BANK6   BANK7   BANK8   BANK9  BANK10  BANK1
      +1  BANK12  BANK13  BANK14  BANK15
 11703 ;;      Params:         0       0       0       0       0       0       0       0       0       0       0       0       
      +0       0       0       0       0
 11704 ;;      Locals:         0       0       0       0       0       0       0       0       0       0       0       0       
      +0       0       0       0       0
 11705 ;;      Temps:          0       0       0       0       0       0       0       0       0       0       0       0       
      +0       0       0       0       0
 11706 ;;      Totals:         0       0       0       0       0       0       0       0       0       0       0       0       
      +0       0       0       0       0
 11707 ;;Total ram usage:        0 bytes
 11708 ;; Hardware stack levels used:    1
 11709 ;; This function calls:
 11710 ;;		Nothing
 11711 ;; This function is called by:
 11712 ;;		_INTx_isr
 11713 ;; This function uses a non-reentrant model
 11714 ;;
 11715                           
 11716                           	psect	text75
 11717  002086                     __ptext75:
 11718                           	opt stack 0
 11719  002086                     _Reset_Nec_State:
 11720                           	opt stack 20
 11721                           
 11722                           ;Interrupt.c: 53: Nec_State = 0;
 11723                           
 11724                           ;incstack = 0
 11725  002086  0E00               	movlw	0
 11726  002088  6E53               	movwf	_Nec_State,c
 11727                           
 11728                           ;Interrupt.c: 54: T1CONbits.TMR1ON = 0;
 11729  00208A  90CD               	bcf	4045,0,c	;volatile
 11730  00208C  0012               	return		;funcret
 11731  00208E                     __end_of_Reset_Nec_State:
 11732                           	opt stack 0
 11733                           pclatu	equ	0xFFB
 11734                           pclath	equ	0xFFA
 11735                           tblptru	equ	0xFF8
 11736                           tblptrh	equ	0xFF7
 11737                           tblptrl	equ	0xFF6
 11738                           tablat	equ	0xFF5
 11739                           prodh	equ	0xFF4
 11740                           prodl	equ	0xFF3
 11741                           intcon	equ	0xFF2
 11742                           intcon2	equ	0xFF1
 11743                           postinc0	equ	0xFEE
 11744                           fsr0h	equ	0xFEA
 11745                           fsr0l	equ	0xFE9
 11746                           wreg	equ	0xFE8
 11747                           postdec1	equ	0xFE5
 11748                           fsr1h	equ	0xFE2
 11749                           fsr1l	equ	0xFE1
 11750                           indf2	equ	0xFDF
 11751                           postinc2	equ	0xFDE
 11752                           postdec2	equ	0xFDD
 11753                           fsr2h	equ	0xFDA
 11754                           fsr2l	equ	0xFD9
 11755                           status	equ	0xFD8
 11756                           pclatu	equ	0xFFB
 11757                           pclath	equ	0xFFA
 11758                           tblptru	equ	0xFF8
 11759                           tblptrh	equ	0xFF7
 11760                           tblptrl	equ	0xFF6
 11761                           tablat	equ	0xFF5
 11762                           prodh	equ	0xFF4
 11763                           prodl	equ	0xFF3
 11764                           intcon	equ	0xFF2
 11765                           intcon2	equ	0xFF1
 11766                           postinc0	equ	0xFEE
 11767                           fsr0h	equ	0xFEA
 11768                           fsr0l	equ	0xFE9
 11769                           wreg	equ	0xFE8
 11770                           postdec1	equ	0xFE5
 11771                           fsr1h	equ	0xFE2
 11772                           fsr1l	equ	0xFE1
 11773                           indf2	equ	0xFDF
 11774                           postinc2	equ	0xFDE
 11775                           postdec2	equ	0xFDD
 11776                           fsr2h	equ	0xFDA
 11777                           fsr2l	equ	0xFD9
 11778                           status	equ	0xFD8
 11779                           
 11780                           	psect	rparam
 11781  0000                     pclatu	equ	0xFFB
 11782                           pclath	equ	0xFFA
 11783                           tblptru	equ	0xFF8
 11784                           tblptrh	equ	0xFF7
 11785                           tblptrl	equ	0xFF6
 11786                           tablat	equ	0xFF5
 11787                           prodh	equ	0xFF4
 11788                           prodl	equ	0xFF3
 11789                           intcon	equ	0xFF2
 11790                           intcon2	equ	0xFF1
 11791                           postinc0	equ	0xFEE
 11792                           fsr0h	equ	0xFEA
 11793                           fsr0l	equ	0xFE9
 11794                           wreg	equ	0xFE8
 11795                           postdec1	equ	0xFE5
 11796                           fsr1h	equ	0xFE2
 11797                           fsr1l	equ	0xFE1
 11798                           indf2	equ	0xFDF
 11799                           postinc2	equ	0xFDE
 11800                           postdec2	equ	0xFDD
 11801                           fsr2h	equ	0xFDA
 11802                           fsr2l	equ	0xFD9
 11803                           status	equ	0xFD8


Data Sizes:
    Strings     158
    Constant    493
    Data        243
    BSS         71
    Persistent  0
    Stack       0

Auto Spaces:
    Space          Size  Autos    Used
    COMRAM          127     68     110
    BANK0           128     13     128
    BANK1           256      0     157
    BANK2           256      0       0
    BANK3           256      0       0
    BANK4           256      0       0
    BANK5           256      0       0
    BANK6           256      0       0
    BANK7           256      0       0
    BANK8           256      0       0
    BANK9           256      0       0
    BANK10          256      0       0
    BANK11          256      0       0
    BANK12          256      0       0
    BANK13          256      0       0
    BANK14          256      0       0
    BANK15          128      0       0

Pointer List with Targets:

    nbr	PTR unsigned char  size(2) Largest target is 0
		 -> NULL(NULL[0]), 

    strlen@s	PTR const unsigned char  size(2) Largest target is 84
		 -> NULL(NULL[0]), txt1(BANK1[84]), Timing_Txt(BANK0[10]), buffer(BANK1[31]), 

    strlen@cp	PTR const unsigned char  size(2) Largest target is 84
		 -> NULL(NULL[0]), txt1(BANK1[84]), Timing_Txt(BANK0[10]), buffer(BANK1[31]), 

    strcpy@from	PTR const unsigned char  size(2) Largest target is 8
		 -> STR_1(CODE[8]), 

    strcpy@to	PTR unsigned char  size(2) Largest target is 31
		 -> NULL(NULL[0]), buffer(BANK1[31]), 

    strcpy@cp	PTR unsigned char  size(2) Largest target is 31
		 -> NULL(NULL[0]), buffer(BANK1[31]), 

    printf@f	PTR const unsigned char  size(2) Largest target is 43
		 -> STR_6(CODE[22]), STR_5(CODE[19]), STR_4(CODE[19]), STR_3(CODE[43]), 
		 -> STR_2(CODE[30]), 

    printf@ap	PTR void [1] size(2) Largest target is 2
		 -> ?_printf(COMRAM[2]), 

    drawtext@_text	PTR unsigned char  size(2) Largest target is 84
		 -> NULL(NULL[0]), txt1(BANK1[84]), Timing_Txt(BANK0[10]), buffer(BANK1[31]), 

    sp__strcpy	PTR unsigned char  size(2) Largest target is 31
		 -> NULL(NULL[0]), buffer(BANK1[31]), 

    txt	PTR unsigned char  size(2) Largest target is 31
		 -> NULL(NULL[0]), buffer(BANK1[31]), 


Critical Paths under _main in COMRAM

    _main->_do_update_pwm
    _printf->___lwmod
    ___lwmod->___lwdiv
    _get_RPM->___awdiv
    _fillCircle->_fillCircleHelper
    _fillCircleHelper->_drawFastVLine
    _drawCircle->_drawPixel
    _Turn_On_Fan->_do_update_pwm
    _Set_RPM_RGB->___awdiv
    _Set_DC_RGB->___awdiv
    ___awdiv->___wmul
    _Initialize_LCD_Screen->_drawtext
    _fillScreen->_fillRectangle
    _fillRectangle->_setAddrWindow
    _drawtext->_drawChar
    _drawChar->_fillRect
    _fillRect->_drawFastVLine
    _drawFastVLine->_setAddrWindow
    _drawPixel->_setAddrWindow
    _setAddrWindow->_write_command
    _setAddrWindow->_write_data
    _Rcmd3->_delay_ms
    _Rcmd2red->_write_command
    _Rcmd2red->_write_data
    _Rcmd1->_delay_ms
    _write_data->_spiwrite
    _write_command->_spiwrite
    _LCD_Reset->_delay_ms
    _delay_ms->___wmul
    _Init_UART->_OpenUSART
    _Increase_Speed->_do_update_pwm
    _Decrease_Speed->_do_update_pwm
    _do_update_pwm->___ftdiv
    ___lbtoft->___ftpack
    ___ftmul->___lbtoft
    ___ftdiv->___ftmul
    _DS3231_Setup_Time->_I2C_Write
    _DS3231_Read_Time->_I2C_Read
    _DS1621_Read_Temp->_I2C_Read
    _DS1621_Init->_I2C_Write_Cmd_Write_Data
    _I2C_Write_Cmd_Write_Data->_I2C_Write
    _I2C_Write_Cmd_Only->_I2C_Write

Critical Paths under _chkisr in COMRAM

    _chkisr->_INTx_isr

Critical Paths under _main in BANK0

    _main->_drawtext
    _Initialize_LCD_Screen->_drawtext

Critical Paths under _chkisr in BANK0

    None.

Critical Paths under _main in BANK1

    None.

Critical Paths under _chkisr in BANK1

    None.

Critical Paths under _main in BANK2

    None.

Critical Paths under _chkisr in BANK2

    None.

Critical Paths under _main in BANK3

    None.

Critical Paths under _chkisr in BANK3

    None.

Critical Paths under _main in BANK4

    None.

Critical Paths under _chkisr in BANK4

    None.

Critical Paths under _main in BANK5

    None.

Critical Paths under _chkisr in BANK5

    None.

Critical Paths under _main in BANK6

    None.

Critical Paths under _chkisr in BANK6

    None.

Critical Paths under _main in BANK7

    None.

Critical Paths under _chkisr in BANK7

    None.

Critical Paths under _main in BANK8

    None.

Critical Paths under _chkisr in BANK8

    None.

Critical Paths under _main in BANK9

    None.

Critical Paths under _chkisr in BANK9

    None.

Critical Paths under _main in BANK10

    None.

Critical Paths under _chkisr in BANK10

    None.

Critical Paths under _main in BANK11

    None.

Critical Paths under _chkisr in BANK11

    None.

Critical Paths under _main in BANK12

    None.

Critical Paths under _chkisr in BANK12

    None.

Critical Paths under _main in BANK13

    None.

Critical Paths under _chkisr in BANK13

    None.

Critical Paths under _main in BANK14

    None.

Critical Paths under _chkisr in BANK14

    None.

Critical Paths under _main in BANK15

    None.

Critical Paths under _chkisr in BANK15

    None.

Call Graph Tables:

 ---------------------------------------------------------------------------------
 (Depth) Function   	        Calls       Base Space   Used Autos Params    Refs
 ---------------------------------------------------------------------------------
 (0) _main                                                 7     7      0  109208
                                             67 COMRAM     1     1      0
                                              7 BANK0      6     6      0
                    _Activate_Buzzer
                        _DS1621_Init
                   _DS1621_Read_Temp
                   _DS3231_Read_Time
                  _DS3231_Setup_Time
                  _Deactivate_Buzzer
                     _Decrease_Speed
               _Enable_INT_Interrupt
                           _I2C_Init
                     _Increase_Speed
                     _Init_Interrupt
                          _Init_UART
              _Initialize_LCD_Screen
                         _Set_DC_RGB
                        _Set_RPM_RGB
                         _Toggle_Fan
                       _Wait_One_Sec
                            ___awdiv
                             ___wmul
                      _do_update_pwm
                         _drawCircle
                           _drawtext
                         _fillCircle
                            _get_RPM
                             _printf
 ---------------------------------------------------------------------------------
 (1) _printf                                              37    23     14    4211
                                             28 COMRAM    28    14     14
                            ___lwdiv
                            ___lwmod
                             ___wmul
                            _isdigit
                              _putch
 ---------------------------------------------------------------------------------
 (2) _putch                                                1     1      0      31
                                             16 COMRAM     1     1      0
 ---------------------------------------------------------------------------------
 (2) _isdigit                                              3     3      0      99
                                             16 COMRAM     3     3      0
 ---------------------------------------------------------------------------------
 (2) ___lwmod                                              5     1      4     386
                                             23 COMRAM     5     1      4
                            ___lwdiv (ARG)
 ---------------------------------------------------------------------------------
 (2) ___lwdiv                                              7     3      4     549
                                             16 COMRAM     7     3      4
 ---------------------------------------------------------------------------------
 (1) _get_RPM                                              4     2      2    2559
                                             30 COMRAM     4     2      2
                            ___awdiv
                             ___wmul
 ---------------------------------------------------------------------------------
 (1) _fillCircle                                           8     0      8    9328
                                             58 COMRAM     8     0      8
                      _drawFastVLine
                   _fillCircleHelper
 ---------------------------------------------------------------------------------
 (2) _fillCircleHelper                                    24    12     12    5207
                                             34 COMRAM    24    12     12
                      _drawFastVLine
 ---------------------------------------------------------------------------------
 (1) _drawCircle                                          20    12      8    7204
                                             27 COMRAM    20    12      8
                          _drawPixel
 ---------------------------------------------------------------------------------
 (1) _Toggle_Fan                                           0     0      0    9484
                       _Turn_Off_Fan
                        _Turn_On_Fan
 ---------------------------------------------------------------------------------
 (2) _Turn_On_Fan                                          0     0      0    9484
                      _do_update_pwm
 ---------------------------------------------------------------------------------
 (2) _Turn_Off_Fan                                         0     0      0       0
 ---------------------------------------------------------------------------------
 (1) _Set_RPM_RGB                                          4     2      2    1425
                                             30 COMRAM     4     2      2
                            ___awdiv
 ---------------------------------------------------------------------------------
 (1) _Set_DC_RGB                                           4     2      2    1391
                                             30 COMRAM     4     2      2
                            ___awdiv
 ---------------------------------------------------------------------------------
 (2) ___awdiv                                              8     4      4    1215
                                             22 COMRAM     8     4      4
                             ___wmul (ARG)
 ---------------------------------------------------------------------------------
 (1) _Initialize_LCD_Screen                                0     0      0   25269
                          _LCD_Reset
            _TFT_GreenTab_Initialize
                           _drawtext
                         _fillScreen
                             _strcpy
 ---------------------------------------------------------------------------------
 (2) _strcpy                                               6     2      4     263
                                             16 COMRAM     6     2      4
 ---------------------------------------------------------------------------------
 (2) _fillScreen                                           2     0      2    2396
                                             35 COMRAM     2     0      2
                      _fillRectangle
 ---------------------------------------------------------------------------------
 (3) _fillRectangle                                       12     7      5    2288
                                             23 COMRAM    12     7      5
                      _setAddrWindow
                           _spiwrite
 ---------------------------------------------------------------------------------
 (1) _drawtext                                            17     9      8   14536
                                             56 COMRAM    10     2      8
                                              0 BANK0      7     7      0
                           _drawChar
                             _strlen
 ---------------------------------------------------------------------------------
 (2) _strlen                                               6     4      2     207
                                             16 COMRAM     6     4      2
 ---------------------------------------------------------------------------------
 (2) _drawChar                                            11     4      7   12462
                                             45 COMRAM    11     4      7
                             ___wmul
                          _drawPixel
                           _fillRect
 ---------------------------------------------------------------------------------
 (3) _fillRect                                            11     6      5    4404
                                             34 COMRAM    11     6      5
                      _drawFastVLine
 ---------------------------------------------------------------------------------
 (3) _drawFastVLine                                       11     7      4    3534
                                             23 COMRAM    11     7      4
                      _setAddrWindow
                           _spiwrite
 ---------------------------------------------------------------------------------
 (3) _drawPixel                                            4     1      3    4879
                                             23 COMRAM     4     1      3
                      _setAddrWindow
                         _write_data
 ---------------------------------------------------------------------------------
 (4) _setAddrWindow                                        4     1      3    1178
                                             19 COMRAM     4     1      3
                      _write_command
                         _write_data
 ---------------------------------------------------------------------------------
 (2) _TFT_GreenTab_Initialize                              0     0      0    5556
                              _Rcmd1
                           _Rcmd2red
                              _Rcmd3
                      _write_command
                         _write_data
 ---------------------------------------------------------------------------------
 (3) _Rcmd3                                                0     0      0    2648
                           _delay_ms
                      _write_command
                         _write_data
 ---------------------------------------------------------------------------------
 (3) _Rcmd2red                                             0     0      0     130
                      _write_command
                         _write_data
 ---------------------------------------------------------------------------------
 (3) _Rcmd1                                                0     0      0    2648
                           _delay_ms
                      _write_command
                         _write_data
 ---------------------------------------------------------------------------------
 (5) _write_data                                           1     1      0      65
                                             18 COMRAM     1     1      0
                           _spiwrite
 ---------------------------------------------------------------------------------
 (5) _write_command                                        1     1      0      65
                                             18 COMRAM     1     1      0
                           _spiwrite
 ---------------------------------------------------------------------------------
 (4) _spiwrite                                             2     2      0      34
                                             16 COMRAM     2     2      0
 ---------------------------------------------------------------------------------
 (2) _LCD_Reset                                            0     0      0    2518
                           _delay_ms
 ---------------------------------------------------------------------------------
 (4) _delay_ms                                             6     4      2    2518
                                             22 COMRAM     6     4      2
                             ___wmul
 ---------------------------------------------------------------------------------
 (2) ___wmul                                               6     2      4    1310
                                             16 COMRAM     6     2      4
 ---------------------------------------------------------------------------------
 (1) _Init_UART                                            0     0      0     387
                          _OpenUSART
 ---------------------------------------------------------------------------------
 (2) _OpenUSART                                            3     1      2     387
                                             16 COMRAM     3     1      2
 ---------------------------------------------------------------------------------
 (1) _Init_Interrupt                                       0     0      0       0
 ---------------------------------------------------------------------------------
 (1) _Increase_Speed                                       0     0      0    9484
                            _Do_Beep
                      _do_update_pwm
 ---------------------------------------------------------------------------------
 (1) _I2C_Init                                             4     0      4      77
                                             16 COMRAM     4     0      4
                         _i2cHighScl
                         _i2cHighSda
 ---------------------------------------------------------------------------------
 (1) _Enable_INT_Interrupt                                 0     0      0       0
 ---------------------------------------------------------------------------------
 (1) _Decrease_Speed                                       0     0      0    9484
                            _Do_Beep
                      _do_update_pwm
 ---------------------------------------------------------------------------------
 (1) _do_update_pwm                                        9     9      0    9484
                                             58 COMRAM     9     9      0
                            ___ftdiv
                            ___ftmul
                            ___fttol
                           ___lbtoft
 ---------------------------------------------------------------------------------
 (2) ___lbtoft                                             4     1      3    2435
                                             24 COMRAM     4     1      3
                           ___ftpack
 ---------------------------------------------------------------------------------
 (2) ___fttol                                             15    11      4     448
                                             16 COMRAM    15    11      4
 ---------------------------------------------------------------------------------
 (2) ___ftmul                                             15     9      6    3160
                                             28 COMRAM    15     9      6
                           ___ftpack
                           ___lbtoft (ARG)
 ---------------------------------------------------------------------------------
 (2) ___ftdiv                                             15     9      6    3246
                                             43 COMRAM    15     9      6
                            ___ftmul (ARG)
                           ___ftpack
                           ___lbtoft (ARG)
 ---------------------------------------------------------------------------------
 (3) ___ftpack                                             8     3      5    2404
                                             16 COMRAM     8     3      5
 ---------------------------------------------------------------------------------
 (2) _Do_Beep                                              0     0      0       0
                    _Activate_Buzzer
                  _Deactivate_Buzzer
                       _Wait_One_Sec
 ---------------------------------------------------------------------------------
 (1) _Wait_One_Sec                                         0     0      0       0
                   _Wait_Half_Second
 ---------------------------------------------------------------------------------
 (2) _Wait_Half_Second                                     0     0      0       0
 ---------------------------------------------------------------------------------
 (3) _Deactivate_Buzzer                                    0     0      0       0
 ---------------------------------------------------------------------------------
 (3) _Activate_Buzzer                                      0     0      0       0
 ---------------------------------------------------------------------------------
 (1) _DS3231_Setup_Time                                    2     2      0     201
                                             18 COMRAM     2     2      0
                          _I2C_Start
                           _I2C_Stop
                          _I2C_Write
 ---------------------------------------------------------------------------------
 (1) _DS3231_Read_Time                                     3     3      0     430
                                             19 COMRAM     2     2      0
                        _I2C_ReStart
                           _I2C_Read
                          _I2C_Start
                           _I2C_Stop
                          _I2C_Write
 ---------------------------------------------------------------------------------
 (1) _DS1621_Read_Temp                                     5     3      2     464
                                             19 COMRAM     5     3      2
                        _I2C_ReStart
                           _I2C_Read
                          _I2C_Start
                           _I2C_Stop
                          _I2C_Write
 ---------------------------------------------------------------------------------
 (2) _I2C_Read                                             3     3      0     198
                                             16 COMRAM     3     3      0
                             _i2cAck
                         _i2cHighScl
                         _i2cHighSda
                          _i2cLowScl
                            _i2cNack
 ---------------------------------------------------------------------------------
 (3) _i2cNack                                              0     0      0       0
                         _i2cHighScl
                          _i2cLowScl
 ---------------------------------------------------------------------------------
 (3) _i2cAck                                               0     0      0       0
                         _i2cHighScl
                         _i2cHighSda
                          _i2cLowScl
                          _i2cLowSda
 ---------------------------------------------------------------------------------
 (2) _I2C_ReStart                                          0     0      0       0
                         _i2cHighScl
                         _i2cHighSda
                          _i2cLowScl
                          _i2cLowSda
 ---------------------------------------------------------------------------------
 (1) _DS1621_Init                                          1     1      0     717
                                             21 COMRAM     1     1      0
                 _I2C_Write_Cmd_Only
           _I2C_Write_Cmd_Write_Data
 ---------------------------------------------------------------------------------
 (2) _I2C_Write_Cmd_Write_Data                             3     1      2     380
                                             18 COMRAM     3     1      2
                          _I2C_Start
                           _I2C_Stop
                          _I2C_Write
 ---------------------------------------------------------------------------------
 (2) _I2C_Write_Cmd_Only                                   2     1      1     272
                                             18 COMRAM     2     1      1
                          _I2C_Start
                           _I2C_Stop
                          _I2C_Write
 ---------------------------------------------------------------------------------
 (2) _I2C_Write                                            2     2      0     133
                                             16 COMRAM     2     2      0
                         _i2cHighScl
                         _i2cHighSda
                          _i2cLowScl
                          _i2cLowSda
 ---------------------------------------------------------------------------------
 (2) _I2C_Stop                                             0     0      0       0
                         _i2cHighScl
                         _i2cHighSda
                          _i2cLowScl
                          _i2cLowSda
 ---------------------------------------------------------------------------------
 (2) _I2C_Start                                            0     0      0       0
                         _i2cHighScl
                         _i2cHighSda
                          _i2cLowScl
                          _i2cLowSda
 ---------------------------------------------------------------------------------
 (3) _i2cLowSda                                            0     0      0       0
 ---------------------------------------------------------------------------------
 (3) _i2cLowScl                                            0     0      0       0
 ---------------------------------------------------------------------------------
 (2) _i2cHighSda                                           0     0      0       0
 ---------------------------------------------------------------------------------
 (2) _i2cHighScl                                           0     0      0       0
 ---------------------------------------------------------------------------------
 Estimated maximum stack depth 5
 ---------------------------------------------------------------------------------
 (Depth) Function   	        Calls       Base Space   Used Autos Params    Refs
 ---------------------------------------------------------------------------------
 (9) _chkisr                                              14    14      0       0
                                              2 COMRAM    14    14      0
                           _INTx_isr
                         _TIMER1_isr
 ---------------------------------------------------------------------------------
 (10) _TIMER1_isr                                          0     0      0       0
 ---------------------------------------------------------------------------------
 (10) _INTx_isr                                            2     2      0       0
                                              0 COMRAM     2     2      0
                    _Reset_Nec_State
 ---------------------------------------------------------------------------------
 (11) _Reset_Nec_State                                     0     0      0       0
 ---------------------------------------------------------------------------------
 Estimated maximum stack depth 11
 ---------------------------------------------------------------------------------

 Call Graph Graphs:

 _main (ROOT)
   _Activate_Buzzer
   _DS1621_Init
     _I2C_Write_Cmd_Only
       _I2C_Start
         _i2cHighScl
         _i2cHighSda
         _i2cLowScl
         _i2cLowSda
       _I2C_Stop
         _i2cHighScl
         _i2cHighSda
         _i2cLowScl
         _i2cLowSda
       _I2C_Write
         _i2cHighScl
         _i2cHighSda
         _i2cLowScl
         _i2cLowSda
     _I2C_Write_Cmd_Write_Data
       _I2C_Start
         _i2cHighScl
         _i2cHighSda
         _i2cLowScl
         _i2cLowSda
       _I2C_Stop
         _i2cHighScl
         _i2cHighSda
         _i2cLowScl
         _i2cLowSda
       _I2C_Write
         _i2cHighScl
         _i2cHighSda
         _i2cLowScl
         _i2cLowSda
   _DS1621_Read_Temp
     _I2C_ReStart
       _i2cHighScl
       _i2cHighSda
       _i2cLowScl
       _i2cLowSda
     _I2C_Read
       _i2cAck
         _i2cHighScl
         _i2cHighSda
         _i2cLowScl
         _i2cLowSda
       _i2cHighScl
       _i2cHighSda
       _i2cLowScl
       _i2cNack
         _i2cHighScl
         _i2cLowScl
     _I2C_Start
       _i2cHighScl
       _i2cHighSda
       _i2cLowScl
       _i2cLowSda
     _I2C_Stop
       _i2cHighScl
       _i2cHighSda
       _i2cLowScl
       _i2cLowSda
     _I2C_Write
       _i2cHighScl
       _i2cHighSda
       _i2cLowScl
       _i2cLowSda
   _DS3231_Read_Time
     _I2C_ReStart
       _i2cHighScl
       _i2cHighSda
       _i2cLowScl
       _i2cLowSda
     _I2C_Read
       _i2cAck
         _i2cHighScl
         _i2cHighSda
         _i2cLowScl
         _i2cLowSda
       _i2cHighScl
       _i2cHighSda
       _i2cLowScl
       _i2cNack
         _i2cHighScl
         _i2cLowScl
     _I2C_Start
       _i2cHighScl
       _i2cHighSda
       _i2cLowScl
       _i2cLowSda
     _I2C_Stop
       _i2cHighScl
       _i2cHighSda
       _i2cLowScl
       _i2cLowSda
     _I2C_Write
       _i2cHighScl
       _i2cHighSda
       _i2cLowScl
       _i2cLowSda
   _DS3231_Setup_Time
     _I2C_Start
       _i2cHighScl
       _i2cHighSda
       _i2cLowScl
       _i2cLowSda
     _I2C_Stop
       _i2cHighScl
       _i2cHighSda
       _i2cLowScl
       _i2cLowSda
     _I2C_Write
       _i2cHighScl
       _i2cHighSda
       _i2cLowScl
       _i2cLowSda
   _Deactivate_Buzzer
   _Decrease_Speed
     _Do_Beep
       _Activate_Buzzer
       _Deactivate_Buzzer
       _Wait_One_Sec
         _Wait_Half_Second
     _do_update_pwm
       ___ftdiv
         ___ftmul (ARG)
           ___ftpack
           ___lbtoft (ARG)
             ___ftpack
         ___ftpack (ARG)
         ___lbtoft (ARG)
           ___ftpack
       ___ftmul
         ___ftpack
         ___lbtoft (ARG)
           ___ftpack
       ___fttol
       ___lbtoft
         ___ftpack
   _Enable_INT_Interrupt
   _I2C_Init
     _i2cHighScl
     _i2cHighSda
   _Increase_Speed
     _Do_Beep
       _Activate_Buzzer
       _Deactivate_Buzzer
       _Wait_One_Sec
         _Wait_Half_Second
     _do_update_pwm
       ___ftdiv
         ___ftmul (ARG)
           ___ftpack
           ___lbtoft (ARG)
             ___ftpack
         ___ftpack (ARG)
         ___lbtoft (ARG)
           ___ftpack
       ___ftmul
         ___ftpack
         ___lbtoft (ARG)
           ___ftpack
       ___fttol
       ___lbtoft
         ___ftpack
   _Init_Interrupt
   _Init_UART
     _OpenUSART
   _Initialize_LCD_Screen
     _LCD_Reset
       _delay_ms
         ___wmul
     _TFT_GreenTab_Initialize
       _Rcmd1
         _delay_ms
           ___wmul
         _write_command
           _spiwrite
         _write_data
           _spiwrite
       _Rcmd2red
         _write_command
           _spiwrite
         _write_data
           _spiwrite
       _Rcmd3
         _delay_ms
           ___wmul
         _write_command
           _spiwrite
         _write_data
           _spiwrite
       _write_command
         _spiwrite
       _write_data
         _spiwrite
     _drawtext
       _drawChar
         ___wmul
         _drawPixel
           _setAddrWindow
             _write_command
               _spiwrite
             _write_data
               _spiwrite
           _write_data
             _spiwrite
         _fillRect
           _drawFastVLine
             _setAddrWindow
               _write_command
                 _spiwrite
               _write_data
                 _spiwrite
             _spiwrite
       _strlen
     _fillScreen
       _fillRectangle
         _setAddrWindow
           _write_command
             _spiwrite
           _write_data
             _spiwrite
         _spiwrite
     _strcpy
   _Set_DC_RGB
     ___awdiv
       ___wmul (ARG)
   _Set_RPM_RGB
     ___awdiv
       ___wmul (ARG)
   _Toggle_Fan
     _Turn_Off_Fan
     _Turn_On_Fan
       _do_update_pwm
         ___ftdiv
           ___ftmul (ARG)
             ___ftpack
             ___lbtoft (ARG)
               ___ftpack
           ___ftpack (ARG)
           ___lbtoft (ARG)
             ___ftpack
         ___ftmul
           ___ftpack
           ___lbtoft (ARG)
             ___ftpack
         ___fttol
         ___lbtoft
           ___ftpack
   _Wait_One_Sec
     _Wait_Half_Second
   ___awdiv
     ___wmul (ARG)
   ___wmul
   _do_update_pwm
     ___ftdiv
       ___ftmul (ARG)
         ___ftpack
         ___lbtoft (ARG)
           ___ftpack
       ___ftpack (ARG)
       ___lbtoft (ARG)
         ___ftpack
     ___ftmul
       ___ftpack
       ___lbtoft (ARG)
         ___ftpack
     ___fttol
     ___lbtoft
       ___ftpack
   _drawCircle
     _drawPixel
       _setAddrWindow
         _write_command
           _spiwrite
         _write_data
           _spiwrite
       _write_data
         _spiwrite
   _drawtext
     _drawChar
       ___wmul
       _drawPixel
         _setAddrWindow
           _write_command
             _spiwrite
           _write_data
             _spiwrite
         _write_data
           _spiwrite
       _fillRect
         _drawFastVLine
           _setAddrWindow
             _write_command
               _spiwrite
             _write_data
               _spiwrite
           _spiwrite
     _strlen
   _fillCircle
     _drawFastVLine
       _setAddrWindow
         _write_command
           _spiwrite
         _write_data
           _spiwrite
       _spiwrite
     _fillCircleHelper
       _drawFastVLine
         _setAddrWindow
           _write_command
             _spiwrite
           _write_data
             _spiwrite
         _spiwrite
   _get_RPM
     ___awdiv
       ___wmul (ARG)
     ___wmul
   _printf
     ___lwdiv
     ___lwmod
       ___lwdiv (ARG)
     ___wmul
     _isdigit
     _putch

 _chkisr (ROOT)
   _INTx_isr
     _Reset_Nec_State
   _TIMER1_isr

 Address spaces:
Name               Size   Autos  Total    Cost      Usage
BIGRAM             F7F      0       0      37        0.0%
EEDATA             400      0       0       0        0.0%
BITBANK14          100      0       0      32        0.0%
BANK14             100      0       0      33        0.0%
BITBANK13          100      0       0      30        0.0%
BANK13             100      0       0      31        0.0%
BITBANK12          100      0       0      28        0.0%
BANK12             100      0       0      29        0.0%
BITBANK11          100      0       0      26        0.0%
BANK11             100      0       0      27        0.0%
BITBANK10          100      0       0      24        0.0%
BANK10             100      0       0      25        0.0%
BITBANK9           100      0       0      22        0.0%
BANK9              100      0       0      23        0.0%
BITBANK8           100      0       0      20        0.0%
BANK8              100      0       0      21        0.0%
BITBANK7           100      0       0      18        0.0%
BANK7              100      0       0      19        0.0%
BITBANK6           100      0       0      16        0.0%
BANK6              100      0       0      17        0.0%
BITBANK5           100      0       0      14        0.0%
BANK5              100      0       0      15        0.0%
BITBANK4           100      0       0      12        0.0%
BANK4              100      0       0      13        0.0%
BITBANK3           100      0       0      10        0.0%
BANK3              100      0       0      11        0.0%
BITBANK2           100      0       0       8        0.0%
BANK2              100      0       0       9        0.0%
BITBANK1           100      0       0       6        0.0%
BANK1              100      0      9D       7       61.3%
BITBANK15           80      0       0      35        0.0%
BANK15              80      0       0      36        0.0%
BITBANK0            80      0       0       4        0.0%
BANK0               80      D      80       5      100.0%
BITCOMRAM           7F      0       0       0        0.0%
COMRAM              7F     44      6E       1       86.6%
BITSFR               0      0       0      40        0.0%
SFR                  0      0       0      40        0.0%
STACK                0      0       0       2        0.0%
NULL                 0      0       0       0        0.0%
ABS                  0      0     18B      34        0.0%
DATA                 0      0     18B       3        0.0%
CODE                 0      0       0       0        0.0%


Microchip Technology PIC18 Macro Assembler V1.34 build -361300703 
Symbol Table                                                                                   Thu Nov 06 15:42:28 2025

                      drawCircle@f 002A                        drawCircle@r 0020  
                      drawCircle@x 002C                        drawCircle@y 002E  
               __size_of_I2C_Start 0012                        _SSPSTATbits 000FC7  
               __size_of_I2C_Write 003E                       drawCircle@x0 001C  
                     drawCircle@y0 001E                                 l50 1E80  
                               l34 1F50                                 l45 1E3C  
                               l29 1C48                                 l97 1BCA  
                     ___awdiv@sign 001C               __size_of_Turn_On_Fan 0010  
              ___wmul@multiplicand 0013                                l100 1CD4  
                              l320 1A4C                                l330 1F60  
                              l405 0A5C                                l177 1D3E  
                              l433 12E6                                l434 1252  
                              l380 1630                                l436 12C2  
                              l444 074C                                l437 12E4  
                              l374 1DA0                                l462 0B76  
                              l551 201A                                l396 0B06  
                              l805 011C                                l398 09E0  
                              l584 1EEE                                l842 0374  
                              l870 1860                                l871 1862  
                              l872 186C                                _FAN 0051  
                              l873 186E                                l866 1846  
                              l875 1888                                l878 1DF2  
                ?_Wait_Half_Second 0001                                _PR2 000FCB  
                              _day 005B                  _Deactivate_Buzzer 206E  
             __size_of_I2C_ReStart 0016                                _dow 005C  
                              _nbr 004D              __size_of_Turn_Off_Fan 000A  
                              _txt 004F                                prod 000FF3  
                              wreg 000FE8                 ??_Wait_Half_Second 0011  
               ?_Deactivate_Buzzer 0001                    ??_fillRectangle 001D  
                     __CFG_LVP$OFF 000000            _TFT_GreenTab_Initialize 1DA2  
                     ___ftdiv@cntr 0035                       ___ftdiv@sign 003A  
                     __CFG_WDT$OFF 000000                     drawFastVLine@h 0019  
                             l1071 15A8                               l1401 19A6  
                             l1411 1AE4                               l1261 11D6  
                             l1309 1E5E                               l1335 1E18  
                             l1440 1C86                               l1273 0F50  
                             l1186 13AC                               l1258 120A  
                   drawFastVLine@x 0022                               l1197 1384  
                   drawFastVLine@y 0018                               l1294 1128  
                             l5030 15BA                               l5210 0ED4  
                             l5034 15F2                               l5130 1B60  
                             l5220 0F02                               l5044 1618  
                             l5310 1CCC                               l5070 134C  
                             l5062 1308                               l5150 1170  
                             l5214 0EE6                               l5118 1D82  
                             l5046 1626                               l5126 1B44  
                             l5080 138C                               l5072 136C  
                             l5064 1314                               l5144 1148  
                             l5224 0F14                               l6032 14C4  
                             l6120 0036                               l5074 1378  
                             l5066 1334                               l5058 12F8  
                             l5170 11B0                               l5146 1162  
                             l5218 0EFC                               l6210 024C  
                             l6202 022A                               l6122 0044  
                             l5316 1CDE                               l5180 11E4  
                             l5228 0F2A                               l5260 10CC  
                             l6212 0254                               l6204 0234  
                             l6140 00E6                               l6132 0082  
                             l6116 0026                               l5318 1CE4  
                             l5086 139E                               l5190 0E78  
                             l5262 10D2                               l5270 10FE  
                             l5238 1062                               l6230 02EC  
                             l6222 028C                               l6126 004E  
                             l5328 1CF6                               l5192 0E92  
                             l5256 10BC                               l6056 0732  
                             l6240 034C                               l6216 026C  
                             l6160 0164                               l6144 00EE  
                             l6128 0064                               l5274 1116  
                             l5266 10E6                               l5530 12C6  
                             l5514 128A                               l6218 0274  
                             l6226 02A0                               l6170 0198  
                             l6162 0168                               l6242 0358  
                             l5196 0EA0                               l5268 10F4  
                             l5292 143A                               l5452 09DC  
                             l5444 09C2                               l5540 12E0  
                             l5508 121C                               l6084 0822  
                             l5700 0B5C                               l6228 02A8  
                             l6236 0332                               l6180 01AE  
                             l6156 014A                               l5462 0A1C  
                             l5454 09E4                               l5534 12D0  
                             l5526 12B8                               l6238 0344  
                             l6174 019E                               l6166 0174  
                             l6190 01D8     I2C_Write_Cmd_Write_Data@Device 0015  
                             l5464 0A50                               l5448 09CE  
                             l5720 0C2A                               l6184 01D2  
                             l6176 01A2                               l6192 01EA  
                             l5482 0AD2                               l5474 0A7E  
                             l5490 0B02                               l5466 0A54  
                             l5458 09EC                               l5650 1D4A  
                             l5810 155C                               l5802 153C  
                             l5572 1B8E                               l5900 1E72  
                             l5740 184A                               l5732 1836  
                             l5484 0AFA                               l5476 0AA6  
                             l5652 1D54                               l5820 1582  
                             l5812 1564                               l5716 0BD8  
                             l6612 04D0                               l5582 1BA4  
                             l5590 1BB4                               l5662 0D7C  
                             l5910 1C02                               l6198 0206  
                             l5584 1BAC                               l5576 1B96  
                             l5736 183E                               l5728 182C  
                             l5496 1C54                               l5808 1552  
                             l5824 158E                               l5840 1974  
                             l6632 052A                               l6624 0500  
                             l5594 1BC0                               l5498 1C5A  
                             l5674 0DCC                               l5922 1B20  
                             l5850 199A                               l5842 197C  
                             l5596 1BC6                               l5748 1858  
                             l5828 159E                               l5860 1ABA  
                             l6636 0530                               l6628 050A  
                             l5686 0E3C                               l5678 0DEA  
                             l5918 1B14                               l5838 196A  
                             l5862 1AC2                               l5688 0E44  
                             l5784 1E56                               l6672 066A  
                             l5890 1E2E                               l5882 1F4A  
                             l5866 1AD8                               l5858 1AB0  
                             l6594 03F0                               l5796 152A  
                             l6676 0678                               l6668 065C  
                             STR_1 FFF6                               STR_2 FF8B  
                             STR_3 FF60                               STR_4 FFD2  
                             STR_5 FFBF                               STR_6 FFA9  
                             STR_7 FFE5                               _LED1 0080  
                             _LED2 0095                               _LED3 00AA  
                             _LED4 00BF                               u4000 1280  
                             u4110 0DA6                               u3440 15E8  
                             u3611 1158                               u5037 2028  
                             u3701 1054                               u3720 1080  
                             u3641 0E6A                               u3661 0E88  
                             u3725 1078                               u3591 113A  
                             u3920 0AB4                               u4480 1BF8  
                             u3990 124A                               _TRMT 007D61  
              ??_Deactivate_Buzzer 0011                               _main 0376  
                             _font FD73                       ___ftpack@arg 0011  
                             _hour 005E                       ___ftpack@exp 0014  
                 __end_of_I2C_Init 2050                   __end_of_I2C_Read 1BCC  
                             _year 006C                               fsr0h 000FEA  
                             _txt1 012A                               fsr1h 000FE2  
                             fsr0l 000FE9                               fsr2h 000FDA  
                             fsr1l 000FE1                               indf2 000FDF  
                             fsr2l 000FD9                               _wrap 006E  
                 __end_of_I2C_Stop 1FD4                               pclat 000FFA  
               __size_of_LCD_Reset 0012                               prodh 000FF4  
                             prodl 000FF3                    __end_of_Do_Beep 1F9E  
                             start 0018        __size_of_I2C_Write_Cmd_Only 001A  
                   _Increase_Speed 1E1A               _Enable_INT_Interrupt 208E  
                  ??_drawFastVLine 001C                       ___ftmul@cntr 002A  
                  __end_of_i2cNack 2064                       ___param_bank 000010  
                     ___ftmul@sign 002B                    _Reset_Nec_State 2086  
                     ___fttol@exp1 001F                       _Turn_Off_Fan 203C  
                     ___fttol@lval 001B                        ?_TIMER1_isr 0001  
        __end_of_Deactivate_Buzzer 2076                    ??_do_update_pwm 003B  
                  drawFastVLine@hi 0020                    drawFastVLine@lo 0021  
                            ?_main 0001                    __end_of___awdiv 15AA  
                  drawCircle@ddF_x 0026                    drawCircle@ddF_y 0028  
                  __end_of___ftdiv 120C                    __end_of___ftmul 0F52  
                            _T0CON 000FD5                    ___awdiv@divisor 0019  
                            _T1CON 000FCD                    __end_of___fttol 112A  
                            _T2CON 000FCA                              _T3CON 000FB1  
                  __end_of___lwdiv 19B0                    __end_of___lwmod 1AEE  
                            i2l234 16F2                              i2l246 09B0  
                            i2l258 095A                    ___awdiv@counter 001B  
                  drawCircle@color 0022                              _RCSTA 000FAB  
                            _TMR0H 000FD7                              _TMR1H 000FCF  
                            _TMR0L 000FD6                              _TMR1L 000FCE  
                            _TMR3L 000FB2                              _SPBRG 000FAF  
                            _PORTA 000F80                              _PORTB 000F81  
                            _PORTC 000F82                              _PORTD 000F83  
                            _PORTE 000F84                              _TRISA 000F92  
                            _TRISB 000F93                              _TRISC 000F94  
                            _TRISD 000F95                              _TRISE 000F96  
                            _TXREG 000FAD                              _TXSTA 000FAC  
                  __end_of_get_RPM 1C4A                              _Rcmd1 0C40  
                            _Rcmd3 0F52                              _nRBPU 007F8F  
                       _Nec_Button 0052                   __end_of_INTx_isr 09B2  
                       _i2cHighSda 207E                         _i2cHighScl 2024  
                  __end_of_dpowers FF58                              _color 0100  
                            _font2 FE72              fillCircleHelper@ddF_x 0031  
            fillCircleHelper@ddF_y 0033                    __end_of_isdigit 1E60  
                            _month 0060                      ___ftpack@sign 0015  
            fillCircleHelper@delta 002B                              _putch 2016  
            fillCircleHelper@color 002D                              main@i 00FE  
                __end_of_I2C_Start 1FE6                  __end_of_I2C_Write 1D04  
                   __CFG_BOREN$OFF 000000                              tablat 000FF5  
                            status 000FD8             __end_of_Increase_Speed 1E3E  
                ?_DS1621_Read_Temp 0014              ?_Enable_INT_Interrupt 0001  
                  write_data@data_ 0013                 ??_DS1621_Read_Temp 0016  
                  __initialization 172C                      ??_Set_RPM_RGB 0021  
                     __end_of_main 068A                       __end_of_font FE72  
                 __end_of_Rcmd2red 1CC6                   ??_Decrease_Speed 0044  
                           ??_main 0044                      ___fttol@sign1 001A  
                    __activetblptr 000002                  ?_DS3231_Read_Time 0001  
                __end_of_LCD_Reset 1F8C                         _Set_DC_RGB 1BCC  
        ??_TFT_GreenTab_Initialize 001D                     _Init_Interrupt 1F10  
               ??_DS3231_Read_Time 0014                             ?_Rcmd1 0001  
                           ?_Rcmd3 0001                          I2C_Init@c 0011  
                        I2C_Read@n 0012                             _ADCON0 000FC2  
                           _ADCON1 000FC1                             _ADCON2 000FC0  
              DS1621_Read_Temp@Cmd 0016                             _ADRESH 000FC4  
                           _ADRESL 000FC3                             _CCPR1L 000FBE  
                           _CCPR2L 000FBB                   ___awdiv@dividend 0017  
               __size_of_i2cLowSda 000A                 __size_of_i2cLowScl 0008  
                           ?_putch 0001                   __end_of___ftpack 13AE  
                 __end_of___lbtoft 1E1A                          ??_Do_Beep 0011  
                           i2l2610 0984                             i2l2612 098A  
                           i2l2608 097E                             i2l2536 0860  
                           i2l2570 08D6                             i2l2562 08B8  
                           i2l2618 098E                             i2l2556 08AE  
                           i2l2548 0890                             i2l2900 16E8  
                           i2l2590 090C                             i2l2582 08FC  
                           i2l2584 0902                             i2l2576 08E0  
                           i2l2586 0908                             _OSCCON 000FD3  
               __size_of_Init_UART 0014                __size_of_TIMER1_isr 000C  
                           _SPBRGH 000FB0            __end_of_Reset_Nec_State 208E  
                           _SSPBUF 000FC9                    ?_Increase_Speed 0001  
                        ??_i2cNack 0011                   __end_of_delay_ms 1A54  
                           _Nec_OK 0049                             _i2cAck 1FB0  
                 __end_of_fillRect 1B84                   __end_of_drawChar 0B08  
               __size_of_OpenUSART 0070           __size_of_Activate_Buzzer 0012  
                           ___wmul 1DCC                          ??___awdiv 001B  
        __size_of_fillCircleHelper 0138                   __end_of_drawtext 0E5A  
                        ??___ftdiv 0032                          ??___ftmul 0023  
                        ??___fttol 0015                             _chkisr 0008  
                        ??___lwdiv 0015                        Set_DC_RGB@x 0021  
                           _array1 00D4                          ??___lwmod 001C  
                           _buffer 017E                             clear_0 1732  
                           clear_1 173E                   ___awdiv@quotient 001D  
                           _minute 005F                             _second 0062  
          DS3231_Setup_Time@Device 0013                         _Timing_Txt 00E9  
                        ??_get_RPM 0021         __size_of_Deactivate_Buzzer 0008  
                           _printf 001C                       drawtext@size 0040  
                           _strcpy 1D40                             _strlen 1C4A  
            ___ftmul@f3_as_product 0027             __end_of_Init_Interrupt 1F28  
              __end_of_Set_RPM_RGB 1B3A            ??_Initialize_LCD_Screen 0043  
                       _Toggle_Fan 1F3E                       __pdataCOMRAM 006D  
                        ??_isdigit 0011                          ?_I2C_Init 0011  
                        ?_I2C_Read 0001                          ?_I2C_Stop 0001  
                     __mediumconst FD72                             tblptrh 000FF7  
                           tblptrl 000FF6                             tblptru 000FF8  
 __end_of_I2C_Write_Cmd_Write_Data 1EA2                        ?_i2cHighSda 0001  
                      ?_i2cHighScl 0001                             putch@c 0011  
                 __end_of_spiwrite 1F66                         __accesstop 0080  
          __end_of__initialization 179C             ??_Enable_INT_Interrupt 0011  
               _setup_alarm_minute 0064                 _setup_alarm_second 0065  
                    ___rparam_used 000001                         ___ftdiv@f1 002C  
                       ___ftdiv@f2 002F                         ___ftdiv@f3 0036  
                       ___lbtoft@c 001C                         ___ftmul@f1 001D  
                       ___ftmul@f2 0020                         ___fttol@f1 0011  
                    __end_of_Rcmd1 0D50                      __end_of_Rcmd3 1044  
                   __pcstackCOMRAM 0001                       __pidataBANK0 17A6  
                     __pidataBANK1 1632                          ?_INTx_isr 0001  
                    __end_of_font2 FF4E                  __end_of_i2cLowSda 206E  
                __end_of_i2cLowScl 207E                      __end_of_putch 2024  
                __end_of_Init_UART 1F7A                     drawPixel@color 0019  
                  ?_Init_Interrupt 0001             __size_of_write_command 0010  
                       ??_I2C_Init 0015                        ?_Set_DC_RGB 001F  
                       ??_I2C_Read 0011                       _alarm_minute 0057  
                     _alarm_second 0058                         ??_I2C_Stop 0011  
       fillCircleHelper@cornername 0029                            ??_Rcmd1 001D  
                          ??_Rcmd3 001D                 __size_of_drawPixel 0030  
                __end_of_OpenUSART 188A                            ??_putch 0011  
                       __pbssBANK1 017E                   _setup_alarm_hour 0063  
                    ??_DS1621_Init 0016                          ?_Rcmd2red 0001  
        __size_of_Wait_Half_Second 001A                    spiwrite@spidata 0012  
                       _alarm_date 0055                   ?_Reset_Nec_State 0001  
                       _alarm_hour 0056                      ?_Wait_One_Sec 0001  
                          ?_i2cAck 0001               Set_DC_RGB@duty_cycle 001F  
                    ??_Turn_On_Fan 0044                     I2C_Read@inByte 0013  
                          ?___wmul 0011                __size_of_i2cHighSda 0008  
              __size_of_i2cHighScl 000C                        _Set_RPM_RGB 1AEE  
                       ??_INTx_isr 0001                            ?_chkisr 0001  
           __size_of_setAddrWindow 004E                            _CCP1CON 000FBD  
 I2C_Write_Cmd_Write_Data@Data_Out 0014                            _CCP2CON 000FBA  
                     ??_TIMER1_isr 0001                      ??_I2C_ReStart 0011  
                        ?___ftpack 0011                          ?___lbtoft 0019  
                       _fillCircle 19B0                         I2C_Write@n 0012  
                          ?_printf 001D                            ?_strcpy 0011  
                          ?_strlen 0011                        ?_Toggle_Fan 0001  
                ??_Activate_Buzzer 0011                         _fillScreen 1EC0  
                       _drawCircle 068A                          ?_delay_ms 0017  
                        ?_fillRect 0023                          ?_drawChar 002E  
                          _SSPCON1 000FC6                            _SSPSTAT 000FC7  
            __end_of_fillRectangle 12E8                            _Do_Beep 1F8C  
                        ?_drawtext 0039                  _DS3231_Setup_Time 188A  
         _I2C_Write_Cmd_Write_Data 1E82         __end_of_I2C_Write_Cmd_Only 1F10  
                       ??_Rcmd2red 0014             DS1621_Read_Temp@Device 0018  
                   ??_Wait_One_Sec 0011                            _i2cNack 205A  
               __end_of_TIMER1_isr 203C                 ?_DS3231_Setup_Time 0001  
                    _write_command 2006                          _I2C_Start 1FD4  
                        _I2C_Write 1CC6                    __size_of_i2cAck 0012  
                          __Hparam 0000                            __Lparam 0000  
              __size_of_Set_DC_RGB 0040                __end_of_DS1621_Init 1EC0  
                __end_of_drawPixel 1DA2                ??_DS3231_Setup_Time 0013  
            __end_of_drawFastVLine 1632                   _fillCircleHelper 0B08  
                          ___awdiv 1514                            ___ftdiv 112A  
                  __size_of___wmul 0028                            ___ftmul 0E5A  
                          ___fttol 1044                            ___lwdiv 1954  
                          ___lwmod 1AA2                    __size_of_chkisr 1724  
                        ?_spiwrite 0001                            __pcinit 172C  
                       ??___ftpack 0016                         ??___lbtoft 001C  
                          __ramtop 1000                            _get_RPM 1C0C  
                          __ptext0 0376                            __ptext1 001C  
                          __ptext2 2016                            __ptext3 1E3E  
                          __ptext4 1AA2                            __ptext5 1954  
        __size_of_DS1621_Read_Temp 003C                            __ptext6 1C0C  
                          __ptext7 19B0                            __ptext8 0B08  
                          __ptext9 068A                    __size_of_printf 035A  
              __end_of_Turn_On_Fan 1FF6                          _T0CONbits 000FD5  
                  __size_of_strcpy 0032                    __size_of_strlen 003E  
                __end_of_hexpowers FF60                          _T1CONbits 000FCD  
         DS3231_Setup_Time@Address 0014                            _dpowers FF4E  
            __end_of_do_update_pwm 1464                            _isdigit 1E3E  
                        _T3CONbits 000FB1                         _duty_cycle 005D  
                       ??_delay_ms 0019                __end_of_I2C_ReStart 1F3E  
                    drawtext@_text 003A                      drawtext@color 003C  
                       ??_fillRect 0028          __end_of_DS3231_Setup_Time 18F0  
                 ??_Increase_Speed 0044                         ??_drawChar 0035  
                        _LCD_Reset 1F7A                            main@rpm 00FB  
                    _setAddrWindow 1A54                     __pintcode_body 16B0  
                       delay_ms@ms 0017               end_of_initialization 179C  
                       ??_drawtext 0041                     ?_write_command 0001  
                    __Lmediumconst FD72          __size_of_DS3231_Read_Time 0064  
                          int_func 16B0            DS3231_Read_Time@Address 0014  
                       ?_I2C_Start 0001                         ?_I2C_Write 0001  
                       get_RPM@RPS 0021                __size_of_Toggle_Fan 0014  
                       _tempSecond 006D                          _RCSTAbits 000FAB  
                          printf@c 0038                            printf@f 001D  
                          postdec1 000FE5                            postdec2 000FDD  
                          postinc0 000FEE                            postinc2 000FDE  
                       ??_spiwrite 0011                            strlen@s 0011  
                  fillCircle@color 0041        I2C_Write_Cmd_Write_Data@Cmd 0013  
                      ?_fillCircle 003B                   drawtext@cursor_x 00F9  
                 drawtext@cursor_y 00F8                          _PORTCbits 000F82  
                        _PORTDbits 000F83                   I2C_Write@outByte 0011  
                      ?_fillScreen 0024                         _setup_hour 0067  
                       _setup_year 006B                        ?_drawCircle 001C  
   __size_of_Initialize_LCD_Screen 00B0                       Set_RPM_RGB@y 0022  
                       drawChar@bg 0032      __end_of_Initialize_LCD_Screen 1514  
                        _TRISCbits 000F94                          _TRISDbits 000F95  
                     ??_i2cHighSda 0011                       ??_i2cHighScl 0011  
                __size_of_I2C_Init 000A                  __size_of_I2C_Read 0048  
                __size_of_I2C_Stop 0012                     ?_setAddrWindow 0014  
                       ?_LCD_Reset 0001                   drawtext@textsize 00F4  
                       drawPixel@x 001B                         drawPixel@y 0018  
                 _Wait_Half_Second 1EDC                        _DS1621_Init 1EA2  
                      ___ftdiv@exp 0039                        printf@width 0036  
                        _TXSTAbits 000FAC                     __end_of_i2cAck 1FC2  
                      ___ftmul@exp 0026           DS1621_Read_Temp@Data_Ret 0017  
                      _Turn_On_Fan 1FE6                   ??_Init_Interrupt 0011  
               __end_of_i2cHighSda 2086                 __end_of_i2cHighScl 2030  
                   __end_of___wmul 1DF4                      delay_ms@count 001B  
                       _write_data 1FF6                      __pidataCOMRAM 2094  
                   __end_of_chkisr 172C           ?_TFT_GreenTab_Initialize 0001  
                      _I2C_ReStart 1F28                  __size_of_INTx_isr 017A  
                        _Nec_State 0053                         drawtext@bg 003E  
                        _i2cLowSda 2064                          _i2cLowScl 2076  
             __end_of_Wait_One_Sec 205A                     __end_of_printf 0376  
                     ??_Set_DC_RGB 0021                     __end_of_strcpy 1D72  
                   __end_of_strlen 1C88                start_initialization 172C  
                        _Init_UART 1F66         __size_of_DS3231_Setup_Time 0066  
          __size_of_Decrease_Speed 0022                    ??_write_command 0013  
                        _OpenUSART 181A                __size_of_fillCircle 0052  
                 __CFG_OSC$INTIO67 000000                        ??_I2C_Start 0011  
                      ??_I2C_Write 0011                           ??_i2cAck 0011  
                __size_of_Rcmd2red 003E                __size_of_fillScreen 001C  
              __size_of_drawCircle 01AE      __size_of_Enable_INT_Interrupt 0006  
                  _Activate_Buzzer 1F9E                 __end_of_Set_DC_RGB 1C0C  
                         ??___wmul 0015                       ?_Set_RPM_RGB 001F  
                    ?_Turn_Off_Fan 0001                           ??_chkisr 0003  
                      __pdataBANK0 0080                        __pdataBANK1 0100  
                  setAddrWindow@x0 0017                    setAddrWindow@x1 0015  
                  setAddrWindow@y0 0014                    setAddrWindow@y1 0016  
                         ??_printf 002B                   _DS1621_Read_Temp 1D04  
                         ??_strcpy 0015                           ??_strlen 0013  
                     ??_Toggle_Fan 0044                         ?_i2cLowSda 0001  
                       ?_i2cLowScl 0001                  __size_of___ftpack 00C6  
                __size_of___lbtoft 0026                        __pbssCOMRAM 0045  
       ??_I2C_Write_Cmd_Write_Data 0015                         ?_Init_UART 0001  
                  ??_setAddrWindow 0017                      __pcstackBANK0 00F3  
                      ??_LCD_Reset 001D                       _isdigit$2286 0012  
         __end_of_fillCircleHelper 0C40                  __size_of_delay_ms 0052  
                         ?_Do_Beep 0001                  __size_of_fillRect 004A  
                __size_of_drawChar 0156                         ?_OpenUSART 0011  
                 _DS3231_Read_Time 18F0                           ?_i2cNack 0001  
                __size_of_drawtext 010A                   ___lwdiv@dividend 0011  
               __end_of_Toggle_Fan 1F52                        I2C_Read@ack 0011  
                __CFG_CCP2MX$PORTC 000000                          _bit_count 0059  
                        __pintcode 0008    __end_of_TFT_GreenTab_Initialize 1DCC  
                   ??_Turn_Off_Fan 0011                      __pmediumconst FD72  
                         ?___awdiv 0017                           ?___ftdiv 002C  
         __size_of_Reset_Nec_State 0008                           ?___ftmul 001D  
                         ?___fttol 0011                          __tft_type 0054  
                         ?___lwdiv 0011                 _I2C_Write_Cmd_Only 1EF6  
                         ?___lwmod 0018                 drawFastVLine@color 001A  
                      ?_write_data 0001                          _drawPixel 1D72  
                         ?_get_RPM 001F                  __size_of_spiwrite 0014  
              ?_I2C_Write_Cmd_Only 0013                           ?_isdigit 0001  
                         _I2C_Init 2046                           _I2C_Read 1B84  
                         _I2C_Stop 1FC2                     __size_of_Rcmd1 0110  
                   __size_of_Rcmd3 00F2           I2C_Write_Cmd_Only@Device 0014  
                        _hexpowers FF58                   ___lwdiv@quotient 0016  
                   __size_of_putch 000E            __end_of_Activate_Buzzer 1FB0  
                   ___wmul@product 0015               ??_I2C_Write_Cmd_Only 0014  
                         _PIE1bits 000F9D             DS3231_Read_Time@Device 0015  
                         _PIR1bits 000F9E                           _PIR2bits 000FA1  
                         _INTx_isr 0838              __size_of_Wait_One_Sec 000A  
                        _setup_day 0066                  DS1621_Init@Device 0016  
                        fillRect@h 0025                          fillRect@i 002C  
                        fillRect@w 0024                          fillRect@x 002B  
                        fillRect@y 0023                          drawChar@c 002F  
                        drawChar@i 0038                          drawChar@j 0037  
                     ??_fillCircle 0043                          drawChar@x 0036  
                        drawChar@y 002E                         ?_drawPixel 0018  
           __size_of_fillRectangle 00DC                         _ADCON0bits 000FC2  
         __end_of_Wait_Half_Second 1EF6                  ___wmul@multiplier 0011  
                      ??_i2cLowSda 0011                        ??_i2cLowScl 0011  
                     ??_fillScreen 0026                       ??_drawCircle 0024  
                       printf@flag 0035                         printf@prec 0032  
                        main@found 00FF                          main@tempC 00FD  
                        main@tempF 00FA                        ??_Init_UART 0014  
                   _Decrease_Speed 1E60                        _INTCON2bits 000FF1  
                        copy_data0 1758                          copy_data1 1778  
                        drawtext@i 00F6             __size_of_drawFastVLine 0088  
                        drawtext@x 00F3                          drawtext@y 0039  
                         _Nec_code 0045                  write_command@cmd_ 0013  
                      ??_OpenUSART 0013                   __size_of_Do_Beep 0012  
                     ?_DS1621_Init 0001                           _Rcmd2red 1C88  
              __size_of_write_data 0010                    OpenUSART@config 0013  
                     _Time_Elapsed 004B                 __end_of_fillCircle 1A02  
                 __size_of_i2cNack 000A                       _Wait_One_Sec 2050  
                         __Hrparam 0000             __size_of_do_update_pwm 00B6  
               __end_of_fillScreen 1EDC                           __Lrparam 0000  
               __end_of_drawCircle 0838                       ?_Turn_On_Fan 0001  
                 __size_of___awdiv 0096                   __size_of___ftdiv 00E2  
                 __size_of___ftmul 00F8                   __size_of___fttol 00E6  
                 __size_of___lwdiv 005C                   __size_of___lwmod 004C  
             __size_of_Set_RPM_RGB 004C                           ___ftpack 12E8  
                         ___lbtoft 1DF4                       ?_I2C_ReStart 0001  
                 __size_of_get_RPM 003E                  ??_Reset_Nec_State 0001  
                 __size_of_isdigit 0022                           _delay_ms 1A02  
           __end_of_Decrease_Speed 1E82                    ___lwdiv@divisor 0013  
                  ___lwdiv@counter 0015                           __ptext10 1F3E  
                         __ptext11 1FE6                           __ptext20 0D50  
                         __ptext12 203C                           __ptext21 1C4A  
                         __ptext13 1AEE                           __ptext30 0C40  
                         __ptext22 09B2                           __ptext14 1BCC  
                         __ptext31 1FF6                           __ptext23 1B3A  
                         __ptext15 1514                           __ptext40 1E1A  
                         __ptext32 2006                           __ptext24 15AA  
                         __ptext16 1464                           __ptext41 2046  
                         __ptext33 1F52                           __ptext25 1D72  
                         __ptext17 1D40                           __ptext50 1F8C  
                         __ptext42 208E                           __ptext34 1F7A  
                         __ptext26 1A54                           __ptext18 1EC0  
                         __ptext51 2050                           __ptext43 1E60  
                         __ptext35 1A02                           __ptext27 1DA2  
                         __ptext19 120C                           __ptext60 1FB0  
                         __ptext52 1EDC                           __ptext44 13AE  
                         __ptext36 1DCC                           __ptext28 0F52  
                         __ptext61 1F28                           __ptext53 206E  
                         __ptext45 1DF4                           __ptext37 1F66  
                         __ptext29 1C88                           __ptext70 207E  
                         __ptext62 1EA2                           __ptext54 1F9E  
                         __ptext46 1044                           __ptext38 181A  
                         __ptext71 2024                           __ptext63 1E82  
                         __ptext55 188A                           __ptext47 0E5A  
                         __ptext39 1F10                           __ptext64 1EF6  
                         __ptext56 18F0                           __ptext48 112A  
                         __ptext73 2030                           __ptext65 1CC6  
                         __ptext57 1D04                           __ptext49 12E8  
                         __ptext74 0838                           __ptext66 1FC2  
                         __ptext58 1B84                           __ptext75 2086  
                         __ptext67 1FD4                           __ptext59 205A  
                         __ptext68 2064                           __ptext69 2076  
                         _fillRect 1B3A                           _drawChar 09B2  
            _Initialize_LCD_Screen 1464               __end_of_Turn_Off_Fan 2046  
 __size_of_TFT_GreenTab_Initialize 002A                           _colstart 005A  
                         _drawtext 0D50                         strcpy@from 0013  
                    _fillRectangle 120C           __end_of_DS1621_Read_Temp 1D40  
                 ?_Activate_Buzzer 0001                      __size_of_main 0314  
          __size_of_Increase_Speed 0024                    fillRectangle@hi 0021  
                  fillRectangle@lo 0022                      _drawFastVLine 15AA  
                        printf@idx 002F                           _spiwrite 1F52  
                        printf@val 0033                        ??_drawPixel 001B  
                         _rowstart 0061           __end_of_DS3231_Read_Time 1954  
               fillCircleHelper@x0 0023                 fillCircleHelper@y0 0025  
     __end_of_Enable_INT_Interrupt 2094                         _INTCONbits 000FF2  
                    _do_update_pwm 13AE                     OpenUSART@spbrg 0011  
                  ?_Decrease_Speed 0001                           isdigit@c 0013  
                ?_fillCircleHelper 0023                          spiwrite@x 0011  
                         intlevel2 0000                     ?_fillRectangle 0018  
               ??_fillCircleHelper 002F                   ___lwmod@dividend 0018  
            __end_of_write_command 2016                    fillScreen@color 0024  
          do_update_pwm@duty_cycle 0041                       fillCircle@x0 003B  
                     fillCircle@y0 003D                     fillRectangle@h 001A  
                   fillRectangle@w 0019                     fillRectangle@x 0023  
                   fillRectangle@y 0018                     ?_drawFastVLine 0018  
                         printf@ap 0030                  fillCircleHelper@f 0035  
                fillCircleHelper@r 0027                  fillCircleHelper@x 0037  
                fillCircleHelper@y 0039                       ??_write_data 0013  
                       _TIMER1_isr 2030                      fillRect@color 0026  
                   ?_do_update_pwm 0001                    ___lwmod@divisor 001A  
                         strcpy@cp 0015                           strlen@cp 0015  
                         strcpy@to 0011              I2C_Write_Cmd_Only@Cmd 0013  
                  ___lwmod@counter 001C                       _setup_minute 0068  
                     _setup_second 006A            __size_of_Init_Interrupt 0018  
           ?_Initialize_LCD_Screen 0001                        fillCircle@r 003F  
            __end_of_setAddrWindow 1AA2                 fillRectangle@color 001B  
                do_update_pwm@dc_I 0042                  do_update_pwm@dc_f 003E  
                    drawChar@color 0030                        _setup_month 0069  
                   Set_RPM_RGB@rpm 001F                 __end_of_write_data 2006  
                     drawChar@line 0035                       drawChar@size 0034  
__size_of_I2C_Write_Cmd_Write_Data 0020               __size_of_DS1621_Init 001E  
        ?_I2C_Write_Cmd_Write_Data 0013  
