

Microchip Technology PIC18 LITE Macro Assembler V1.34 build -361300703 
                                                                                               Thu Oct 02 14:48:33 2025

Microchip Technology Omniscient Code Generator (Lite mode) build 201502162209
     1                           	processor	18F4620
     2                           	fnconf	rparam,??,?,0
     3                           	opt	pw 120
     4                           	opt	lm
     5                           	psect	text0,global,reloc=2,class=CODE,delta=1
     6                           	psect	cinit,global,reloc=2,class=CODE,delta=1
     7                           	psect	cstackCOMRAM,global,class=COMRAM,space=1,delta=1
     8                           	psect	text1,global,reloc=2,class=CODE,delta=1
     9                           	psect	text2,global,reloc=2,class=CODE,delta=1
    10                           	psect	text3,global,reloc=2,class=CODE,delta=1
    11                           	psect	text4,global,reloc=2,class=CODE,delta=1
    12                           	psect	text5,global,reloc=2,class=CODE,delta=1
    13                           	psect	text6,global,reloc=2,class=CODE,delta=1
    14                           	psect	text7,global,reloc=2,class=CODE,delta=1
    15                           	psect	text8,global,reloc=2,class=CODE,delta=1
    16                           	psect	text9,global,reloc=2,class=CODE,delta=1
    17                           	psect	intsave_regs,global,class=BIGRAM,space=1,delta=1
    18                           	psect	rparam,global,class=COMRAM,space=1,delta=1
    19  0000                     _ADCON0	set	4034
    20  0000                     _ADCON1	set	4033
    21  0000                     _ADCON2	set	4032
    22  0000                     _INTCONbits	set	4082
    23  0000                     _OSCCON	set	4051
    24  0000                     _PIE1bits	set	3997
    25  0000                     _PIR1bits	set	3998
    26  0000                     _PORTAbits	set	3968
    27  0000                     _PORTCbits	set	3970
    28  0000                     _PORTDbits	set	3971
    29  0000                     _PORTEbits	set	3972
    30  0000                     _RCSTA	set	4011
    31  0000                     _RCSTAbits	set	4011
    32  0000                     _SPBRG	set	4015
    33  0000                     _SPBRGH	set	4016
    34  0000                     _T0CON	set	4053
    35  0000                     _T0CONbits	set	4053
    36  0000                     _TMR0H	set	4055
    37  0000                     _TMR0L	set	4054
    38  0000                     _TRISA	set	3986
    39  0000                     _TRISB	set	3987
    40  0000                     _TRISC	set	3988
    41  0000                     _TRISCbits	set	3988
    42  0000                     _TRISD	set	3989
    43  0000                     _TRISE	set	3990
    44  0000                     _TXSTA	set	4012
    45  0000                     _TXSTAbits	set	4012
    46                           
    47 ;;
    48 ;;Main: autosize = 0, tempsize = 0, incstack = 0, save=0
    49 ;;
    50 ;; *************** function _main *****************
    51 ;; Defined at:
    52 ;;		line 34 in file "lab6p3.c"
    53 ;; Parameters:    Size  Location     Type
    54 ;;		None
    55 ;; Auto vars:     Size  Location     Type
    56 ;;  i               2    3[COMRAM] int 
    57 ;; Return value:  Size  Location     Type
    58 ;;		None               void
    59 ;; Registers used:
    60 ;;		wreg, status,2, status,0, cstack
    61 ;; Tracked objects:
    62 ;;		On entry : 0/0
    63 ;;		On exit  : 0/0
    64 ;;		Unchanged: 0/0
    65 ;; Data sizes:     COMRAM   BANK0   BANK1   BANK2   BANK3   BANK4   BANK5   BANK6   BANK7   BANK8   BANK9  BANK10  BANK1
      +1  BANK12  BANK13  BANK14  BANK15
    66 ;;      Params:         0       0       0       0       0       0       0       0       0       0       0       0       
      +0       0       0       0       0
    67 ;;      Locals:         2       0       0       0       0       0       0       0       0       0       0       0       
      +0       0       0       0       0
    68 ;;      Temps:          0       0       0       0       0       0       0       0       0       0       0       0       
      +0       0       0       0       0
    69 ;;      Totals:         2       0       0       0       0       0       0       0       0       0       0       0       
      +0       0       0       0       0
    70 ;;Total ram usage:        2 bytes
    71 ;; Hardware stack levels required when called:    2
    72 ;; This function calls:
    73 ;;		_Init_ADC
    74 ;;		_Set_EW
    75 ;;		_Set_EWLT
    76 ;;		_Set_NS
    77 ;;		_Set_NSLT
    78 ;;		_Wait_One_Second
    79 ;;		_init_UART
    80 ;; This function is called by:
    81 ;;		Startup code after reset
    82 ;; This function uses a non-reentrant model
    83 ;;
    84                           
    85                           	psect	text0
    86  00FF30                     __ptext0:
    87                           	opt stack 0
    88  00FF30                     _main:
    89                           	opt stack 29
    90                           
    91                           ;lab6p3.c: 36: TRISA = 0x1F;
    92                           
    93                           ;incstack = 0
    94  00FF30  0E1F               	movlw	31
    95  00FF32  6E92               	movwf	3986,c	;volatile
    96                           
    97                           ;lab6p3.c: 37: TRISB = 0x00;
    98  00FF34  0E00               	movlw	0
    99  00FF36  6E93               	movwf	3987,c	;volatile
   100                           
   101                           ;lab6p3.c: 38: TRISC = 0x00;
   102  00FF38  0E00               	movlw	0
   103  00FF3A  6E94               	movwf	3988,c	;volatile
   104                           
   105                           ;lab6p3.c: 39: TRISD = 0x00;
   106  00FF3C  0E00               	movlw	0
   107  00FF3E  6E95               	movwf	3989,c	;volatile
   108                           
   109                           ;lab6p3.c: 40: TRISE = 0x00;
   110  00FF40  0E00               	movlw	0
   111  00FF42  6E96               	movwf	3990,c	;volatile
   112                           
   113                           ;lab6p3.c: 41: Init_ADC();
   114  00FF44  EC07  F07F         	call	_Init_ADC	;wreg free
   115                           
   116                           ;lab6p3.c: 42: init_UART();
   117  00FF48  EC15  F07F         	call	_init_UART	;wreg free
   118  00FF4C                     l57:
   119                           
   120                           ;lab6p3.c: 44: {
   121                           ;lab6p3.c: 45: int i;
   122                           ;lab6p3.c: 46: for(i=0;i<4;i++)
   123  00FF4C  0E00               	movlw	0
   124  00FF4E  6E05               	movwf	main@i+1,c
   125  00FF50  0E00               	movlw	0
   126  00FF52  6E04               	movwf	main@i,c
   127  00FF54                     l898:
   128  00FF54  BE05               	btfsc	main@i+1,7,c
   129  00FF56  D008               	goto	l902
   130  00FF58  5005               	movf	main@i+1,w,c
   131  00FF5A  E1F8               	bnz	l57
   132  00FF5C  0E04               	movlw	4
   133  00FF5E  5C04               	subwf	main@i,w,c
   134  00FF60  B0D8               	btfsc	status,0,c
   135  00FF62  D7F4               	goto	l57
   136  00FF64  D001               	goto	l902
   137  00FF66  D7F2               	goto	l57
   138  00FF68                     l902:
   139                           
   140                           ;lab6p3.c: 47: {
   141                           ;lab6p3.c: 48: Set_EW(i);
   142  00FF68  5004               	movf	main@i,w,c
   143  00FF6A  EC2C  F07F         	call	_Set_EW
   144                           
   145                           ;lab6p3.c: 49: Set_EWLT(i);
   146  00FF6E  5004               	movf	main@i,w,c
   147  00FF70  EC47  F07F         	call	_Set_EWLT
   148                           
   149                           ;lab6p3.c: 50: Set_NS(i);
   150  00FF74  5004               	movf	main@i,w,c
   151  00FF76  EC62  F07F         	call	_Set_NS
   152                           
   153                           ;lab6p3.c: 51: Set_NSLT(i);
   154  00FF7A  5004               	movf	main@i,w,c
   155  00FF7C  EC7D  F07F         	call	_Set_NSLT
   156                           
   157                           ;lab6p3.c: 52: Wait_One_Second();
   158  00FF80  EC0E  F07F         	call	_Wait_One_Second	;wreg free
   159  00FF84  4A04               	infsnz	main@i,f,c
   160  00FF86  2A05               	incf	main@i+1,f,c
   161  00FF88  D7E5               	goto	l898
   162  00FF8A  D7E0               	goto	l57
   163  00FF8C  EF00  F000         	goto	start
   164  00FF90                     __end_of_main:
   165                           	opt stack 0
   166                           status	equ	0xFD8
   167                           
   168                           	psect	cinit
   169  00FE04                     __pcinit:
   170                           	opt stack 0
   171  00FE04                     start_initialization:
   172                           	opt stack 0
   173  00FE04                     __initialization:
   174                           	opt stack 0
   175  00FE04                     end_of_initialization:
   176                           	opt stack 0
   177  00FE04                     __end_of__initialization:
   178                           	opt stack 0
   179  00FE04  0E00               	movlw	low (__Lmediumconst shr (0+16))
   180  00FE06  6EF8               	movwf	tblptru,c
   181  00FE08  0100               	movlb	0
   182  00FE0A  EF98  F07F         	goto	_main	;jump to C main() function
   183                           tblptru	equ	0xFF8
   184                           status	equ	0xFD8
   185                           
   186                           	psect	cstackCOMRAM
   187  000001                     __pcstackCOMRAM:
   188                           	opt stack 0
   189  000001                     Set_EW@color:
   190                           	opt stack 0
   191  000001                     Set_EWLT@color:
   192                           	opt stack 0
   193  000001                     Set_NS@color:
   194                           	opt stack 0
   195  000001                     Set_NSLT@color:
   196                           	opt stack 0
   197  000001                     OpenUSART@spbrg:
   198                           	opt stack 0
   199                           
   200                           ; 2 bytes @ 0x0
   201  000001                     	ds	2
   202  000003                     OpenUSART@config:
   203                           	opt stack 0
   204                           
   205                           ; 1 bytes @ 0x2
   206  000003                     	ds	1
   207  000004                     main@i:
   208                           	opt stack 0
   209                           
   210                           ; 2 bytes @ 0x3
   211  000004                     	ds	2
   212                           tblptru	equ	0xFF8
   213                           status	equ	0xFD8
   214                           
   215 ;; *************** function _init_UART *****************
   216 ;; Defined at:
   217 ;;		line 62 in file "lab6p3.c"
   218 ;; Parameters:    Size  Location     Type
   219 ;;		None
   220 ;; Auto vars:     Size  Location     Type
   221 ;;		None
   222 ;; Return value:  Size  Location     Type
   223 ;;		None               void
   224 ;; Registers used:
   225 ;;		wreg, status,2, cstack
   226 ;; Tracked objects:
   227 ;;		On entry : 0/0
   228 ;;		On exit  : 0/0
   229 ;;		Unchanged: 0/0
   230 ;; Data sizes:     COMRAM   BANK0   BANK1   BANK2   BANK3   BANK4   BANK5   BANK6   BANK7   BANK8   BANK9  BANK10  BANK1
      +1  BANK12  BANK13  BANK14  BANK15
   231 ;;      Params:         0       0       0       0       0       0       0       0       0       0       0       0       
      +0       0       0       0       0
   232 ;;      Locals:         0       0       0       0       0       0       0       0       0       0       0       0       
      +0       0       0       0       0
   233 ;;      Temps:          0       0       0       0       0       0       0       0       0       0       0       0       
      +0       0       0       0       0
   234 ;;      Totals:         0       0       0       0       0       0       0       0       0       0       0       0       
      +0       0       0       0       0
   235 ;;Total ram usage:        0 bytes
   236 ;; Hardware stack levels used:    1
   237 ;; Hardware stack levels required when called:    1
   238 ;; This function calls:
   239 ;;		_OpenUSART
   240 ;; This function is called by:
   241 ;;		_main
   242 ;; This function uses a non-reentrant model
   243 ;;
   244                           
   245                           	psect	text1
   246  00FE2A                     __ptext1:
   247                           	opt stack 0
   248  00FE2A                     _init_UART:
   249                           	opt stack 29
   250                           
   251                           ;lab6p3.c: 64: OpenUSART (0b01111111 & 0b10111111 &
   252                           ;lab6p3.c: 65: 0b11111110 & 0b11111101 & 0b11111111 &
   253                           ;lab6p3.c: 66: 0b11111111, 25);
   254                           
   255                           ;incstack = 0
   256  00FE2A  0E00               	movlw	0
   257  00FE2C  6E02               	movwf	OpenUSART@spbrg+1,c
   258  00FE2E  0E19               	movlw	25
   259  00FE30  6E01               	movwf	OpenUSART@spbrg,c
   260  00FE32  0E3C               	movlw	60
   261  00FE34  ECC8  F07F         	call	_OpenUSART
   262                           
   263                           ;lab6p3.c: 67: OSCCON = 0x70;
   264  00FE38  0E70               	movlw	112
   265  00FE3A  6ED3               	movwf	4051,c	;volatile
   266  00FE3C  0012               	return		;funcret
   267  00FE3E                     __end_of_init_UART:
   268                           	opt stack 0
   269                           tblptru	equ	0xFF8
   270                           status	equ	0xFD8
   271                           
   272 ;; *************** function _OpenUSART *****************
   273 ;; Defined at:
   274 ;;		line 73 in file "C:\Program Files (x86)\Microchip\xc8\v1.34\sources\pic18\plib\USART\uopen.c"
   275 ;; Parameters:    Size  Location     Type
   276 ;;  config          1    wreg     unsigned char 
   277 ;;  spbrg           2    0[COMRAM] unsigned int 
   278 ;; Auto vars:     Size  Location     Type
   279 ;;  config          1    2[COMRAM] unsigned char 
   280 ;; Return value:  Size  Location     Type
   281 ;;		None               void
   282 ;; Registers used:
   283 ;;		wreg, status,2
   284 ;; Tracked objects:
   285 ;;		On entry : 0/0
   286 ;;		On exit  : 0/0
   287 ;;		Unchanged: 0/0
   288 ;; Data sizes:     COMRAM   BANK0   BANK1   BANK2   BANK3   BANK4   BANK5   BANK6   BANK7   BANK8   BANK9  BANK10  BANK1
      +1  BANK12  BANK13  BANK14  BANK15
   289 ;;      Params:         2       0       0       0       0       0       0       0       0       0       0       0       
      +0       0       0       0       0
   290 ;;      Locals:         1       0       0       0       0       0       0       0       0       0       0       0       
      +0       0       0       0       0
   291 ;;      Temps:          0       0       0       0       0       0       0       0       0       0       0       0       
      +0       0       0       0       0
   292 ;;      Totals:         3       0       0       0       0       0       0       0       0       0       0       0       
      +0       0       0       0       0
   293 ;;Total ram usage:        3 bytes
   294 ;; Hardware stack levels used:    1
   295 ;; This function calls:
   296 ;;		Nothing
   297 ;; This function is called by:
   298 ;;		_init_UART
   299 ;; This function uses a non-reentrant model
   300 ;;
   301                           
   302                           	psect	text2
   303  00FF90                     __ptext2:
   304                           	opt stack 0
   305  00FF90                     _OpenUSART:
   306                           	opt stack 29
   307                           
   308                           ;incstack = 0
   309                           ;OpenUSART@config stored from wreg
   310  00FF90  6E03               	movwf	OpenUSART@config,c
   311  00FF92  0E00               	movlw	0
   312  00FF94  6EAC               	movwf	4012,c	;volatile
   313  00FF96  0E00               	movlw	0
   314  00FF98  6EAB               	movwf	4011,c	;volatile
   315  00FF9A  A003               	btfss	OpenUSART@config,0,c
   316  00FF9C  D002               	goto	l844
   317  00FF9E  88AC               	bsf	4012,4,c	;volatile
   318  00FFA0  D000               	goto	l844
   319  00FFA2                     l844:
   320  00FFA2  A203               	btfss	OpenUSART@config,1,c
   321  00FFA4  D003               	goto	l848
   322  00FFA6  8CAC               	bsf	4012,6,c	;volatile
   323  00FFA8  8CAB               	bsf	4011,6,c	;volatile
   324  00FFAA  D000               	goto	l848
   325  00FFAC                     l848:
   326  00FFAC  A403               	btfss	OpenUSART@config,2,c
   327  00FFAE  D002               	goto	l852
   328  00FFB0  8EAC               	bsf	4012,7,c	;volatile
   329  00FFB2  D000               	goto	l852
   330  00FFB4                     l852:
   331  00FFB4  A603               	btfss	OpenUSART@config,3,c
   332  00FFB6  D002               	goto	l137
   333  00FFB8  88AB               	bsf	4011,4,c	;volatile
   334  00FFBA  D002               	goto	l856
   335  00FFBC                     l137:
   336  00FFBC  8AAB               	bsf	4011,5,c	;volatile
   337  00FFBE  D000               	goto	l856
   338  00FFC0                     l856:
   339  00FFC0  B803               	btfsc	OpenUSART@config,4,c
   340  00FFC2  84AC               	bsf	4012,2,c	;volatile
   341  00FFC4  989E               	bcf	3998,4,c	;volatile
   342  00FFC6  AA03               	btfss	OpenUSART@config,5,c
   343  00FFC8  D002               	goto	l864
   344  00FFCA  86AB               	bsf	4011,3,c	;volatile
   345  00FFCC  D000               	goto	l864
   346  00FFCE                     l864:
   347  00FFCE  AC03               	btfss	OpenUSART@config,6,c
   348  00FFD0  D002               	goto	l141
   349  00FFD2  8A9D               	bsf	3997,5,c	;volatile
   350  00FFD4  D001               	goto	l142
   351  00FFD6                     l141:
   352  00FFD6  9A9D               	bcf	3997,5,c	;volatile
   353  00FFD8                     l142:
   354  00FFD8  9A9E               	bcf	3998,5,c	;volatile
   355  00FFDA  AE03               	btfss	OpenUSART@config,7,c
   356  00FFDC  D002               	goto	l143
   357  00FFDE  889D               	bsf	3997,4,c	;volatile
   358  00FFE0  D001               	goto	l144
   359  00FFE2                     l143:
   360  00FFE2  989D               	bcf	3997,4,c	;volatile
   361  00FFE4                     l144:
   362  00FFE4  C001  FFAF         	movff	OpenUSART@spbrg,4015	;volatile
   363  00FFE8  5002               	movf	OpenUSART@spbrg+1,w,c
   364  00FFEA  6EB0               	movwf	4016,c	;volatile
   365  00FFEC  8AAC               	bsf	4012,5,c	;volatile
   366  00FFEE  8EAB               	bsf	4011,7,c	;volatile
   367  00FFF0  9C94               	bcf	3988,6,c	;volatile
   368  00FFF2  8E94               	bsf	3988,7,c	;volatile
   369  00FFF4  B8AC               	btfsc	4012,4,c	;volatile
   370  00FFF6  BEAC               	btfsc	4012,7,c	;volatile
   371  00FFF8  D002               	goto	l146
   372  00FFFA  8C94               	bsf	3988,6,c	;volatile
   373  00FFFC  D000               	goto	l146
   374  00FFFE                     l146:
   375  00FFFE  0012               	return		;funcret
   376  010000                     __end_of_OpenUSART:
   377                           	opt stack 0
   378                           tblptru	equ	0xFF8
   379                           status	equ	0xFD8
   380                           
   381 ;; *************** function _Wait_One_Second *****************
   382 ;; Defined at:
   383 ;;		line 113 in file "lab6p3.c"
   384 ;; Parameters:    Size  Location     Type
   385 ;;		None
   386 ;; Auto vars:     Size  Location     Type
   387 ;;		None
   388 ;; Return value:  Size  Location     Type
   389 ;;		None               void
   390 ;; Registers used:
   391 ;;		wreg, status,2, cstack
   392 ;; Tracked objects:
   393 ;;		On entry : 0/0
   394 ;;		On exit  : 0/0
   395 ;;		Unchanged: 0/0
   396 ;; Data sizes:     COMRAM   BANK0   BANK1   BANK2   BANK3   BANK4   BANK5   BANK6   BANK7   BANK8   BANK9  BANK10  BANK1
      +1  BANK12  BANK13  BANK14  BANK15
   397 ;;      Params:         0       0       0       0       0       0       0       0       0       0       0       0       
      +0       0       0       0       0
   398 ;;      Locals:         0       0       0       0       0       0       0       0       0       0       0       0       
      +0       0       0       0       0
   399 ;;      Temps:          0       0       0       0       0       0       0       0       0       0       0       0       
      +0       0       0       0       0
   400 ;;      Totals:         0       0       0       0       0       0       0       0       0       0       0       0       
      +0       0       0       0       0
   401 ;;Total ram usage:        0 bytes
   402 ;; Hardware stack levels used:    1
   403 ;; Hardware stack levels required when called:    1
   404 ;; This function calls:
   405 ;;		_Wait_Half_Second
   406 ;; This function is called by:
   407 ;;		_main
   408 ;; This function uses a non-reentrant model
   409 ;;
   410                           
   411                           	psect	text3
   412  00FE1C                     __ptext3:
   413                           	opt stack 0
   414  00FE1C                     _Wait_One_Second:
   415                           	opt stack 29
   416                           
   417                           ;lab6p3.c: 115: PORTDbits.RD7 =1;
   418                           
   419                           ;incstack = 0
   420  00FE1C  8E83               	bsf	3971,7,c	;volatile
   421                           
   422                           ;lab6p3.c: 116: Wait_Half_Second();
   423  00FE1E  EC1F  F07F         	call	_Wait_Half_Second	;wreg free
   424                           
   425                           ;lab6p3.c: 117: PORTDbits.RD7 = 0;
   426  00FE22  9E83               	bcf	3971,7,c	;volatile
   427                           
   428                           ;lab6p3.c: 118: Wait_Half_Second();
   429  00FE24  EC1F  F07F         	call	_Wait_Half_Second	;wreg free
   430  00FE28  0012               	return		;funcret
   431  00FE2A                     __end_of_Wait_One_Second:
   432                           	opt stack 0
   433                           tblptru	equ	0xFF8
   434                           status	equ	0xFD8
   435                           
   436 ;; *************** function _Wait_Half_Second *****************
   437 ;; Defined at:
   438 ;;		line 121 in file "lab6p3.c"
   439 ;; Parameters:    Size  Location     Type
   440 ;;		None
   441 ;; Auto vars:     Size  Location     Type
   442 ;;		None
   443 ;; Return value:  Size  Location     Type
   444 ;;		None               void
   445 ;; Registers used:
   446 ;;		wreg, status,2
   447 ;; Tracked objects:
   448 ;;		On entry : 0/0
   449 ;;		On exit  : 0/0
   450 ;;		Unchanged: 0/0
   451 ;; Data sizes:     COMRAM   BANK0   BANK1   BANK2   BANK3   BANK4   BANK5   BANK6   BANK7   BANK8   BANK9  BANK10  BANK1
      +1  BANK12  BANK13  BANK14  BANK15
   452 ;;      Params:         0       0       0       0       0       0       0       0       0       0       0       0       
      +0       0       0       0       0
   453 ;;      Locals:         0       0       0       0       0       0       0       0       0       0       0       0       
      +0       0       0       0       0
   454 ;;      Temps:          0       0       0       0       0       0       0       0       0       0       0       0       
      +0       0       0       0       0
   455 ;;      Totals:         0       0       0       0       0       0       0       0       0       0       0       0       
      +0       0       0       0       0
   456 ;;Total ram usage:        0 bytes
   457 ;; Hardware stack levels used:    1
   458 ;; This function calls:
   459 ;;		Nothing
   460 ;; This function is called by:
   461 ;;		_Wait_One_Second
   462 ;; This function uses a non-reentrant model
   463 ;;
   464                           
   465                           	psect	text4
   466  00FE3E                     __ptext4:
   467                           	opt stack 0
   468  00FE3E                     _Wait_Half_Second:
   469                           	opt stack 29
   470                           
   471                           ;lab6p3.c: 123: T0CON = 0x03;
   472                           
   473                           ;incstack = 0
   474  00FE3E  0E03               	movlw	3
   475  00FE40  6ED5               	movwf	4053,c	;volatile
   476                           
   477                           ;lab6p3.c: 124: TMR0L = 0x01;
   478  00FE42  0E01               	movlw	1
   479  00FE44  6ED6               	movwf	4054,c	;volatile
   480                           
   481                           ;lab6p3.c: 125: TMR0H = 0x0A;
   482  00FE46  0E0A               	movlw	10
   483  00FE48  6ED7               	movwf	4055,c	;volatile
   484                           
   485                           ;lab6p3.c: 126: INTCONbits.TMR0IF = 0;
   486  00FE4A  94F2               	bcf	intcon,2,c	;volatile
   487                           
   488                           ;lab6p3.c: 127: T0CONbits.TMR0ON = 1;
   489  00FE4C  8ED5               	bsf	4053,7,c	;volatile
   490                           
   491                           ;lab6p3.c: 129: while(INTCONbits.TMR0IF == 0);
   492  00FE4E  D000               	goto	l110
   493  00FE50                     l110:
   494  00FE50  A4F2               	btfss	intcon,2,c	;volatile
   495  00FE52  D7FE               	goto	l110
   496                           
   497                           ;lab6p3.c: 130: T0CONbits.TMR0ON =0;
   498  00FE54  9ED5               	bcf	4053,7,c	;volatile
   499  00FE56  0012               	return		;funcret
   500  00FE58                     __end_of_Wait_Half_Second:
   501                           	opt stack 0
   502                           tblptru	equ	0xFF8
   503                           intcon	equ	0xFF2
   504                           status	equ	0xFD8
   505                           
   506 ;; *************** function _Set_NSLT *****************
   507 ;; Defined at:
   508 ;;		line 102 in file "lab6p3.c"
   509 ;; Parameters:    Size  Location     Type
   510 ;;  color           1    wreg     unsigned char 
   511 ;; Auto vars:     Size  Location     Type
   512 ;;  color           1    0[COMRAM] unsigned char 
   513 ;; Return value:  Size  Location     Type
   514 ;;		None               void
   515 ;; Registers used:
   516 ;;		wreg, status,2, status,0
   517 ;; Tracked objects:
   518 ;;		On entry : 0/0
   519 ;;		On exit  : 0/0
   520 ;;		Unchanged: 0/0
   521 ;; Data sizes:     COMRAM   BANK0   BANK1   BANK2   BANK3   BANK4   BANK5   BANK6   BANK7   BANK8   BANK9  BANK10  BANK1
      +1  BANK12  BANK13  BANK14  BANK15
   522 ;;      Params:         0       0       0       0       0       0       0       0       0       0       0       0       
      +0       0       0       0       0
   523 ;;      Locals:         1       0       0       0       0       0       0       0       0       0       0       0       
      +0       0       0       0       0
   524 ;;      Temps:          0       0       0       0       0       0       0       0       0       0       0       0       
      +0       0       0       0       0
   525 ;;      Totals:         1       0       0       0       0       0       0       0       0       0       0       0       
      +0       0       0       0       0
   526 ;;Total ram usage:        1 bytes
   527 ;; Hardware stack levels used:    1
   528 ;; This function calls:
   529 ;;		Nothing
   530 ;; This function is called by:
   531 ;;		_main
   532 ;; This function uses a non-reentrant model
   533 ;;
   534                           
   535                           	psect	text5
   536  00FEFA                     __ptext5:
   537                           	opt stack 0
   538  00FEFA                     _Set_NSLT:
   539                           	opt stack 30
   540                           
   541                           ;incstack = 0
   542                           ;Set_NSLT@color stored from wreg
   543  00FEFA  6E01               	movwf	Set_NSLT@color,c
   544                           
   545                           ;lab6p3.c: 104: switch(color)
   546  00FEFC  D00A               	goto	l812
   547  00FEFE                     l99:
   548  00FEFE  9084               	bcf	3972,0,c	;volatile
   549  00FF00  D001               	goto	L1
   550  00FF02                     l101:
   551  00FF02  8084               	bsf	3972,0,c	;volatile
   552  00FF04                     L1:
   553  00FF04  9284               	bcf	3972,1,c	;volatile
   554  00FF06  D013               	goto	l104
   555  00FF08                     l102:
   556  00FF08  9084               	bcf	3972,0,c	;volatile
   557  00FF0A  D001               	goto	L2
   558  00FF0C                     l103:
   559  00FF0C  8084               	bsf	3972,0,c	;volatile
   560  00FF0E                     L2:
   561  00FF0E  8284               	bsf	3972,1,c	;volatile
   562                           
   563                           ;lab6p3.c: 110: }
   564  00FF10  D00E               	goto	l104
   565  00FF12                     l812:
   566  00FF12  5001               	movf	Set_NSLT@color,w,c
   567                           
   568                           ; Switch size 1, requested type "space"
   569                           ; Number of cases is 4, Range of values is 0 to 3
   570                           ; switch strategies available:
   571                           ; Name         Instructions Cycles
   572                           ; simple_byte           13     7 (average)
   573                           ;	Chosen strategy is simple_byte
   574  00FF14  0A00               	xorlw	0	; case 0
   575  00FF16  B4D8               	btfsc	status,2,c
   576  00FF18  D7F2               	goto	l99
   577  00FF1A  0A01               	xorlw	1	; case 1
   578  00FF1C  B4D8               	btfsc	status,2,c
   579  00FF1E  D7F1               	goto	l101
   580  00FF20  0A03               	xorlw	3	; case 2
   581  00FF22  B4D8               	btfsc	status,2,c
   582  00FF24  D7F1               	goto	l102
   583  00FF26  0A01               	xorlw	1	; case 3
   584  00FF28  B4D8               	btfsc	status,2,c
   585  00FF2A  D7F0               	goto	l103
   586  00FF2C  D000               	goto	l104
   587  00FF2E                     l104:
   588  00FF2E  0012               	return		;funcret
   589  00FF30                     __end_of_Set_NSLT:
   590                           	opt stack 0
   591                           tblptru	equ	0xFF8
   592                           intcon	equ	0xFF2
   593                           status	equ	0xFD8
   594                           
   595 ;; *************** function _Set_NS *****************
   596 ;; Defined at:
   597 ;;		line 91 in file "lab6p3.c"
   598 ;; Parameters:    Size  Location     Type
   599 ;;  color           1    wreg     unsigned char 
   600 ;; Auto vars:     Size  Location     Type
   601 ;;  color           1    0[COMRAM] unsigned char 
   602 ;; Return value:  Size  Location     Type
   603 ;;		None               void
   604 ;; Registers used:
   605 ;;		wreg, status,2, status,0
   606 ;; Tracked objects:
   607 ;;		On entry : 0/0
   608 ;;		On exit  : 0/0
   609 ;;		Unchanged: 0/0
   610 ;; Data sizes:     COMRAM   BANK0   BANK1   BANK2   BANK3   BANK4   BANK5   BANK6   BANK7   BANK8   BANK9  BANK10  BANK1
      +1  BANK12  BANK13  BANK14  BANK15
   611 ;;      Params:         0       0       0       0       0       0       0       0       0       0       0       0       
      +0       0       0       0       0
   612 ;;      Locals:         1       0       0       0       0       0       0       0       0       0       0       0       
      +0       0       0       0       0
   613 ;;      Temps:          0       0       0       0       0       0       0       0       0       0       0       0       
      +0       0       0       0       0
   614 ;;      Totals:         1       0       0       0       0       0       0       0       0       0       0       0       
      +0       0       0       0       0
   615 ;;Total ram usage:        1 bytes
   616 ;; Hardware stack levels used:    1
   617 ;; This function calls:
   618 ;;		Nothing
   619 ;; This function is called by:
   620 ;;		_main
   621 ;; This function uses a non-reentrant model
   622 ;;
   623                           
   624                           	psect	text6
   625  00FEC4                     __ptext6:
   626                           	opt stack 0
   627  00FEC4                     _Set_NS:
   628                           	opt stack 30
   629                           
   630                           ;incstack = 0
   631                           ;Set_NS@color stored from wreg
   632  00FEC4  6E01               	movwf	Set_NS@color,c
   633                           
   634                           ;lab6p3.c: 93: switch(color)
   635  00FEC6  D00A               	goto	l806
   636  00FEC8                     l90:
   637  00FEC8  9882               	bcf	3970,4,c	;volatile
   638  00FECA  D001               	goto	L3
   639  00FECC                     l92:
   640  00FECC  8882               	bsf	3970,4,c	;volatile
   641  00FECE                     L3:
   642  00FECE  9A82               	bcf	3970,5,c	;volatile
   643  00FED0  D013               	goto	l95
   644  00FED2                     l93:
   645  00FED2  9882               	bcf	3970,4,c	;volatile
   646  00FED4  D001               	goto	L4
   647  00FED6                     l94:
   648  00FED6  8882               	bsf	3970,4,c	;volatile
   649  00FED8                     L4:
   650  00FED8  8A82               	bsf	3970,5,c	;volatile
   651                           
   652                           ;lab6p3.c: 99: }
   653  00FEDA  D00E               	goto	l95
   654  00FEDC                     l806:
   655  00FEDC  5001               	movf	Set_NS@color,w,c
   656                           
   657                           ; Switch size 1, requested type "space"
   658                           ; Number of cases is 4, Range of values is 0 to 3
   659                           ; switch strategies available:
   660                           ; Name         Instructions Cycles
   661                           ; simple_byte           13     7 (average)
   662                           ;	Chosen strategy is simple_byte
   663  00FEDE  0A00               	xorlw	0	; case 0
   664  00FEE0  B4D8               	btfsc	status,2,c
   665  00FEE2  D7F2               	goto	l90
   666  00FEE4  0A01               	xorlw	1	; case 1
   667  00FEE6  B4D8               	btfsc	status,2,c
   668  00FEE8  D7F1               	goto	l92
   669  00FEEA  0A03               	xorlw	3	; case 2
   670  00FEEC  B4D8               	btfsc	status,2,c
   671  00FEEE  D7F1               	goto	l93
   672  00FEF0  0A01               	xorlw	1	; case 3
   673  00FEF2  B4D8               	btfsc	status,2,c
   674  00FEF4  D7F0               	goto	l94
   675  00FEF6  D000               	goto	l95
   676  00FEF8                     l95:
   677  00FEF8  0012               	return		;funcret
   678  00FEFA                     __end_of_Set_NS:
   679                           	opt stack 0
   680                           tblptru	equ	0xFF8
   681                           intcon	equ	0xFF2
   682                           status	equ	0xFD8
   683                           
   684 ;; *************** function _Set_EWLT *****************
   685 ;; Defined at:
   686 ;;		line 80 in file "lab6p3.c"
   687 ;; Parameters:    Size  Location     Type
   688 ;;  color           1    wreg     unsigned char 
   689 ;; Auto vars:     Size  Location     Type
   690 ;;  color           1    0[COMRAM] unsigned char 
   691 ;; Return value:  Size  Location     Type
   692 ;;		None               void
   693 ;; Registers used:
   694 ;;		wreg, status,2, status,0
   695 ;; Tracked objects:
   696 ;;		On entry : 0/0
   697 ;;		On exit  : 0/0
   698 ;;		Unchanged: 0/0
   699 ;; Data sizes:     COMRAM   BANK0   BANK1   BANK2   BANK3   BANK4   BANK5   BANK6   BANK7   BANK8   BANK9  BANK10  BANK1
      +1  BANK12  BANK13  BANK14  BANK15
   700 ;;      Params:         0       0       0       0       0       0       0       0       0       0       0       0       
      +0       0       0       0       0
   701 ;;      Locals:         1       0       0       0       0       0       0       0       0       0       0       0       
      +0       0       0       0       0
   702 ;;      Temps:          0       0       0       0       0       0       0       0       0       0       0       0       
      +0       0       0       0       0
   703 ;;      Totals:         1       0       0       0       0       0       0       0       0       0       0       0       
      +0       0       0       0       0
   704 ;;Total ram usage:        1 bytes
   705 ;; Hardware stack levels used:    1
   706 ;; This function calls:
   707 ;;		Nothing
   708 ;; This function is called by:
   709 ;;		_main
   710 ;; This function uses a non-reentrant model
   711 ;;
   712                           
   713                           	psect	text7
   714  00FE8E                     __ptext7:
   715                           	opt stack 0
   716  00FE8E                     _Set_EWLT:
   717                           	opt stack 30
   718                           
   719                           ;incstack = 0
   720                           ;Set_EWLT@color stored from wreg
   721  00FE8E  6E01               	movwf	Set_EWLT@color,c
   722                           
   723                           ;lab6p3.c: 82: switch(color)
   724  00FE90  D00A               	goto	l800
   725  00FE92                     l81:
   726  00FE92  9482               	bcf	3970,2,c	;volatile
   727  00FE94  D001               	goto	L5
   728  00FE96                     l83:
   729  00FE96  8482               	bsf	3970,2,c	;volatile
   730  00FE98                     L5:
   731  00FE98  9682               	bcf	3970,3,c	;volatile
   732  00FE9A  D013               	goto	l86
   733  00FE9C                     l84:
   734  00FE9C  9482               	bcf	3970,2,c	;volatile
   735  00FE9E  D001               	goto	L6
   736  00FEA0                     l85:
   737  00FEA0  8482               	bsf	3970,2,c	;volatile
   738  00FEA2                     L6:
   739  00FEA2  8682               	bsf	3970,3,c	;volatile
   740                           
   741                           ;lab6p3.c: 88: }
   742  00FEA4  D00E               	goto	l86
   743  00FEA6                     l800:
   744  00FEA6  5001               	movf	Set_EWLT@color,w,c
   745                           
   746                           ; Switch size 1, requested type "space"
   747                           ; Number of cases is 4, Range of values is 0 to 3
   748                           ; switch strategies available:
   749                           ; Name         Instructions Cycles
   750                           ; simple_byte           13     7 (average)
   751                           ;	Chosen strategy is simple_byte
   752  00FEA8  0A00               	xorlw	0	; case 0
   753  00FEAA  B4D8               	btfsc	status,2,c
   754  00FEAC  D7F2               	goto	l81
   755  00FEAE  0A01               	xorlw	1	; case 1
   756  00FEB0  B4D8               	btfsc	status,2,c
   757  00FEB2  D7F1               	goto	l83
   758  00FEB4  0A03               	xorlw	3	; case 2
   759  00FEB6  B4D8               	btfsc	status,2,c
   760  00FEB8  D7F1               	goto	l84
   761  00FEBA  0A01               	xorlw	1	; case 3
   762  00FEBC  B4D8               	btfsc	status,2,c
   763  00FEBE  D7F0               	goto	l85
   764  00FEC0  D000               	goto	l86
   765  00FEC2                     l86:
   766  00FEC2  0012               	return		;funcret
   767  00FEC4                     __end_of_Set_EWLT:
   768                           	opt stack 0
   769                           tblptru	equ	0xFF8
   770                           intcon	equ	0xFF2
   771                           status	equ	0xFD8
   772                           
   773 ;; *************** function _Set_EW *****************
   774 ;; Defined at:
   775 ;;		line 69 in file "lab6p3.c"
   776 ;; Parameters:    Size  Location     Type
   777 ;;  color           1    wreg     unsigned char 
   778 ;; Auto vars:     Size  Location     Type
   779 ;;  color           1    0[COMRAM] unsigned char 
   780 ;; Return value:  Size  Location     Type
   781 ;;		None               void
   782 ;; Registers used:
   783 ;;		wreg, status,2, status,0
   784 ;; Tracked objects:
   785 ;;		On entry : 0/0
   786 ;;		On exit  : 0/0
   787 ;;		Unchanged: 0/0
   788 ;; Data sizes:     COMRAM   BANK0   BANK1   BANK2   BANK3   BANK4   BANK5   BANK6   BANK7   BANK8   BANK9  BANK10  BANK1
      +1  BANK12  BANK13  BANK14  BANK15
   789 ;;      Params:         0       0       0       0       0       0       0       0       0       0       0       0       
      +0       0       0       0       0
   790 ;;      Locals:         1       0       0       0       0       0       0       0       0       0       0       0       
      +0       0       0       0       0
   791 ;;      Temps:          0       0       0       0       0       0       0       0       0       0       0       0       
      +0       0       0       0       0
   792 ;;      Totals:         1       0       0       0       0       0       0       0       0       0       0       0       
      +0       0       0       0       0
   793 ;;Total ram usage:        1 bytes
   794 ;; Hardware stack levels used:    1
   795 ;; This function calls:
   796 ;;		Nothing
   797 ;; This function is called by:
   798 ;;		_main
   799 ;; This function uses a non-reentrant model
   800 ;;
   801                           
   802                           	psect	text8
   803  00FE58                     __ptext8:
   804                           	opt stack 0
   805  00FE58                     _Set_EW:
   806                           	opt stack 30
   807                           
   808                           ;incstack = 0
   809                           ;Set_EW@color stored from wreg
   810  00FE58  6E01               	movwf	Set_EW@color,c
   811                           
   812                           ;lab6p3.c: 71: switch(color)
   813  00FE5A  D00A               	goto	l794
   814  00FE5C                     l72:
   815  00FE5C  9A80               	bcf	3968,5,c	;volatile
   816  00FE5E  D001               	goto	L7
   817  00FE60                     l74:
   818  00FE60  8A80               	bsf	3968,5,c	;volatile
   819  00FE62                     L7:
   820  00FE62  9082               	bcf	3970,0,c	;volatile
   821  00FE64  D013               	goto	l77
   822  00FE66                     l75:
   823  00FE66  9A80               	bcf	3968,5,c	;volatile
   824  00FE68  D001               	goto	L8
   825  00FE6A                     l76:
   826  00FE6A  8A80               	bsf	3968,5,c	;volatile
   827  00FE6C                     L8:
   828  00FE6C  8082               	bsf	3970,0,c	;volatile
   829                           
   830                           ;lab6p3.c: 77: }
   831  00FE6E  D00E               	goto	l77
   832  00FE70                     l794:
   833  00FE70  5001               	movf	Set_EW@color,w,c
   834                           
   835                           ; Switch size 1, requested type "space"
   836                           ; Number of cases is 4, Range of values is 0 to 3
   837                           ; switch strategies available:
   838                           ; Name         Instructions Cycles
   839                           ; simple_byte           13     7 (average)
   840                           ;	Chosen strategy is simple_byte
   841  00FE72  0A00               	xorlw	0	; case 0
   842  00FE74  B4D8               	btfsc	status,2,c
   843  00FE76  D7F2               	goto	l72
   844  00FE78  0A01               	xorlw	1	; case 1
   845  00FE7A  B4D8               	btfsc	status,2,c
   846  00FE7C  D7F1               	goto	l74
   847  00FE7E  0A03               	xorlw	3	; case 2
   848  00FE80  B4D8               	btfsc	status,2,c
   849  00FE82  D7F1               	goto	l75
   850  00FE84  0A01               	xorlw	1	; case 3
   851  00FE86  B4D8               	btfsc	status,2,c
   852  00FE88  D7F0               	goto	l76
   853  00FE8A  D000               	goto	l77
   854  00FE8C                     l77:
   855  00FE8C  0012               	return		;funcret
   856  00FE8E                     __end_of_Set_EW:
   857                           	opt stack 0
   858                           tblptru	equ	0xFF8
   859                           intcon	equ	0xFF2
   860                           status	equ	0xFD8
   861                           
   862 ;; *************** function _Init_ADC *****************
   863 ;; Defined at:
   864 ;;		line 56 in file "lab6p3.c"
   865 ;; Parameters:    Size  Location     Type
   866 ;;		None
   867 ;; Auto vars:     Size  Location     Type
   868 ;;		None
   869 ;; Return value:  Size  Location     Type
   870 ;;		None               void
   871 ;; Registers used:
   872 ;;		wreg, status,2
   873 ;; Tracked objects:
   874 ;;		On entry : 0/0
   875 ;;		On exit  : 0/0
   876 ;;		Unchanged: 0/0
   877 ;; Data sizes:     COMRAM   BANK0   BANK1   BANK2   BANK3   BANK4   BANK5   BANK6   BANK7   BANK8   BANK9  BANK10  BANK1
      +1  BANK12  BANK13  BANK14  BANK15
   878 ;;      Params:         0       0       0       0       0       0       0       0       0       0       0       0       
      +0       0       0       0       0
   879 ;;      Locals:         0       0       0       0       0       0       0       0       0       0       0       0       
      +0       0       0       0       0
   880 ;;      Temps:          0       0       0       0       0       0       0       0       0       0       0       0       
      +0       0       0       0       0
   881 ;;      Totals:         0       0       0       0       0       0       0       0       0       0       0       0       
      +0       0       0       0       0
   882 ;;Total ram usage:        0 bytes
   883 ;; Hardware stack levels used:    1
   884 ;; This function calls:
   885 ;;		Nothing
   886 ;; This function is called by:
   887 ;;		_main
   888 ;; This function uses a non-reentrant model
   889 ;;
   890                           
   891                           	psect	text9
   892  00FE0E                     __ptext9:
   893                           	opt stack 0
   894  00FE0E                     _Init_ADC:
   895                           	opt stack 30
   896                           
   897                           ;lab6p3.c: 58: ADCON0 = 0x01;
   898                           
   899                           ;incstack = 0
   900  00FE0E  0E01               	movlw	1
   901  00FE10  6EC2               	movwf	4034,c	;volatile
   902                           
   903                           ;lab6p3.c: 59: ADCON1 = 0x0E;
   904  00FE12  0E0E               	movlw	14
   905  00FE14  6EC1               	movwf	4033,c	;volatile
   906                           
   907                           ;lab6p3.c: 60: ADCON2 = 0xA9;
   908  00FE16  0EA9               	movlw	169
   909  00FE18  6EC0               	movwf	4032,c	;volatile
   910  00FE1A  0012               	return		;funcret
   911  00FE1C                     __end_of_Init_ADC:
   912                           	opt stack 0
   913  0000                     tblptru	equ	0xFF8
   914                           intcon	equ	0xFF2
   915                           status	equ	0xFD8
   916                           tblptru	equ	0xFF8
   917                           intcon	equ	0xFF2
   918                           status	equ	0xFD8
   919                           
   920                           	psect	rparam
   921  0000                     tblptru	equ	0xFF8
   922                           intcon	equ	0xFF2
   923                           status	equ	0xFD8


Data Sizes:
    Strings     0
    Constant    0
    Data        0
    BSS         0
    Persistent  0
    Stack       0

Auto Spaces:
    Space          Size  Autos    Used
    COMRAM          127      5       5
    BANK0           128      0       0
    BANK1           256      0       0
    BANK2           256      0       0
    BANK3           256      0       0
    BANK4           256      0       0
    BANK5           256      0       0
    BANK6           256      0       0
    BANK7           256      0       0
    BANK8           256      0       0
    BANK9           256      0       0
    BANK10          256      0       0
    BANK11          256      0       0
    BANK12          256      0       0
    BANK13          256      0       0
    BANK14          256      0       0
    BANK15          128      0       0

Pointer List with Targets:

    None.

Critical Paths under _main in COMRAM

    _init_UART->_OpenUSART

Critical Paths under _main in BANK0

    None.

Critical Paths under _main in BANK1

    None.

Critical Paths under _main in BANK2

    None.

Critical Paths under _main in BANK3

    None.

Critical Paths under _main in BANK4

    None.

Critical Paths under _main in BANK5

    None.

Critical Paths under _main in BANK6

    None.

Critical Paths under _main in BANK7

    None.

Critical Paths under _main in BANK8

    None.

Critical Paths under _main in BANK9

    None.

Critical Paths under _main in BANK10

    None.

Critical Paths under _main in BANK11

    None.

Critical Paths under _main in BANK12

    None.

Critical Paths under _main in BANK13

    None.

Critical Paths under _main in BANK14

    None.

Critical Paths under _main in BANK15

    None.

Call Graph Tables:

 ---------------------------------------------------------------------------------
 (Depth) Function   	        Calls       Base Space   Used Autos Params    Refs
 ---------------------------------------------------------------------------------
 (0) _main                                                 2     2      0     457
                                              3 COMRAM     2     2      0
                           _Init_ADC
                             _Set_EW
                           _Set_EWLT
                             _Set_NS
                           _Set_NSLT
                    _Wait_One_Second
                          _init_UART
 ---------------------------------------------------------------------------------
 (1) _init_UART                                            0     0      0     263
                          _OpenUSART
 ---------------------------------------------------------------------------------
 (2) _OpenUSART                                            3     1      2     263
                                              0 COMRAM     3     1      2
 ---------------------------------------------------------------------------------
 (1) _Wait_One_Second                                      0     0      0       0
                   _Wait_Half_Second
 ---------------------------------------------------------------------------------
 (2) _Wait_Half_Second                                     0     0      0       0
 ---------------------------------------------------------------------------------
 (1) _Set_NSLT                                             1     1      0      15
                                              0 COMRAM     1     1      0
 ---------------------------------------------------------------------------------
 (1) _Set_NS                                               1     1      0      15
                                              0 COMRAM     1     1      0
 ---------------------------------------------------------------------------------
 (1) _Set_EWLT                                             1     1      0      15
                                              0 COMRAM     1     1      0
 ---------------------------------------------------------------------------------
 (1) _Set_EW                                               1     1      0      15
                                              0 COMRAM     1     1      0
 ---------------------------------------------------------------------------------
 (1) _Init_ADC                                             0     0      0       0
 ---------------------------------------------------------------------------------
 Estimated maximum stack depth 2
 ---------------------------------------------------------------------------------

 Call Graph Graphs:

 _main (ROOT)
   _Init_ADC
   _Set_EW
   _Set_EWLT
   _Set_NS
   _Set_NSLT
   _Wait_One_Second
     _Wait_Half_Second
   _init_UART
     _OpenUSART

 Address spaces:
Name               Size   Autos  Total    Cost      Usage
BITCOMRAM           7F      0       0       0        0.0%
EEDATA             400      0       0       0        0.0%
NULL                 0      0       0       0        0.0%
CODE                 0      0       0       0        0.0%
COMRAM              7F      5       5       1        3.9%
STACK                0      0       0       2        0.0%
DATA                 0      0       0       3        0.0%
BITBANK0            80      0       0       4        0.0%
BANK0               80      0       0       5        0.0%
BITBANK1           100      0       0       6        0.0%
BANK1              100      0       0       7        0.0%
BITBANK2           100      0       0       8        0.0%
BANK2              100      0       0       9        0.0%
BITBANK3           100      0       0      10        0.0%
BANK3              100      0       0      11        0.0%
BITBANK4           100      0       0      12        0.0%
BANK4              100      0       0      13        0.0%
BITBANK5           100      0       0      14        0.0%
BANK5              100      0       0      15        0.0%
BITBANK6           100      0       0      16        0.0%
BANK6              100      0       0      17        0.0%
BITBANK7           100      0       0      18        0.0%
BANK7              100      0       0      19        0.0%
BITBANK8           100      0       0      20        0.0%
BANK8              100      0       0      21        0.0%
BITBANK9           100      0       0      22        0.0%
BANK9              100      0       0      23        0.0%
BITBANK10          100      0       0      24        0.0%
BANK10             100      0       0      25        0.0%
BITBANK11          100      0       0      26        0.0%
BANK11             100      0       0      27        0.0%
BITBANK12          100      0       0      28        0.0%
BANK12             100      0       0      29        0.0%
BITBANK13          100      0       0      30        0.0%
BANK13             100      0       0      31        0.0%
BITBANK14          100      0       0      32        0.0%
BANK14             100      0       0      33        0.0%
ABS                  0      0       0      34        0.0%
BITBANK15           80      0       0      35        0.0%
BANK15              80      0       0      36        0.0%
BIGRAM             F7F      0       0      37        0.0%
BITSFR               0      0       0      40        0.0%
SFR                  0      0       0      40        0.0%


Microchip Technology PIC18 Macro Assembler V1.34 build -361300703 
Symbol Table                                                                                   Thu Oct 02 14:48:33 2025

                       l72 FE5C                         l81 FE92                         l57 FF4C  
                       l74 FE60                         l90 FEC8                         l75 FE66  
                       l83 FE96                         l76 FE6A                         l84 FE9C  
                       l92 FECC                         l77 FE8C                         l85 FEA0  
                       l93 FED2                         l86 FEC2                         l94 FED6  
                       l95 FEF8                         l99 FEFE                        l101 FF02  
                      l102 FF08                        l110 FE50                        l103 FF0C  
                      l104 FF2E                        l141 FFD6                        l142 FFD8  
                      l143 FFE2                        l144 FFE4                        l137 FFBC  
                      l146 FFFE                        l800 FEA6                        l812 FF12  
                      l806 FEDC                        l902 FF68                        l852 FFB4  
                      l844 FFA2                        l864 FFCE                        l856 FFC0  
                      l848 FFAC                        l794 FE70                        l898 FF54  
        ?_Wait_Half_Second 0001         ??_Wait_Half_Second 0001               __CFG_LVP$OFF 000000  
             __CFG_WDT$OFF 000000                       _main FF30                       start 0000  
             ___param_bank 000010                      ?_main 0001                      _T0CON 000FD5  
                    _RCSTA 000FAB                      _TMR0H 000FD7                      _TMR0L 000FD6  
                    _SPBRG 000FAF                      _TRISA 000F92                      _TRISB 000F93  
                    _TRISC 000F94                      _TRISD 000F95                      _TRISE 000F96  
                    _TXSTA 000FAC          ??_Wait_One_Second 0001                      main@i 0004  
           __CFG_BOREN$OFF 000000                      status 000FD8            __initialization FE04  
             __end_of_main FF90           __end_of_Init_ADC FE1C           __end_of_Set_EWLT FEC4  
         __end_of_Set_NSLT FF30                     ??_main 0004              __activetblptr 000002  
                   _ADCON0 000FC2                     _ADCON1 000FC1                     _ADCON2 000FC0  
                   _OSCCON 000FD3                     _SPBRGH 000FB0                     _Set_EW FE58  
                   _Set_NS FEC4         __size_of_OpenUSART 0070                Set_EW@color 0001  
                   tblptru 000FF8                Set_NS@color 0001                 __accesstop 0080  
  __end_of__initialization FE04              ___rparam_used 000001             __pcstackCOMRAM 0001  
        __end_of_OpenUSART 0000                  ?_Init_ADC 0001         __size_of_init_UART 0014  
__size_of_Wait_Half_Second 001A                  ?_Set_EWLT 0001                  ?_Set_NSLT 0001  
                  ?_Set_EW 0001                    ?_Set_NS 0001            _Wait_One_Second FE1C  
               ??_Init_ADC 0001                 ??_Set_EWLT 0001                 ??_Set_NSLT 0001  
                  __Hparam 0000                    __Lparam 0000            __size_of_Set_EW 0036  
          __size_of_Set_NS 0036                    __pcinit FE04                    __ramtop 1000  
                  __ptext0 FF30                    __ptext1 FE2A                    __ptext2 FF90  
                  __ptext3 FE1C                    __ptext4 FE3E                    __ptext5 FEFA  
                  __ptext6 FEC4                    __ptext7 FE8E                    __ptext8 FE58  
                  __ptext9 FE0E          __end_of_init_UART FE3E                  _T0CONbits 000FD5  
     end_of_initialization FE04              __Lmediumconst 0000    __end_of_Wait_One_Second FE2A  
                _RCSTAbits 000FAB                  _PORTAbits 000F80                  _PORTCbits 000F82  
                _PORTDbits 000F83                  _PORTEbits 000F84                  _TRISCbits 000F94  
         _Wait_Half_Second FE3E                  _TXSTAbits 000FAC             __end_of_Set_EW FE8E  
           __end_of_Set_NS FEFA        start_initialization FE04                  _OpenUSART FF90  
         __CFG_OSC$INTIO67 000000          __size_of_Init_ADC 000E                   ??_Set_EW 0001  
                 ??_Set_NS 0001          __size_of_Set_EWLT 0036          __size_of_Set_NSLT 0036  
         ?_Wait_One_Second 0001                 ?_OpenUSART 0001                  _init_UART FE2A  
                 _PIE1bits 000F9D                   _PIR1bits 000F9E   __end_of_Wait_Half_Second FE58  
               ?_init_UART 0001                   _Init_ADC FE0E                ??_OpenUSART 0003  
          OpenUSART@config 0003                   _Set_EWLT FE8E                   _Set_NSLT FEFA  
                 __Hrparam 0000                   __Lrparam 0000              __size_of_main 0060  
               _INTCONbits 000FF2             OpenUSART@spbrg 0001                ??_init_UART 0004  
            Set_EWLT@color 0001   __size_of_Wait_One_Second 000E              Set_NSLT@color 0001  
